 PhysX3Cooking_x64

 Timestamp is 615660a7 (Thu Sep 30 21:13:11 2021)

 Preferred load address is 0000000180000000

 Start         Length     Name                   Class
 0001:00000000 00000300H .text$di                CODE
 0001:00000300 0007fc70H .text$mn                CODE
 0001:0007ff70 00000040H .text$mn$00             CODE
 0001:0007ffb0 000009f0H .text$x                 CODE
 0002:00000000 000002d0H .idata$5                DATA
 0002:000002d0 00000028H .00cfg                  DATA
 0002:000002f8 00000008H .CRT$XCA                DATA
 0002:00000300 00000180H .CRT$XCU                DATA
 0002:00000480 00000008H .CRT$XCZ                DATA
 0002:00000488 00000008H .CRT$XIA                DATA
 0002:00000490 00000018H .CRT$XIC                DATA
 0002:000004a8 00000008H .CRT$XIZ                DATA
 0002:000004b0 00000008H .CRT$XPA                DATA
 0002:000004b8 00000010H .CRT$XPX                DATA
 0002:000004c8 00000008H .CRT$XPXA               DATA
 0002:000004d0 00000008H .CRT$XPZ                DATA
 0002:000004d8 00000008H .CRT$XTA                DATA
 0002:000004e0 00000010H .CRT$XTZ                DATA
 0002:000004e8 00000000H .gehcont$y              DATA
 0002:000004e8 00000000H .gfids$y                DATA
 0002:000004f0 0000d610H .rdata                  DATA
 0002:0000db00 00000008H .rdata$CastGuardVftablesA DATA
 0002:0000db08 00000008H .rdata$CastGuardVftablesC DATA
 0002:0000db10 00000464H .rdata$r                DATA
 0002:0000df74 0000020cH .rdata$voltmd           DATA
 0002:0000e180 00000448H .rdata$zzzdbg           DATA
 0002:0000e5c8 00000008H .rtc$IAA                DATA
 0002:0000e5d0 00000008H .rtc$IZZ                DATA
 0002:0000e5d8 00000008H .rtc$TAA                DATA
 0002:0000e5e0 00000008H .rtc$TZZ                DATA
 0002:0000e5e8 00009178H .xdata                  DATA
 0002:00017760 00000084H .xdata$x                DATA
 0002:000177e4 00000040H .didat$2                DATA
 0002:00017824 00000024H .didat$3                DATA
 0002:00017848 00000170H .didat$4                DATA
 0002:000179b8 000008a0H .didat$6                DATA
 0002:00018258 00000178H .didat$7                DATA
 0002:000183d0 00000084H .edata                  DATA
 0002:00018454 00000014H .idata$2                DATA
 0002:00018468 00000018H .idata$3                DATA
 0002:00018480 000002d0H .idata$4                DATA
 0002:00018750 00000694H .idata$6                DATA
 0003:00000000 00000aa0H .data                   DATA
 0003:00000aa0 00000738H .data$r                 DATA
 0003:000011d8 000000f0H .data$rs                DATA
 0003:000012c8 00000178H .didat$5                DATA
 0003:00001440 00001db0H .bss                    DATA
 0004:00000000 00006a44H .pdata                  DATA
 0005:00000000 00002304H _RDATA                  DATA
 0006:00000000 000000a0H .rsrc$01                DATA
 0006:000000a0 000004b8H .rsrc$02                DATA

  Address         Publics by Value              Rva+Base               Lib:Object

 0000:00000000       __enclave_config           0000000000000000     <absolute>
 0000:00000000       __AbsoluteZero             0000000000000000     <absolute>
 0000:00000000       __dynamic_value_reloc_table 0000000000000000     <absolute>
 0000:00000000       __guard_check_icall_a64n_fptr 0000000000000000     <absolute>
 0000:00000000       __arm64x_extra_rfe_table   0000000000000000     <absolute>
 0000:00000000       __guard_iat_table          0000000000000000     <absolute>
 0000:00000000       __arm64x_extra_rfe_table_size 0000000000000000     <absolute>
 0000:00000000       __arm64x_redirection_metadata_count 0000000000000000     <absolute>
 0000:00000000       __arm64x_redirection_metadata 0000000000000000     <absolute>
 0000:00000000       __x64_code_ranges_to_entry_points_count 0000000000000000     <absolute>
 0000:00000000       __hybrid_code_map          0000000000000000     <absolute>
 0000:00000000       __guard_fids_count         0000000000000000     <absolute>
 0000:00000000       __hybrid_code_map_count    0000000000000000     <absolute>
 0000:00000000       __arm64x_native_entrypoint 0000000000000000     <absolute>
 0000:00000000       __guard_iat_count          0000000000000000     <absolute>
 0000:00000000       __guard_fids_table         0000000000000000     <absolute>
 0000:00000000       __hybrid_auxiliary_iat_copy 0000000000000000     <absolute>
 0000:00000000       __guard_longjmp_table      0000000000000000     <absolute>
 0000:00000000       __guard_eh_cont_table      0000000000000000     <absolute>
 0000:00000000       __guard_longjmp_count      0000000000000000     <absolute>
 0000:00000000       __guard_eh_cont_count      0000000000000000     <absolute>
 0000:00000000       ___safe_se_handler_count   0000000000000000     <absolute>
 0000:00000000       __x64_code_ranges_to_entry_points 0000000000000000     <absolute>
 0000:00000000       ___safe_se_handler_table   0000000000000000     <absolute>
 0000:00000000       __hybrid_auxiliary_iat     0000000000000000     <absolute>
 0000:00000100       __guard_flags              0000000000000100     <absolute>
 0000:00000000       __ImageBase                0000000180000000     <linker-defined>
 0001:00000300       PxSetPhysXCookingDelayLoadHook 0000000180001300 f   WindowsCookingDelayLoadHook.obj
 0001:00000310       ?delayHook@@YAP6A_JXZIPEAUDelayLoadInfo@@@Z 0000000180001310 f   WindowsCookingDelayLoadHook.obj
 0001:00000360       ?physXCommonDliNotePreLoadLibrary@Cm@physx@@YAP6A_JXZPEBDPEBVPxDelayLoadHook@2@@Z 0000000180001360 f i WindowsCookingDelayLoadHook.obj
 0001:000005e0       ?saveHeightField@physx@@YA_NAEBVHeightField@Gu@1@AEAVPxOutputStream@1@_N@Z 00000001800015e0 f   HeightFieldCooking.obj
 0001:00000830       ?__empty_global_delete@@YAXPEAX@Z 0000000180001830 f i HeightFieldCooking.obj
 0001:00000840       ?__global_array_delete@@YAXPEAX_K@Z 0000000180001840 f i HeightFieldCooking.obj
 0001:00000840       ?__global_delete@@YAXPEAX_K@Z 0000000180001840 f i HeightFieldCooking.obj
 0001:00000840       ?__empty_global_delete@@YAXPEAX_K@Z 0000000180001840 f i HeightFieldCooking.obj
 0001:00000850       ?buildFromTriangles@RTreeCooker@physx@@SAXAEAURTree@Gu@2@PEBVPxVec3@2@IPEBGPEBIIAEAV?$Array@IV?$ReflectionAllocator@I@shdfnd@physx@@@shdfnd@2@PEAURemapCallback@12@MW4Enum@PxMeshCookingHint@2@@Z 0000000180001850 f   RTreeCooking.obj
 0001:00000af0       ??$partition@UBoundsLTE@physx@@@quickSelect@physx@@YAIPEIAIIIIAEBUBoundsLTE@1@@Z 0000000180001af0 f i RTreeCooking.obj
 0001:00000c70       ??$quickSelectFirstK@UBoundsLTE@physx@@@quickSelect@physx@@YAXPEIAIIIIAEBUBoundsLTE@1@@Z 0000000180001c70 f i RTreeCooking.obj
 0001:00000e50       ??$smallSort@I$$CBUSortBoundsPredicate@physx@@@internal@shdfnd@physx@@YAXPEAIHHAEBUSortBoundsPredicate@2@@Z 0000000180001e50 f i RTreeCooking.obj
 0001:00001120       ??$sort@I@shdfnd@physx@@YAXPEAII@Z 0000000180002120 f i RTreeCooking.obj
 0001:00001140       ??$sort@IU?$Less@I@shdfnd@physx@@V?$ReflectionAllocator@I@23@@shdfnd@physx@@YAXPEAIIAEBU?$Less@I@01@AEBV?$ReflectionAllocator@I@01@I@Z 0000000180002140 f i RTreeCooking.obj
 0001:000014f0       ??$sort@IUSortBoundsPredicate@physx@@@shdfnd@physx@@YAXPEAIIAEBUSortBoundsPredicate@1@@Z 00000001800024f0 f i RTreeCooking.obj
 0001:00001510       ??$sort@IUSortBoundsPredicate@physx@@V?$ReflectionAllocator@I@shdfnd@2@@shdfnd@physx@@YAXPEAIIAEBUSortBoundsPredicate@1@AEBV?$ReflectionAllocator@I@01@I@Z 0000000180002510 f i RTreeCooking.obj
 0001:00001960       ??_H@YAXPEAX_K1P6APEAX0@Z@Z 0000000180002960 f i RTreeCooking.obj
 0001:000019b0       ?allocate@?$Array@UInterval@physx@@V?$InlineAllocator@$0CAAA@V?$ReflectionAllocator@UInterval@physx@@@shdfnd@physx@@@shdfnd@2@@shdfnd@physx@@IEAAPEAUInterval@3@I@Z 00000001800029b0 f i RTreeCooking.obj
 0001:00001a70       ?allocate@?$Array@UPxBounds3V@physx@@V?$ReflectionAllocator@UPxBounds3V@physx@@@shdfnd@2@@shdfnd@physx@@IEAAPEAUPxBounds3V@3@I@Z 0000000180002a70 f i RTreeCooking.obj
 0001:00001b10       ?allocate@?$Array@URTreeNodeNQ@physx@@V?$ReflectionAllocator@URTreeNodeNQ@physx@@@shdfnd@2@@shdfnd@physx@@IEAAPEAURTreeNodeNQ@3@I@Z 0000000180002b10 f i RTreeCooking.obj
 0001:00001bb0       ?allocate@?$Array@URTreeNodeQ@Gu@physx@@V?$ReflectionAllocator@URTreeNodeQ@Gu@physx@@@shdfnd@3@@shdfnd@physx@@IEAAPEAURTreeNodeQ@Gu@3@I@Z 0000000180002bb0 f i RTreeCooking.obj
 0001:00001c50       ?allocate@?$Array@VPxVec3@physx@@V?$ReflectionAllocator@VPxVec3@physx@@@shdfnd@2@@shdfnd@physx@@IEAAPEAVPxVec3@3@I@Z 0000000180002c50 f i RTreeCooking.obj
 0001:00001cf0       ?allocate@?$ReflectionAllocator@I@shdfnd@physx@@QEAAPEAX_KPEBDH@Z 0000000180002cf0 f i RTreeCooking.obj
 0001:000029e0       ?copy@?$Array@URTreeNodeNQ@physx@@V?$ReflectionAllocator@URTreeNodeNQ@physx@@@shdfnd@2@@shdfnd@physx@@KAXPEAURTreeNodeNQ@3@0PEBU43@@Z 00000001800039e0 f i RTreeCooking.obj
 0001:00002ba0       ?copy@?$Array@VPxVec3@physx@@V?$ReflectionAllocator@VPxVec3@physx@@@shdfnd@2@@shdfnd@physx@@KAXPEAVPxVec3@3@0PEBV43@@Z 0000000180003ba0 f i RTreeCooking.obj
 0001:00002c70       ?growAndPushBack@?$Array@IV?$ReflectionAllocator@I@shdfnd@physx@@@shdfnd@physx@@IEAAAEAIAEBI@Z 0000000180003c70 f i RTreeCooking.obj
 0001:00002d40       ?growAndPushBack@?$Array@UInterval@physx@@V?$InlineAllocator@$0CAAA@V?$ReflectionAllocator@UInterval@physx@@@shdfnd@physx@@@shdfnd@2@@shdfnd@physx@@IEAAAEAUInterval@3@AEBU43@@Z 0000000180003d40 f i RTreeCooking.obj
 0001:00002e20       ?growAndPushBack@?$Array@UPxBounds3V@physx@@V?$ReflectionAllocator@UPxBounds3V@physx@@@shdfnd@2@@shdfnd@physx@@IEAAAEAUPxBounds3V@3@AEBU43@@Z 0000000180003e20 f i RTreeCooking.obj
 0001:00002ef0       ?growAndPushBack@?$Array@URTreeNodeNQ@physx@@V?$ReflectionAllocator@URTreeNodeNQ@physx@@@shdfnd@2@@shdfnd@physx@@IEAAAEAURTreeNodeNQ@3@AEBU43@@Z 0000000180003ef0 f i RTreeCooking.obj
 0001:00002fd0       ?growAndPushBack@?$Array@URTreeNodeQ@Gu@physx@@V?$ReflectionAllocator@URTreeNodeQ@Gu@physx@@@shdfnd@3@@shdfnd@physx@@IEAAAEAURTreeNodeQ@Gu@3@AEBU453@@Z 0000000180003fd0 f i RTreeCooking.obj
 0001:000030b0       ?growAndPushBack@?$Array@VPxVec3@physx@@V?$ReflectionAllocator@VPxVec3@physx@@@shdfnd@2@@shdfnd@physx@@IEAAAEAVPxVec3@3@AEBV43@@Z 00000001800040b0 f i RTreeCooking.obj
 0001:00003170       ?recreate@?$Array@IV?$ReflectionAllocator@I@shdfnd@physx@@@shdfnd@physx@@IEAAXI@Z 0000000180004170 f i RTreeCooking.obj
 0001:00003230       ?recreate@?$Array@UPxBounds3V@physx@@V?$ReflectionAllocator@UPxBounds3V@physx@@@shdfnd@2@@shdfnd@physx@@IEAAXI@Z 0000000180004230 f i RTreeCooking.obj
 0001:000032e0       ?recreate@?$Array@URTreeNodeNQ@physx@@V?$ReflectionAllocator@URTreeNodeNQ@physx@@@shdfnd@2@@shdfnd@physx@@IEAAXI@Z 00000001800042e0 f i RTreeCooking.obj
 0001:00003370       ?recreate@?$Array@URTreeNodeQ@Gu@physx@@V?$ReflectionAllocator@URTreeNodeQ@Gu@physx@@@shdfnd@3@@shdfnd@physx@@IEAAXI@Z 0000000180004370 f i RTreeCooking.obj
 0001:00003430       ?recreate@?$Array@VPxVec3@physx@@V?$ReflectionAllocator@VPxVec3@physx@@@shdfnd@2@@shdfnd@physx@@IEAAXI@Z 0000000180004430 f i RTreeCooking.obj
 0001:000034c0       ?resize@?$Array@IV?$ReflectionAllocator@I@shdfnd@physx@@@shdfnd@physx@@QEAAXIAEBI@Z 00000001800044c0 f i RTreeCooking.obj
 0001:00003580       ?resizeUninitialized@?$Array@URTreeNodeNQ@physx@@V?$ReflectionAllocator@URTreeNodeNQ@physx@@@shdfnd@2@@shdfnd@physx@@QEAAXI@Z 0000000180004580 f i RTreeCooking.obj
 0001:000035c0       ?sort4@SubSortQuick@physx@@QEAAXPEIAIIAEAV?$Array@URTreeNodeNQ@physx@@V?$ReflectionAllocator@URTreeNodeNQ@physx@@@shdfnd@2@@shdfnd@2@AEAIAEAUPxBounds3V@2@I@Z 00000001800045c0 f i RTreeCooking.obj
 0001:00003950       ?sort4@SubSortSAH@physx@@QEAAXPEAIIAEAV?$Array@URTreeNodeNQ@physx@@V?$ReflectionAllocator@URTreeNodeNQ@physx@@@shdfnd@2@@shdfnd@2@AEAIIPEAURTreeNodeNQ@2@@Z 0000000180004950 f i RTreeCooking.obj
 0001:000041a0       ?split@SubSortSAH@physx@@QEAAIPEAII@Z 00000001800051a0 f i RTreeCooking.obj
 0001:00004ba0       ??0TriangleMeshBuilder@physx@@QEAA@AEAVTriangleMeshData@Gu@1@AEBUPxCookingParams@1@@Z 0000000180005ba0 f   TriangleMeshBuilder.obj
 0001:00004bd0       ??1TriangleMeshBuilder@physx@@UEAA@XZ 0000000180005bd0 f   TriangleMeshBuilder.obj
 0001:00004c40       ?cleanMesh@TriangleMeshBuilder@physx@@QEAA_N_NPEAW4Enum@PxTriangleMeshCookingResult@2@@Z 0000000180005c40 f   TriangleMeshBuilder.obj
 0001:000050f0       ?remapTopology@TriangleMeshBuilder@physx@@QEAAXPEBI@Z 00000001800060f0 f   TriangleMeshBuilder.obj
 0001:00005340       ?createSharedEdgeData@TriangleMeshBuilder@physx@@QEAAX_N0@Z 0000000180006340 f   TriangleMeshBuilder.obj
 0001:000057b0       ?recordTriangleIndices@TriangleMeshBuilder@physx@@QEAAXXZ 00000001800067b0 f   TriangleMeshBuilder.obj
 0001:00005850       ?createGRBMidPhaseAndData@TriangleMeshBuilder@physx@@QEAAXI@Z 0000000180006850 f   TriangleMeshBuilder.obj
 0001:00005bf0       ?createGRBData@TriangleMeshBuilder@physx@@QEAAXXZ 0000000180006bf0 f   TriangleMeshBuilder.obj
 0001:00005cf0       ?loadFromDesc@TriangleMeshBuilder@physx@@QEAA_NAEBVPxTriangleMeshDesc@2@PEAW4Enum@PxTriangleMeshCookingResult@2@_N@Z 0000000180006cf0 f   TriangleMeshBuilder.obj
 0001:00006160       ?save@TriangleMeshBuilder@physx@@QEBA_NAEAVPxOutputStream@2@_NAEBUPxCookingParams@2@@Z 0000000180007160 f   TriangleMeshBuilder.obj
 0001:00006760       ?checkMeshIndicesSize@TriangleMeshBuilder@physx@@QEAAXXZ 0000000180007760 f   TriangleMeshBuilder.obj
 0001:00006870       ?computeLocalBounds@TriangleMeshBuilder@physx@@IEAAXXZ 0000000180007870 f   TriangleMeshBuilder.obj
 0001:00006910       ?importMesh@TriangleMeshBuilder@physx@@IEAA_NAEBVPxTriangleMeshDesc@2@AEBUPxCookingParams@2@PEAW4Enum@PxTriangleMeshCookingResult@2@_N@Z 0000000180007910 f   TriangleMeshBuilder.obj
 0001:00006b90       ?releaseEdgeList@TriangleMeshBuilder@physx@@IEAAXXZ 0000000180007b90 f   TriangleMeshBuilder.obj
 0001:00006bf0       ?createEdgeList@TriangleMeshBuilder@physx@@IEAAXXZ 0000000180007bf0 f   TriangleMeshBuilder.obj
 0001:00006d10       ??0RTreeTriangleMeshBuilder@physx@@QEAA@AEBUPxCookingParams@1@@Z 0000000180007d10 f   TriangleMeshBuilder.obj
 0001:00006dd0       ??1RTreeTriangleMeshBuilder@physx@@UEAA@XZ 0000000180007dd0 f   TriangleMeshBuilder.obj
 0001:00006e00       ?createMidPhaseStructure@RTreeTriangleMeshBuilder@physx@@UEAAXXZ 0000000180007e00 f   TriangleMeshBuilder.obj
 0001:00006ef0       ?saveMidPhaseStructure@RTreeTriangleMeshBuilder@physx@@UEBAXAEAVPxOutputStream@2@_N@Z 0000000180007ef0 f   TriangleMeshBuilder.obj
 0001:00007140       ??0BV4TriangleMeshBuilder@physx@@QEAA@AEBUPxCookingParams@1@@Z 0000000180008140 f   TriangleMeshBuilder.obj
 0001:00007210       ??1BV4TriangleMeshBuilder@physx@@UEAA@XZ 0000000180008210 f   TriangleMeshBuilder.obj
 0001:00007270       ?createMidPhaseStructure@BV4TriangleMeshBuilder@physx@@UEAAXXZ 0000000180008270 f   TriangleMeshBuilder.obj
 0001:00007500       ?saveMidPhaseStructure@BV4TriangleMeshBuilder@physx@@UEBAXAEAVPxOutputStream@2@_N@Z 0000000180008500 f   TriangleMeshBuilder.obj
 0001:00007700       ?onMeshIndexFormatChange@BV4TriangleMeshBuilder@physx@@UEAAXXZ 0000000180008700 f   TriangleMeshBuilder.obj
 0001:00007740       ?createMidPhaseStructure@BV32TriangleMeshBuilder@physx@@SAXAEBUPxCookingParams@2@AEAVTriangleMeshData@Gu@2@AEAVBV32Tree@52@@Z 0000000180008740 f   TriangleMeshBuilder.obj
 0001:000078c0       ?saveMidPhaseStructure@BV32TriangleMeshBuilder@physx@@SAXPEAVBV32Tree@Gu@2@AEAVPxOutputStream@2@_N@Z 00000001800088c0 f   TriangleMeshBuilder.obj
 0001:00007a60       ?findSharpVertices@GrbTrimeshCookerHelper@physx@@YAXAEAV?$Array@USortedNeighbor@GrbTrimeshCookerHelper@physx@@V?$ReflectionAllocator@USortedNeighbor@GrbTrimeshCookerHelper@physx@@@shdfnd@3@@shdfnd@2@AEAV?$Array@USharpEdgeRange@GrbTrimeshCookerHelper@physx@@V?$ReflectionAllocator@USharpEdgeRange@GrbTrimeshCookerHelper@physx@@@shdfnd@3@@42@PEBUuint3@2@PEBUuint4@2@II@Z 0000000180008a60 f   TriangleMeshBuilder.obj
 0001:00007e00       ?buildVertexConnectionNew_p1@GrbTrimeshCookerHelper@physx@@YAIAEAV?$Array@USortedNeighbor@GrbTrimeshCookerHelper@physx@@V?$ReflectionAllocator@USortedNeighbor@GrbTrimeshCookerHelper@physx@@@shdfnd@3@@shdfnd@2@AEAV?$Array@USharpEdgeRange@GrbTrimeshCookerHelper@physx@@V?$ReflectionAllocator@USharpEdgeRange@GrbTrimeshCookerHelper@physx@@@shdfnd@3@@42@PEBUuint3@2@PEBUuint4@2@II@Z 0000000180008e00 f   TriangleMeshBuilder.obj
 0001:00007f80       ?buildVertexConnectionNew_p2@GrbTrimeshCookerHelper@physx@@YAXPEAI00AEAV?$Array@USortedNeighbor@GrbTrimeshCookerHelper@physx@@V?$ReflectionAllocator@USortedNeighbor@GrbTrimeshCookerHelper@physx@@@shdfnd@3@@shdfnd@2@AEAV?$Array@USharpEdgeRange@GrbTrimeshCookerHelper@physx@@V?$ReflectionAllocator@USharpEdgeRange@GrbTrimeshCookerHelper@physx@@@shdfnd@3@@42@I@Z 0000000180008f80 f   TriangleMeshBuilder.obj
 0001:00008030       ??$?_UG@@YAPEAX_KV?$ReflectionAllocator@G@shdfnd@physx@@PEBDH@Z 0000000180009030 f i TriangleMeshBuilder.obj
 0001:000080d0       ??$median3@USortedNeighbor@GrbTrimeshCookerHelper@physx@@$$CBU?$Less@USortedNeighbor@GrbTrimeshCookerHelper@physx@@@shdfnd@3@@internal@shdfnd@physx@@YAXPEAUSortedNeighbor@GrbTrimeshCookerHelper@2@HHAEBU?$Less@USortedNeighbor@GrbTrimeshCookerHelper@physx@@@12@@Z 00000001800090d0 f i TriangleMeshBuilder.obj
 0001:00008200       ??$sort@UEdgeTriLookup@physx@@@shdfnd@physx@@YAXPEAUEdgeTriLookup@1@I@Z 0000000180009200 f i TriangleMeshBuilder.obj
 0001:00008220       ??$sort@UEdgeTriLookup@physx@@U?$Less@UEdgeTriLookup@physx@@@shdfnd@2@V?$ReflectionAllocator@UEdgeTriLookup@physx@@@42@@shdfnd@physx@@YAXPEAUEdgeTriLookup@1@IAEBU?$Less@UEdgeTriLookup@physx@@@01@AEBV?$ReflectionAllocator@UEdgeTriLookup@physx@@@01@I@Z 0000000180009220 f i TriangleMeshBuilder.obj
 0001:000087b0       ??$sort@USortedNeighbor@GrbTrimeshCookerHelper@physx@@@shdfnd@physx@@YAXPEAUSortedNeighbor@GrbTrimeshCookerHelper@1@I@Z 00000001800097b0 f i TriangleMeshBuilder.obj
 0001:000087d0       ??$sort@USortedNeighbor@GrbTrimeshCookerHelper@physx@@U?$Less@USortedNeighbor@GrbTrimeshCookerHelper@physx@@@shdfnd@3@V?$ReflectionAllocator@USortedNeighbor@GrbTrimeshCookerHelper@physx@@@53@@shdfnd@physx@@YAXPEAUSortedNeighbor@GrbTrimeshCookerHelper@1@IAEBU?$Less@USortedNeighbor@GrbTrimeshCookerHelper@physx@@@01@AEBV?$ReflectionAllocator@USortedNeighbor@GrbTrimeshCookerHelper@physx@@@01@I@Z 00000001800097d0 f i TriangleMeshBuilder.obj
 0001:00008c30       ??0PxVec4@physx@@QEAA@XZ   0000000180009c30 f i TriangleMeshBuilder.obj
 0001:00008c40       ??1BV4TriangleData@Gu@physx@@UEAA@XZ 0000000180009c40 f i TriangleMeshBuilder.obj
 0001:00008c80       ??1RTreeTriangleData@Gu@physx@@UEAA@XZ 0000000180009c80 f i TriangleMeshBuilder.obj
 0001:00008cf0       ??1RemapCallback@RTreeCooker@physx@@UEAA@XZ 0000000180009cf0 f i TriangleMeshBuilder.obj
 0001:00008d00       ??1TriangleMeshData@Gu@physx@@UEAA@XZ 0000000180009d00 f i TriangleMeshBuilder.obj
 0001:00008e80       ??_GBV4TriangleData@Gu@physx@@UEAAPEAXI@Z 0000000180009e80 f i TriangleMeshBuilder.obj
 0001:00008e80       ??_EBV4TriangleData@Gu@physx@@UEAAPEAXI@Z 0000000180009e80 f i TriangleMeshBuilder.obj
 0001:00008f10       ??_EBV4TriangleMeshBuilder@physx@@UEAAPEAXI@Z 0000000180009f10 f i TriangleMeshBuilder.obj
 0001:00008f10       ??_GBV4TriangleMeshBuilder@physx@@UEAAPEAXI@Z 0000000180009f10 f i TriangleMeshBuilder.obj
 0001:00008f90       ??_ERTreeCookerRemap@physx@@UEAAPEAXI@Z 0000000180009f90 f i TriangleMeshBuilder.obj
 0001:00008f90       ??_GRTreeCookerRemap@physx@@UEAAPEAXI@Z 0000000180009f90 f i TriangleMeshBuilder.obj
 0001:00008fc0       ??_GRTreeTriangleData@Gu@physx@@UEAAPEAXI@Z 0000000180009fc0 f i TriangleMeshBuilder.obj
 0001:00008fc0       ??_ERTreeTriangleData@Gu@physx@@UEAAPEAXI@Z 0000000180009fc0 f i TriangleMeshBuilder.obj
 0001:00009030       ??_GRTreeTriangleMeshBuilder@physx@@UEAAPEAXI@Z 000000018000a030 f i TriangleMeshBuilder.obj
 0001:00009030       ??_ERTreeTriangleMeshBuilder@physx@@UEAAPEAXI@Z 000000018000a030 f i TriangleMeshBuilder.obj
 0001:00009080       ??_ERemapCallback@RTreeCooker@physx@@UEAAPEAXI@Z 000000018000a080 f i TriangleMeshBuilder.obj
 0001:00009080       ??_GRemapCallback@RTreeCooker@physx@@UEAAPEAXI@Z 000000018000a080 f i TriangleMeshBuilder.obj
 0001:000090b0       ??_GTriangleMeshBuilder@physx@@UEAAPEAXI@Z 000000018000a0b0 f i TriangleMeshBuilder.obj
 0001:000090b0       ??_ETriangleMeshBuilder@physx@@UEAAPEAXI@Z 000000018000a0b0 f i TriangleMeshBuilder.obj
 0001:000090f0       ??_GTriangleMeshData@Gu@physx@@UEAAPEAXI@Z 000000018000a0f0 f i TriangleMeshBuilder.obj
 0001:000090f0       ??_ETriangleMeshData@Gu@physx@@UEAAPEAXI@Z 000000018000a0f0 f i TriangleMeshBuilder.obj
 0001:00009160       ?allocate@?$ReflectionAllocator@USortedNeighbor@GrbTrimeshCookerHelper@physx@@@shdfnd@physx@@QEAAPEAX_KPEBDH@Z 000000018000a160 f i TriangleMeshBuilder.obj
 0001:00009200       ?allocateTriangles@TriangleMeshData@Gu@physx@@QEAAPEAXI_NI@Z 000000018000a200 f i TriangleMeshBuilder.obj
 0001:000092e0       ?allocateVertices@TriangleMeshData@Gu@physx@@QEAAPEAVPxVec3@3@I@Z 000000018000a2e0 f i TriangleMeshBuilder.obj
 0001:00009a20       ?getMidphaseID@BV4TriangleMeshBuilder@physx@@UEBA?AW4Enum@PxMeshMidPhase@2@XZ 000000018000aa20 f i TriangleMeshBuilder.obj
 0001:00009a30       ?getMidphaseID@RTreeTriangleMeshBuilder@physx@@UEBA?AW4Enum@PxMeshMidPhase@2@XZ 000000018000aa30 f i TriangleMeshBuilder.obj
 0001:00009a40       ?growAndPushBack@?$Array@USortedNeighbor@GrbTrimeshCookerHelper@physx@@V?$ReflectionAllocator@USortedNeighbor@GrbTrimeshCookerHelper@physx@@@shdfnd@3@@shdfnd@physx@@IEAAAEAUSortedNeighbor@GrbTrimeshCookerHelper@3@AEBU453@@Z 000000018000aa40 f i TriangleMeshBuilder.obj
 0001:00009b40       ?onMeshIndexFormatChange@TriangleMeshBuilder@physx@@UEAAXXZ 000000018000ab40 f i TriangleMeshBuilder.obj
 0001:00009b50       ?recreate@?$Array@USharpEdgeRange@GrbTrimeshCookerHelper@physx@@V?$ReflectionAllocator@USharpEdgeRange@GrbTrimeshCookerHelper@physx@@@shdfnd@3@@shdfnd@physx@@IEAAXI@Z 000000018000ab50 f i TriangleMeshBuilder.obj
 0001:00009c60       ?recreate@?$Array@USortedNeighbor@GrbTrimeshCookerHelper@physx@@V?$ReflectionAllocator@USortedNeighbor@GrbTrimeshCookerHelper@physx@@@shdfnd@3@@shdfnd@physx@@IEAAXI@Z 000000018000ac60 f i TriangleMeshBuilder.obj
 0001:00009d30       ?remap@RTreeCookerRemap@physx@@UEAAXPEAIII@Z 000000018000ad30 f i TriangleMeshBuilder.obj
 0001:00009d50       ?resize@?$Array@USharpEdgeRange@GrbTrimeshCookerHelper@physx@@V?$ReflectionAllocator@USharpEdgeRange@GrbTrimeshCookerHelper@physx@@@shdfnd@3@@shdfnd@physx@@QEAAXIAEBUSharpEdgeRange@GrbTrimeshCookerHelper@3@@Z 000000018000ad50 f i TriangleMeshBuilder.obj
 0001:00009e10       ?resizeUninitialized@?$Array@USortedNeighbor@GrbTrimeshCookerHelper@physx@@V?$ReflectionAllocator@USortedNeighbor@GrbTrimeshCookerHelper@physx@@@shdfnd@3@@shdfnd@physx@@QEAAXI@Z 000000018000ae10 f i TriangleMeshBuilder.obj
 0001:00009e50       ??0BigConvexDataBuilder@physx@@QEAA@PEBUConvexHullData@Gu@1@PEAVBigConvexData@1@PEBVPxVec3@1@@Z 000000018000ae50 f   BigConvexDataBuilder.obj
 0001:00009e70       ??1BigConvexDataBuilder@physx@@QEAA@XZ 000000018000ae70 f   BigConvexDataBuilder.obj
 0001:00009e80       ?precompute@BigConvexDataBuilder@physx@@QEAA_NI@Z 000000018000ae80 f   BigConvexDataBuilder.obj
 0001:0000aad0       ?initialize@BigConvexDataBuilder@physx@@QEAA_NXZ 000000018000bad0 f   BigConvexDataBuilder.obj
 0001:0000ab80       ?save@BigConvexDataBuilder@physx@@QEBA_NAEAVPxOutputStream@2@_N@Z 000000018000bb80 f   BigConvexDataBuilder.obj
 0001:0000add0       ?computeValencies@BigConvexDataBuilder@physx@@QEAA_NAEBVConvexHullBuilder@2@@Z 000000018000bdd0 f   BigConvexDataBuilder.obj
 0001:0000b1c0       ?saveValencies@BigConvexDataBuilder@physx@@QEBA_NAEAVPxOutputStream@2@_N@Z 000000018000c1c0 f   BigConvexDataBuilder.obj
 0001:0000b370       ??0ConvexHullBuilder@physx@@QEAA@PEAUConvexHullData@Gu@1@_N@Z 000000018000c370 f   ConvexHullBuilder.obj
 0001:0000b3a0       ??1ConvexHullBuilder@physx@@QEAA@XZ 000000018000c3a0 f   ConvexHullBuilder.obj
 0001:0000b4b0       ?init@ConvexHullBuilder@physx@@QEAA_NIPEBVPxVec3@2@PEBIIIPEBUPxHullPolygon@2@_NPEAVConvexHullLib@2@@Z 000000018000c4b0 f   ConvexHullBuilder.obj
 0001:0000be30       ?save@ConvexHullBuilder@physx@@QEBA_NAEAVPxOutputStream@2@_N@Z 000000018000ce30 f   ConvexHullBuilder.obj
 0001:0000c180       ?copy@ConvexHullBuilder@physx@@QEAA_NAEAUConvexHullData@Gu@2@AEAI@Z 000000018000d180 f   ConvexHullBuilder.obj
 0001:0000c400       ?createEdgeList@ConvexHullBuilder@physx@@QEAA_N_NI@Z 000000018000d400 f   ConvexHullBuilder.obj
 0001:0000cc10       ?checkHullPolygons@ConvexHullBuilder@physx@@QEBA_NXZ 000000018000dc10 f   ConvexHullBuilder.obj
 0001:0000d200       ?calculateVertexMapTable@ConvexHullBuilder@physx@@QEAA_NI_N@Z 000000018000e200 f   ConvexHullBuilder.obj
 0001:0000d3c0       ?computeGeomCenter@ConvexHullBuilder@physx@@IEBA_NAEAVPxVec3@2@IPEAUHullTriangleData@2@@Z 000000018000e3c0 f   ConvexHullBuilder.obj
 0001:0000d680       ??$?_UE@@YAPEAX_KV?$ReflectionAllocator@E@shdfnd@physx@@PEBDH@Z 000000018000e680 f i ConvexHullBuilder.obj
 0001:0000d720       ??0PxVec3@physx@@QEAA@XZ   000000018000e720 f i ConvexHullBuilder.obj
 0001:0000d730       ??1ConvexHullLib@physx@@UEAA@XZ 000000018000e730 f   ConvexHullLib.obj
 0001:0000d790       ?cleanupVertices@ConvexHullLib@physx@@IEAA_NIPEBVPxVec3@2@IAEAIPEAV32@AEAV32@3@Z 000000018000e790 f   ConvexHullLib.obj
 0001:0000dbe0       ?shiftAndcleanupVertices@ConvexHullLib@physx@@IEAA_NIPEBVPxVec3@2@IAEAIPEAV32@AEAV32@3@Z 000000018000ebe0 f   ConvexHullLib.obj
 0001:0000e0c0       ?swapLargestFace@ConvexHullLib@physx@@IEAAXAEAVPxConvexMeshDesc@2@@Z 000000018000f0c0 f   ConvexHullLib.obj
 0001:0000e2b0       ?shiftConvexMeshDesc@ConvexHullLib@physx@@IEAAXAEAVPxConvexMeshDesc@2@@Z 000000018000f2b0 f   ConvexHullLib.obj
 0001:0000e370       ??_GConvexHullLib@physx@@UEAAPEAXI@Z 000000018000f370 f i ConvexHullLib.obj
 0001:0000e370       ??_EConvexHullLib@physx@@UEAAPEAXI@Z 000000018000f370 f i ConvexHullLib.obj
 0001:0000e8e0       ??0ConvexHull@physx@@QEAA@AEBVPxVec3@1@0AEBV?$Array@VPxPlane@physx@@V?$ReflectionAllocator@VPxPlane@physx@@@shdfnd@2@@shdfnd@1@@Z 000000018000f8e0 f   ConvexHullUtils.obj
 0001:0000f2a0       ??0ConvexHull@physx@@QEAA@AEBVPxVec3@1@AEBVPxTransform@1@AEBV?$Array@VPxPlane@physx@@V?$ReflectionAllocator@VPxPlane@physx@@@shdfnd@2@@shdfnd@1@@Z 00000001800102a0 f   ConvexHullUtils.obj
 0001:00010400       ?findCandidatePlane@ConvexHull@physx@@QEBAHMM@Z 0000000180011400 f   ConvexHullUtils.obj
 0001:00010870       ?assertIntact@ConvexHull@physx@@QEBA_NM@Z 0000000180011870 f   ConvexHullUtils.obj
 0001:00010b80       ?maxNumVertsPerFace@ConvexHull@physx@@QEBAIXZ 0000000180011b80 f   ConvexHullUtils.obj
 0001:00010c00       ?convexHullCrop@physx@@YAPEAVConvexHull@1@AEBV21@AEBVPxPlane@1@M@Z 0000000180011c00 f   ConvexHullUtils.obj
 0001:000119f0       ?computeOBBFromConvex@physx@@YA_NAEBVPxConvexMeshDesc@1@AEAVPxVec3@1@AEAVPxTransform@1@@Z 00000001800129f0 f   ConvexHullUtils.obj
 0001:00012100       ?computeOBBSIMD@local@@YAXIPEBT__m128@@AEAT2@AEBT2@1@Z 0000000180013100 f   ConvexHullUtils.obj
 0001:00012510       ??0HalfEdge@ConvexHull@physx@@QEAA@XZ 0000000180013510 f i ConvexHullUtils.obj
 0001:00012520       ??0PxPlane@physx@@QEAA@XZ  0000000180013520 f i ConvexHullUtils.obj
 0001:00012530       ?allocate@?$Array@VHalfEdge@ConvexHull@physx@@V?$ReflectionAllocator@VHalfEdge@ConvexHull@physx@@@shdfnd@3@@shdfnd@physx@@IEAAPEAVHalfEdge@ConvexHull@3@I@Z 0000000180013530 f i ConvexHullUtils.obj
 0001:000125d0       ?allocate@?$Array@VPxPlane@physx@@V?$ReflectionAllocator@VPxPlane@physx@@@shdfnd@2@@shdfnd@physx@@IEAAPEAVPxPlane@3@I@Z 00000001800135d0 f i ConvexHullUtils.obj
 0001:00012670       ?copy@?$Array@VPxPlane@physx@@V?$ReflectionAllocator@VPxPlane@physx@@@shdfnd@2@@shdfnd@physx@@KAXPEAVPxPlane@3@0PEBV43@@Z 0000000180013670 f i ConvexHullUtils.obj
 0001:00012770       ?getInverse@PxMat33@physx@@QEBA?BV12@XZ 0000000180013770 f i ConvexHullUtils.obj
 0001:000129c0       ?growAndPushBack@?$Array@VHalfEdge@ConvexHull@physx@@V?$ReflectionAllocator@VHalfEdge@ConvexHull@physx@@@shdfnd@3@@shdfnd@physx@@IEAAAEAVHalfEdge@ConvexHull@3@AEBV453@@Z 00000001800139c0 f i ConvexHullUtils.obj
 0001:00012a80       ?growAndPushBack@?$Array@VPxPlane@physx@@V?$ReflectionAllocator@VPxPlane@physx@@@shdfnd@2@@shdfnd@physx@@IEAAAEAVPxPlane@3@AEBV43@@Z 0000000180013a80 f i ConvexHullUtils.obj
 0001:00012b40       ?recreate@?$Array@VHalfEdge@ConvexHull@physx@@V?$ReflectionAllocator@VHalfEdge@ConvexHull@physx@@@shdfnd@3@@shdfnd@physx@@IEAAXI@Z 0000000180013b40 f i ConvexHullUtils.obj
 0001:00012be0       ?recreate@?$Array@VPxPlane@physx@@V?$ReflectionAllocator@VPxPlane@physx@@@shdfnd@2@@shdfnd@physx@@IEAAXI@Z 0000000180013be0 f i ConvexHullUtils.obj
 0001:00012c70       ?resize@?$Array@VHalfEdge@ConvexHull@physx@@V?$ReflectionAllocator@VHalfEdge@ConvexHull@physx@@@shdfnd@3@@shdfnd@physx@@QEAAXIAEBVHalfEdge@ConvexHull@3@@Z 0000000180013c70 f i ConvexHullUtils.obj
 0001:00012d30       ?resize@?$Array@VPxPlane@physx@@V?$ReflectionAllocator@VPxPlane@physx@@@shdfnd@2@@shdfnd@physx@@QEAAXIAEBVPxPlane@3@@Z 0000000180013d30 f i ConvexHullUtils.obj
 0001:00012e50       ?resize@?$Array@VPxVec3@physx@@V?$ReflectionAllocator@VPxVec3@physx@@@shdfnd@2@@shdfnd@physx@@QEAAXIAEBVPxVec3@3@@Z 0000000180013e50 f i ConvexHullUtils.obj
 0001:00012f40       ??0ConvexMeshBuilder@physx@@QEAA@_N@Z 0000000180013f40 f   ConvexMeshBuilder.obj
 0001:00012fb0       ??1ConvexMeshBuilder@physx@@QEAA@XZ 0000000180013fb0 f   ConvexMeshBuilder.obj
 0001:00013010       ?build@ConvexMeshBuilder@physx@@QEAA_NAEBVPxConvexMeshDesc@2@I_NPEAVConvexHullLib@2@@Z 0000000180014010 f   ConvexMeshBuilder.obj
 0001:00013340       ?save@ConvexMeshBuilder@physx@@QEBA_NAEAVPxOutputStream@2@_N@Z 0000000180014340 f   ConvexMeshBuilder.obj
 0001:00013570       ?copy@ConvexMeshBuilder@physx@@QEAA_NAEAUConvexHullData@Gu@2@AEAI@Z 0000000180014570 f   ConvexMeshBuilder.obj
 0001:00013600       ?loadConvexHull@ConvexMeshBuilder@physx@@QEAA_NAEBVPxConvexMeshDesc@2@PEAVConvexHullLib@2@@Z 0000000180014600 f   ConvexMeshBuilder.obj
 0001:00013890       ?computeHullPolygons@ConvexMeshBuilder@physx@@QEAA_NAEBIPEBVPxVec3@2@0PEBIAEAVPxAllocatorCallback@2@AEAIAEAPEAV32@4AEAPEAI4AEAPEAUPxHullPolygon@2@@Z 0000000180014890 f   ConvexMeshBuilder.obj
 0001:00013ab0       ?computeGaussMaps@ConvexMeshBuilder@physx@@QEAA_NXZ 0000000180014ab0 f   ConvexMeshBuilder.obj
 0001:00013ba0       ?computeMassInfo@ConvexMeshBuilder@physx@@QEAAX_N@Z 0000000180014ba0 f   ConvexMeshBuilder.obj
 0001:00013f70       ?computeInternalObjects@ConvexMeshBuilder@physx@@QEAAXXZ 0000000180014f70 f   ConvexMeshBuilder.obj
 0001:000143f0       ?isFinite@PxVec3@physx@@QEBA_NXZ 00000001800153f0 f i ConvexMeshBuilder.obj
 0001:00014450       ??0ConvexPolygonsBuilder@physx@@QEAA@PEAUConvexHullData@Gu@1@_N@Z 0000000180015450 f   ConvexPolygonsBuilder.obj
 0001:00014480       ??1ConvexPolygonsBuilder@physx@@QEAA@XZ 0000000180015480 f   ConvexPolygonsBuilder.obj
 0001:000144d0       ?computeHullPolygons@ConvexPolygonsBuilder@physx@@QEAA_NAEBIPEBVPxVec3@2@0PEBI@Z 00000001800154d0 f   ConvexPolygonsBuilder.obj
 0001:00015550       ?createPolygonData@ConvexPolygonsBuilder@physx@@AEAA_NXZ 0000000180016550 f   ConvexPolygonsBuilder.obj
 0001:000160f0       ?createTrianglesFromPolygons@ConvexPolygonsBuilder@physx@@AEAA_NXZ 00000001800170f0 f   ConvexPolygonsBuilder.obj
 0001:00016990       ??$?_UUHullTriangleData@physx@@@@YAPEAX_KV?$ReflectionAllocator@UHullTriangleData@physx@@@shdfnd@physx@@PEBDH@Z 0000000180017990 f i ConvexPolygonsBuilder.obj
 0001:00016a30       ??$copy@V?$ReflectionAllocator@VPair@@@shdfnd@physx@@@?$Array@VPair@@V?$ReflectionAllocator@VPair@@@shdfnd@physx@@@shdfnd@physx@@IEAAXAEBV012@@Z 0000000180017a30 f i ConvexPolygonsBuilder.obj
 0001:000172b0       ?allocate@?$Array@IV?$ReflectionAllocator@I@shdfnd@physx@@@shdfnd@physx@@IEAAPEAII@Z 00000001800182b0 f i ConvexPolygonsBuilder.obj
 0001:00017350       ?allocate@?$Array@VPair@@V?$ReflectionAllocator@VPair@@@shdfnd@physx@@@shdfnd@physx@@IEAAPEAVPair@@I@Z 0000000180018350 f i ConvexPolygonsBuilder.obj
 0001:000188e0       ?growAndPushBack@?$Array@VPair@@V?$ReflectionAllocator@VPair@@@shdfnd@physx@@@shdfnd@physx@@IEAAAEAVPair@@AEBV4@@Z 00000001800198e0 f i ConvexPolygonsBuilder.obj
 0001:000189a0       ??0InflationConvexHullLib@physx@@QEAA@AEBVPxConvexMeshDesc@1@AEBUPxCookingParams@1@@Z 00000001800199a0 f   InflationConvexHullLib.obj
 0001:000189e0       ??1InflationConvexHullLib@physx@@UEAA@XZ 00000001800199e0 f   InflationConvexHullLib.obj
 0001:00018a70       ?createConvexHull@InflationConvexHullLib@physx@@UEAA?AW4Enum@PxConvexMeshCookingResult@2@XZ 0000000180019a70 f   InflationConvexHullLib.obj
 0001:00018b80       ?fillConvexMeshDesc@InflationConvexHullLib@physx@@UEAAXAEAVPxConvexMeshDesc@2@@Z 0000000180019b80 f   InflationConvexHullLib.obj
 0001:00018c00       ?computeHull@InflationConvexHullLib@physx@@IEAA?AW4ErrorCode@ConvexHullLibResult@2@IPEBVPxVec3@2@@Z 0000000180019c00 f   InflationConvexHullLib.obj
 0001:00018e20       ?calchull@InflationConvexHullLib@physx@@IEAA?AW4ErrorCode@ConvexHullLibResult@2@PEBVPxVec3@2@IAEAPEAVConvexHull@2@@Z 0000000180019e20 f   InflationConvexHullLib.obj
 0001:00019060       ?calchullgen@InflationConvexHullLib@physx@@IEAA?AW4ErrorCode@ConvexHullLibResult@2@PEBVPxVec3@2@IAEAVHullTriangles@local@@@Z 000000018001a060 f   InflationConvexHullLib.obj
 0001:0001a0d0       ?calchullplanes@InflationConvexHullLib@physx@@IEAA_NPEBVPxVec3@2@AEAVHullTriangles@local@@AEAV?$Array@VPxPlane@physx@@V?$ReflectionAllocator@VPxPlane@physx@@@shdfnd@2@@shdfnd@2@@Z 000000018001b0d0 f   InflationConvexHullLib.obj
 0001:0001a7f0       ?overhull@InflationConvexHullLib@physx@@IEAA_NPEBVPxVec3@2@IAEBV?$Array@VPxPlane@physx@@V?$ReflectionAllocator@VPxPlane@physx@@@shdfnd@2@@shdfnd@2@AEAPEAVConvexHull@2@@Z 000000018001b7f0 f   InflationConvexHullLib.obj
 0001:0001ae40       ?expandHull@InflationConvexHullLib@physx@@IEAA?AW4ErrorCode@ConvexHullLibResult@2@PEBVPxVec3@2@IAEBVHullTriangles@local@@AEAPEAVConvexHull@2@@Z 000000018001be40 f   InflationConvexHullLib.obj
 0001:0001bda0       ?expandHullOBB@InflationConvexHullLib@physx@@IEAA?AW4ErrorCode@ConvexHullLibResult@2@PEBVPxVec3@2@IAEBVHullTriangles@local@@AEAPEAVConvexHull@2@@Z 000000018001cda0 f   InflationConvexHullLib.obj
 0001:0001c4a0       ?maxIndexInDirFiltered@local@@YAHPEBVPxVec3@physx@@IAEBV23@PEA_N@Z 000000018001d4a0 f   InflationConvexHullLib.obj
 0001:0001c770       ?maxIndexInDirSterid@local@@YAHPEBVPxVec3@physx@@IAEBV23@AEAV?$Array@EV?$ReflectionAllocator@E@shdfnd@physx@@@shdfnd@3@@Z 000000018001d770 f   InflationConvexHullLib.obj
 0001:0001cc20       ??_GConvexHull@physx@@QEAAPEAXI@Z 000000018001dc20 f i InflationConvexHullLib.obj
 0001:0001cd00       ??_EInflationConvexHullLib@physx@@UEAAPEAXI@Z 000000018001dd00 f i InflationConvexHullLib.obj
 0001:0001cd00       ??_GInflationConvexHullLib@physx@@UEAAPEAXI@Z 000000018001dd00 f i InflationConvexHullLib.obj
 0001:0001cdd0       ?allocate@?$Array@EV?$ReflectionAllocator@E@shdfnd@physx@@@shdfnd@physx@@IEAAPEAEI@Z 000000018001ddd0 f i InflationConvexHullLib.obj
 0001:0001ce60       ?allocate@?$Array@HV?$ReflectionAllocator@H@shdfnd@physx@@@shdfnd@physx@@IEAAPEAHI@Z 000000018001de60 f i InflationConvexHullLib.obj
 0001:0001cf00       ?allocate@?$Array@PEAVTri@local@@V?$ReflectionAllocator@PEAVTri@local@@@shdfnd@physx@@@shdfnd@physx@@IEAAPEAPEAVTri@local@@I@Z 000000018001df00 f i InflationConvexHullLib.obj
 0001:0001cfa0       ?b2bfix@HullTriangles@local@@IEAAXPEAVTri@2@0@Z 000000018001dfa0 f i InflationConvexHullLib.obj
 0001:0001d380       ?createEdgeList@InflationConvexHullLib@physx@@UEAA_NIPEBEPEAPEAEPEAPEAG2@Z 000000018001e380 f i InflationConvexHullLib.obj
 0001:0001d390       ?createTri@HullTriangles@local@@QEAAPEAVTri@2@HHH@Z 000000018001e390 f i InflationConvexHullLib.obj
 0001:0001d490       ?findExtrudable@HullTriangles@local@@QEBAPEAVTri@2@M@Z 000000018001e490 f i InflationConvexHullLib.obj
 0001:0001dd90       ?getNormal@Tri@local@@QEBA?AVPxVec3@physx@@PEBV34@@Z 000000018001ed90 f i InflationConvexHullLib.obj
 0001:0001dea0       ?growAndPushBack@?$Array@EV?$ReflectionAllocator@E@shdfnd@physx@@@shdfnd@physx@@IEAAAEAEAEBE@Z 000000018001eea0 f i InflationConvexHullLib.obj
 0001:0001df60       ?growAndPushBack@?$Array@HV?$ReflectionAllocator@H@shdfnd@physx@@@shdfnd@physx@@IEAAAEAHAEBH@Z 000000018001ef60 f i InflationConvexHullLib.obj
 0001:0001e020       ?growAndPushBack@?$Array@PEAVTri@local@@V?$ReflectionAllocator@PEAVTri@local@@@shdfnd@physx@@@shdfnd@physx@@IEAAAEAPEAVTri@local@@AEBQEAV45@@Z 000000018001f020 f i InflationConvexHullLib.obj
 0001:0001e0e0       ?growAndPushBack@?$Array@UExpandPlane@local@@V?$ReflectionAllocator@UExpandPlane@local@@@shdfnd@physx@@@shdfnd@physx@@IEAAAEAUExpandPlane@local@@AEBU45@@Z 000000018001f0e0 f i InflationConvexHullLib.obj
 0001:0001e430       ?neib@Tri@local@@QEAAAEAHHH@Z 000000018001f430 f i InflationConvexHullLib.obj
 0001:0001e4e0       ?recreate@?$Array@EV?$ReflectionAllocator@E@shdfnd@physx@@@shdfnd@physx@@IEAAXI@Z 000000018001f4e0 f i InflationConvexHullLib.obj
 0001:0001e580       ?recreate@?$Array@HV?$ReflectionAllocator@H@shdfnd@physx@@@shdfnd@physx@@IEAAXI@Z 000000018001f580 f i InflationConvexHullLib.obj
 0001:0001e620       ?recreate@?$Array@PEAVTri@local@@V?$ReflectionAllocator@PEAVTri@local@@@shdfnd@physx@@@shdfnd@physx@@IEAAXI@Z 000000018001f620 f i InflationConvexHullLib.obj
 0001:0001e6c0       ?removeb2b@HullTriangles@local@@IEAAXPEAVTri@2@0@Z 000000018001f6c0 f i InflationConvexHullLib.obj
 0001:0001e730       ?resize@?$Array@HV?$ReflectionAllocator@H@shdfnd@physx@@@shdfnd@physx@@QEAAXIAEBH@Z 000000018001f730 f i InflationConvexHullLib.obj
 0001:0001e7f0       ??0QuickHullConvexHullLib@physx@@QEAA@AEBVPxConvexMeshDesc@1@AEBUPxCookingParams@1@@Z 000000018001f7f0 f   QuickHullConvexHullLib.obj
 0001:0001e8f0       ??1QuickHullConvexHullLib@physx@@UEAA@XZ 000000018001f8f0 f   QuickHullConvexHullLib.obj
 0001:0001e9c0       ?createConvexHull@QuickHullConvexHullLib@physx@@UEAA?AW4Enum@PxConvexMeshCookingResult@2@XZ 000000018001f9c0 f   QuickHullConvexHullLib.obj
 0001:0001edd0       ?fillConvexMeshDesc@QuickHullConvexHullLib@physx@@UEAAXAEAVPxConvexMeshDesc@2@@Z 000000018001fdd0 f   QuickHullConvexHullLib.obj
 0001:0001ee20       ?createEdgeList@QuickHullConvexHullLib@physx@@UEAA_NIPEBEPEAPEAEPEAPEAG2@Z 000000018001fe20 f   QuickHullConvexHullLib.obj
 0001:0001f060       ?expandHullOBB@QuickHullConvexHullLib@physx@@IEAA?AW4Enum@PxConvexMeshCookingResult@2@XZ 0000000180020060 f   QuickHullConvexHullLib.obj
 0001:0001f4a0       ?expandHull@QuickHullConvexHullLib@physx@@IEAA?AW4Enum@PxConvexMeshCookingResult@2@XZ 00000001800204a0 f   QuickHullConvexHullLib.obj
 0001:00020190       ?cleanupForSimplex@QuickHullConvexHullLib@physx@@IEAA_NPEAVPxVec3@2@IPEAUQuickHullVertex@local@@1AEAM2@Z 0000000180021190 f   QuickHullConvexHullLib.obj
 0001:00020dc0       ?fillConvexMeshDescFromQuickHull@QuickHullConvexHullLib@physx@@IEAAXAEAVPxConvexMeshDesc@2@@Z 0000000180021dc0 f   QuickHullConvexHullLib.obj
 0001:00021150       ?fillConvexMeshDescFromCroppedHull@QuickHullConvexHullLib@physx@@IEAAXAEAVPxConvexMeshDesc@2@@Z 0000000180022150 f   QuickHullConvexHullLib.obj
 0001:00021350       ?getOppositeFaceDistance@QuickHullHalfEdge@local@@QEBAMXZ 0000000180022350 f   QuickHullConvexHullLib.obj
 0001:00021390       ?mergeAdjacentFace@QuickHullFace@local@@QEAA_NPEAUQuickHullHalfEdge@2@AEAV?$Array@PEAUQuickHullFace@local@@V?$ReflectionAllocator@PEAUQuickHullFace@local@@@shdfnd@physx@@@shdfnd@physx@@@Z 0000000180022390 f   QuickHullConvexHullLib.obj
 0001:000217e0       ?checkFaceConsistency@QuickHullFace@local@@QEAA_NXZ 00000001800227e0 f   QuickHullConvexHullLib.obj
 0001:000217f0       ?connectHalfEdges@QuickHullFace@local@@AEAAPEAU12@PEAUQuickHullHalfEdge@2@0@Z 00000001800227f0 f   QuickHullConvexHullLib.obj
 0001:00021b60       ??0QuickHull@local@@QEAA@AEBUPxCookingParams@physx@@AEBVPxConvexMeshDesc@3@@Z 0000000180022b60 f   QuickHullConvexHullLib.obj
 0001:00021c10       ??1QuickHull@local@@QEAA@XZ 0000000180022c10 f   QuickHullConvexHullLib.obj
 0001:00021d60       ?preallocate@QuickHull@local@@QEAAXI@Z 0000000180022d60 f   QuickHullConvexHullLib.obj
 0001:00021eb0       ?parseInputVertices@QuickHull@local@@QEAAXPEBVPxVec3@physx@@I@Z 0000000180022eb0 f   QuickHullConvexHullLib.obj
 0001:00022040       ?releaseHull@QuickHull@local@@QEAAXXZ 0000000180023040 f   QuickHullConvexHullLib.obj
 0001:000220a0       ?setPrecomputedMinMax@QuickHull@local@@QEAAXPEBUQuickHullVertex@2@0MM@Z 00000001800230a0 f   QuickHullConvexHullLib.obj
 0001:00022230       ?buildHull@QuickHull@local@@QEAA?AW4Enum@QuickHullResult@2@XZ 0000000180023230 f   QuickHullConvexHullLib.obj
 0001:00022450       ?maxNumVertsPerFace@QuickHull@local@@QEBAIXZ 0000000180023450 f   QuickHullConvexHullLib.obj
 0001:00022490       ?computeMinMaxVerts@QuickHull@local@@IEAAXXZ 0000000180023490 f   QuickHullConvexHullLib.obj
 0001:00022880       ?findSimplex@QuickHull@local@@IEAA_NXZ 0000000180023880 f   QuickHullConvexHullLib.obj
 0001:00023560       ?addSimplex@QuickHull@local@@IEAAXPEAUQuickHullVertex@2@_N@Z 0000000180024560 f   QuickHullConvexHullLib.obj
 0001:00023a30       ?nextPointToAdd@QuickHull@local@@IEAAPEAUQuickHullVertex@2@AEAPEAUQuickHullFace@2@@Z 0000000180024a30 f   QuickHullConvexHullLib.obj
 0001:00023bb0       ?addPointToHull@QuickHull@local@@IEAA_NPEBUQuickHullVertex@2@AEAUQuickHullFace@2@AEA_N@Z 0000000180024bb0 f   QuickHullConvexHullLib.obj
 0001:00023e80       ?createTriangle@QuickHull@local@@IEAAPEAUQuickHullFace@2@AEBUQuickHullVertex@2@00@Z 0000000180024e80 f   QuickHullConvexHullLib.obj
 0001:00024220       ?addPointToFace@QuickHull@local@@IEAAXAEAUQuickHullFace@2@PEAUQuickHullVertex@2@M@Z 0000000180025220 f   QuickHullConvexHullLib.obj
 0001:00024270       ?removeEyePointFromFace@QuickHull@local@@IEAAXAEAUQuickHullFace@2@PEBUQuickHullVertex@2@@Z 0000000180025270 f   QuickHullConvexHullLib.obj
 0001:00024290       ?calculateHorizon@QuickHull@local@@IEAAXAEBVPxVec3@physx@@PEAUQuickHullHalfEdge@2@AEAUQuickHullFace@2@AEAV?$Array@PEAUQuickHullHalfEdge@local@@V?$ReflectionAllocator@PEAUQuickHullHalfEdge@local@@@shdfnd@physx@@@shdfnd@4@AEAV?$Array@PEAUQuickHullFace@local@@V?$ReflectionAllocator@PEAUQuickHullFace@local@@@shdfnd@physx@@@84@@Z 0000000180025290 f   QuickHullConvexHullLib.obj
 0001:00024440       ?addNewFacesFromHorizon@QuickHull@local@@IEAAXPEBUQuickHullVertex@2@AEBV?$Array@PEAUQuickHullHalfEdge@local@@V?$ReflectionAllocator@PEAUQuickHullHalfEdge@local@@@shdfnd@physx@@@shdfnd@physx@@AEAV?$Array@PEAUQuickHullFace@local@@V?$ReflectionAllocator@PEAUQuickHullFace@local@@@shdfnd@physx@@@56@@Z 0000000180025440 f   QuickHullConvexHullLib.obj
 0001:00024590       ?doAdjacentMerge@QuickHull@local@@IEAA_NAEAUQuickHullFace@2@_NAEA_N@Z 0000000180025590 f   QuickHullConvexHullLib.obj
 0001:000248e0       ?doPostAdjacentMerge@QuickHull@local@@IEAA_NAEAUQuickHullFace@2@M@Z 00000001800258e0 f   QuickHullConvexHullLib.obj
 0001:00024b00       ?deleteFacePoints@QuickHull@local@@IEAAXAEAUQuickHullFace@2@PEAU32@@Z 0000000180025b00 f   QuickHullConvexHullLib.obj
 0001:00024c10       ?resolveUnclaimedPoints@QuickHull@local@@IEAAXAEBV?$Array@PEAUQuickHullFace@local@@V?$ReflectionAllocator@PEAUQuickHullFace@local@@@shdfnd@physx@@@shdfnd@physx@@@Z 0000000180025c10 f   QuickHullConvexHullLib.obj
 0001:00024e90       ?postMergeHull@QuickHull@local@@IEAAXXZ 0000000180025e90 f   QuickHullConvexHullLib.obj
 0001:000250f0       ?canMergeFaces@QuickHull@local@@IEAA_NAEBUQuickHullHalfEdge@2@@Z 00000001800260f0 f   QuickHullConvexHullLib.obj
 0001:00025920       ?getExpandPoint@local@@YAXAEBUQuickHullHalfEdge@1@AEAUExpandPoint@1@PEBV?$Array@IV?$ReflectionAllocator@I@shdfnd@physx@@@shdfnd@physx@@@Z 0000000180026920 f   QuickHullConvexHullLib.obj
 0001:000259d0       ?addExpandPoint@local@@YAXAEBUExpandPoint@1@AEAV?$Array@UExpandPoint@local@@V?$ReflectionAllocator@UExpandPoint@local@@@shdfnd@physx@@@shdfnd@physx@@@Z 00000001800269d0 f   QuickHullConvexHullLib.obj
 0001:00025ab0       ??0PxPlane@physx@@QEAA@AEBV01@@Z 0000000180026ab0 f i QuickHullConvexHullLib.obj
 0001:00025ad0       ??0QuickHullVertex@local@@QEAA@XZ 0000000180026ad0 f i QuickHullConvexHullLib.obj
 0001:00025ae0       ??1?$MemBlock@UQuickHullFace@local@@$00@local@@QEAA@XZ 0000000180026ae0 f i QuickHullConvexHullLib.obj
 0001:00025b70       ??1?$MemBlock@UQuickHullHalfEdge@local@@$0A@@local@@QEAA@XZ 0000000180026b70 f i QuickHullConvexHullLib.obj
 0001:00025c00       ??_EQuickHullConvexHullLib@physx@@UEAAPEAXI@Z 0000000180026c00 f i QuickHullConvexHullLib.obj
 0001:00025c00       ??_GQuickHullConvexHullLib@physx@@UEAAPEAXI@Z 0000000180026c00 f i QuickHullConvexHullLib.obj
 0001:00025d00       ??__G@YAXPEAX0_K1P6APEAX00@Z@Z 0000000180026d00 f i QuickHullConvexHullLib.obj
 0001:00025d60       ?allocate@?$Array@PEAUQuickHullFace@local@@V?$ReflectionAllocator@PEAUQuickHullFace@local@@@shdfnd@physx@@@shdfnd@physx@@IEAAPEAPEAUQuickHullFace@local@@I@Z 0000000180026d60 f i QuickHullConvexHullLib.obj
 0001:00025e00       ?allocate@?$Array@PEAUQuickHullHalfEdge@local@@V?$ReflectionAllocator@PEAUQuickHullHalfEdge@local@@@shdfnd@physx@@@shdfnd@physx@@IEAAPEAPEAUQuickHullHalfEdge@local@@I@Z 0000000180026e00 f i QuickHullConvexHullLib.obj
 0001:00025ea0       ?allocate@?$Array@PEAUQuickHullVertex@local@@V?$ReflectionAllocator@PEAUQuickHullVertex@local@@@shdfnd@physx@@@shdfnd@physx@@IEAAPEAPEAUQuickHullVertex@local@@I@Z 0000000180026ea0 f i QuickHullConvexHullLib.obj
 0001:00025f40       ?allocate@?$Array@UExpandPoint@local@@V?$ReflectionAllocator@UExpandPoint@local@@@shdfnd@physx@@@shdfnd@physx@@IEAAPEAUExpandPoint@local@@I@Z 0000000180026f40 f i QuickHullConvexHullLib.obj
 0001:00025fe0       ?copy@?$Array@UExpandPoint@local@@V?$ReflectionAllocator@UExpandPoint@local@@@shdfnd@physx@@@shdfnd@physx@@KAXPEAUExpandPoint@local@@0PEBU45@@Z 0000000180026fe0 f i QuickHullConvexHullLib.obj
 0001:00026090       ?getFreeItem@?$MemBlock@UQuickHullFace@local@@$00@local@@QEAAPEAUQuickHullFace@2@XZ 0000000180027090 f i QuickHullConvexHullLib.obj
 0001:000261c0       ?getFreeItem@?$MemBlock@UQuickHullHalfEdge@local@@$0A@@local@@QEAAPEAUQuickHullHalfEdge@2@XZ 00000001800271c0 f i QuickHullConvexHullLib.obj
 0001:00026290       ?growAndPushBack@?$Array@PEAUQuickHullFace@local@@V?$ReflectionAllocator@PEAUQuickHullFace@local@@@shdfnd@physx@@@shdfnd@physx@@IEAAAEAPEAUQuickHullFace@local@@AEBQEAU45@@Z 0000000180027290 f i QuickHullConvexHullLib.obj
 0001:00026350       ?growAndPushBack@?$Array@PEAUQuickHullHalfEdge@local@@V?$ReflectionAllocator@PEAUQuickHullHalfEdge@local@@@shdfnd@physx@@@shdfnd@physx@@IEAAAEAPEAUQuickHullHalfEdge@local@@AEBQEAU45@@Z 0000000180027350 f i QuickHullConvexHullLib.obj
 0001:00026410       ?growAndPushBack@?$Array@PEAUQuickHullVertex@local@@V?$ReflectionAllocator@PEAUQuickHullVertex@local@@@shdfnd@physx@@@shdfnd@physx@@IEAAAEAPEAUQuickHullVertex@local@@AEBQEAU45@@Z 0000000180027410 f i QuickHullConvexHullLib.obj
 0001:000264d0       ?growAndPushBack@?$Array@UExpandPoint@local@@V?$ReflectionAllocator@UExpandPoint@local@@@shdfnd@physx@@@shdfnd@physx@@IEAAAEAUExpandPoint@local@@AEBU45@@Z 00000001800274d0 f i QuickHullConvexHullLib.obj
 0001:000265d0       ?init@?$MemBlock@UQuickHullFace@local@@$00@local@@QEAAXI@Z 00000001800275d0 f i QuickHullConvexHullLib.obj
 0001:000266d0       ?init@?$MemBlock@UQuickHullHalfEdge@local@@$0A@@local@@QEAAXI@Z 00000001800276d0 f i QuickHullConvexHullLib.obj
 0001:00026770       ?recreate@?$Array@PEAUQuickHullFace@local@@V?$ReflectionAllocator@PEAUQuickHullFace@local@@@shdfnd@physx@@@shdfnd@physx@@IEAAXI@Z 0000000180027770 f i QuickHullConvexHullLib.obj
 0001:00026810       ?recreate@?$Array@PEAUQuickHullHalfEdge@local@@V?$ReflectionAllocator@PEAUQuickHullHalfEdge@local@@@shdfnd@physx@@@shdfnd@physx@@IEAAXI@Z 0000000180027810 f i QuickHullConvexHullLib.obj
 0001:000268b0       ?recreate@?$Array@PEAUQuickHullVertex@local@@V?$ReflectionAllocator@PEAUQuickHullVertex@local@@@shdfnd@physx@@@shdfnd@physx@@IEAAXI@Z 00000001800278b0 f i QuickHullConvexHullLib.obj
 0001:00026950       ?recreate@?$Array@UExpandPoint@local@@V?$ReflectionAllocator@UExpandPoint@local@@@shdfnd@physx@@@shdfnd@physx@@IEAAXI@Z 0000000180027950 f i QuickHullConvexHullLib.obj
 0001:000269e0       ?computeVolumeIntegrals@physx@@YA_NAEBVPxSimpleTriangleMesh@1@MAEAUPxIntegrals@1@@Z 00000001800279e0 f   VolumeIntegration.obj
 0001:00026a50       ?computeVolumeIntegralsEberly@physx@@YA_NAEBVPxConvexMeshDesc@1@MAEAUPxIntegrals@1@AEBVPxVec3@1@@Z 0000000180027a50 f   VolumeIntegration.obj
 0001:00026aa0       ?computeVolumeIntegralsEberlySIMD@physx@@YA_NAEBVPxConvexMeshDesc@1@MAEAUPxIntegrals@1@AEBVPxVec3@1@@Z 0000000180027aa0 f   VolumeIntegration.obj
 0001:00028da0       ?ComputeNbBoundaryEdges@AdjTriangle@physx@@QEBAIXZ 0000000180029da0 f   Adjacencies.obj
 0001:00028df0       ?ComputeNbNeighbors@AdjTriangle@physx@@QEBAIXZ 0000000180029df0 f   Adjacencies.obj
 0001:00028e40       ?HasNeighbor@AdjTriangle@physx@@QEBA_NIPEAI@Z 0000000180029e40 f   Adjacencies.obj
 0001:00028eb0       ?Flip@AdjTriangle@physx@@QEAAXXZ 0000000180029eb0 f   Adjacencies.obj
 0001:00028ed0       ??0Adjacencies@physx@@QEAA@XZ 0000000180029ed0 f   Adjacencies.obj
 0001:00028ef0       ??1Adjacencies@physx@@QEAA@XZ 0000000180029ef0 f   Adjacencies.obj
 0001:00028f60       ?Load@Adjacencies@physx@@QEAA_NAEAVPxInputStream@2@@Z 0000000180029f60 f   Adjacencies.obj
 0001:00029040       ?ComputeNbBoundaryEdges@Adjacencies@physx@@QEBAIXZ 000000018002a040 f   Adjacencies.obj
 0001:000290c0       ?GetBoundaryVertices@Adjacencies@physx@@QEBA_NIPEA_NPEBU?$TriangleT@I@Gu@2@@Z 000000018002a0c0 f   Adjacencies.obj
 0001:00029230       ?MakeLastRef@Adjacencies@physx@@QEAA_NAEAVAdjTriangle@2@IPEAU?$TriangleT@I@Gu@2@@Z 000000018002a230 f   Adjacencies.obj
 0001:00029480       ?AssignNewEdgeCode@Adjacencies@physx@@AEAAXIE@Z 000000018002a480 f   Adjacencies.obj
 0001:000294d0       ??0AdjacenciesBuilder@physx@@QEAA@XZ 000000018002a4d0 f   Adjacencies.obj
 0001:000294f0       ??1AdjacenciesBuilder@physx@@QEAA@XZ 000000018002a4f0 f   Adjacencies.obj
 0001:00029500       ?Init@AdjacenciesBuilder@physx@@QEAA_NAEBUADJACENCIESCREATE@2@@Z 000000018002a500 f   Adjacencies.obj
 0001:00029870       ??$?_UV?$ReflectionAllocator@VAdjTriangle@physx@@@shdfnd@physx@@@UserAllocated@shdfnd@physx@@SAPEAX_KV?$ReflectionAllocator@VAdjTriangle@physx@@@12@PEBDH@Z 000000018002a870 f i Adjacencies.obj
 0001:00029910       ??0AdjEdge@@QEAA@XZ        000000018002a910 f i Adjacencies.obj
 0001:00029920       ??0AdjTriangle@physx@@QEAA@XZ 000000018002a920 f i Adjacencies.obj
 0001:00029930       ??1AdjEdge@@QEAA@XZ        000000018002a930 f i Adjacencies.obj
 0001:00029940       ??1AdjTriangle@physx@@QEAA@XZ 000000018002a940 f i Adjacencies.obj
 0001:00029950       ??_EAdjEdge@@QEAAPEAXI@Z   000000018002a950 f i Adjacencies.obj
 0001:000299d0       ??_EAdjTriangle@physx@@QEAAPEAXI@Z 000000018002a9d0 f i Adjacencies.obj
 0001:00029a50       ??_I@YAXPEAX_K1P6AX0@Z@Z   000000018002aa50 f i Adjacencies.obj
 0001:00029f60       PxCreateCooking            000000018002af60 f   Cooking.obj
 0001:0002a080       ?release@Cooking@physx@@UEAAXXZ 000000018002b080 f   Cooking.obj
 0001:0002a0b0       ?setParams@Cooking@physx@@UEAAXAEBUPxCookingParams@2@@Z 000000018002b0b0 f   Cooking.obj
 0001:0002a130       ?getParams@Cooking@physx@@UEBAAEBUPxCookingParams@2@XZ 000000018002b130 f   Cooking.obj
 0001:0002a140       ?platformMismatch@Cooking@physx@@UEBA_NXZ 000000018002b140 f   Cooking.obj
 0001:0002a160       ?cookTriangleMesh@Cooking@physx@@UEBA_NAEBVPxTriangleMeshDesc@2@AEAVPxOutputStream@2@PEAW4Enum@PxTriangleMeshCookingResult@2@@Z 000000018002b160 f   Cooking.obj
 0001:0002a2d0       ?createTriangleMesh@Cooking@physx@@UEBAPEAVPxTriangleMesh@2@AEBVPxTriangleMeshDesc@2@AEAVPxPhysicsInsertionCallback@2@PEAW4Enum@PxTriangleMeshCookingResult@2@@Z 000000018002b2d0 f   Cooking.obj
 0001:0002a440       ?validateTriangleMesh@Cooking@physx@@UEBA_NAEBVPxTriangleMeshDesc@2@@Z 000000018002b440 f   Cooking.obj
 0001:0002a550       ?cookConvexMesh@Cooking@physx@@UEBA_NAEBVPxConvexMeshDesc@2@AEAVPxOutputStream@2@PEAW4Enum@PxConvexMeshCookingResult@2@@Z 000000018002b550 f   Cooking.obj
 0001:0002a7c0       ?createConvexMesh@Cooking@physx@@UEBAPEAVPxConvexMesh@2@AEBVPxConvexMeshDesc@2@AEAVPxPhysicsInsertionCallback@2@PEAW4Enum@PxConvexMeshCookingResult@2@@Z 000000018002b7c0 f   Cooking.obj
 0001:0002aad0       ?validateConvexMesh@Cooking@physx@@UEBA_NAEBVPxConvexMeshDesc@2@@Z 000000018002bad0 f   Cooking.obj
 0001:0002ab40       ?computeHullPolygons@Cooking@physx@@UEBA_NAEBVPxSimpleTriangleMesh@2@AEAVPxAllocatorCallback@2@AEAIAEAPEAVPxVec3@2@2AEAPEAI2AEAPEAUPxHullPolygon@2@@Z 000000018002bb40 f   Cooking.obj
 0001:0002ad20       ?cookHeightField@Cooking@physx@@UEBA_NAEBVPxHeightFieldDesc@2@AEAVPxOutputStream@2@@Z 000000018002bd20 f   Cooking.obj
 0001:0002ae40       ?createHeightField@Cooking@physx@@UEBAPEAVPxHeightField@2@AEBVPxHeightFieldDesc@2@AEAVPxPhysicsInsertionCallback@2@@Z 000000018002be40 f   Cooking.obj
 0001:0002afd0       ?cookConvexMeshInternal@Cooking@physx@@AEBA_NAEBVPxConvexMeshDesc@2@AEAVConvexMeshBuilder@2@PEAVConvexHullLib@2@PEAW4Enum@PxConvexMeshCookingResult@2@@Z 000000018002bfd0 f   Cooking.obj
 0001:0002b280       ?cookTriangleMesh@Cooking@physx@@AEBA_NAEAVTriangleMeshBuilder@2@AEBVPxTriangleMeshDesc@2@AEAVPxOutputStream@2@PEAW4Enum@PxTriangleMeshCookingResult@2@@Z 000000018002c280 f   Cooking.obj
 0001:0002b320       ?createTriangleMesh@Cooking@physx@@AEBAPEAVPxTriangleMesh@2@AEAVTriangleMeshBuilder@2@AEBVPxTriangleMeshDesc@2@AEAVPxPhysicsInsertionCallback@2@PEAW4Enum@PxTriangleMeshCookingResult@2@@Z 000000018002c320 f   Cooking.obj
 0001:0002b3d0       ??1PxCooking@physx@@MEAA@XZ 000000018002c3d0 f i Cooking.obj
 0001:0002b3e0       ??_ECooking@physx@@UEAAPEAXI@Z 000000018002c3e0 f i Cooking.obj
 0001:0002b3e0       ??_GCooking@physx@@UEAAPEAXI@Z 000000018002c3e0 f i Cooking.obj
 0001:0002b430       ??_GPxCooking@physx@@MEAAPEAXI@Z 000000018002c430 f i Cooking.obj
 0001:0002b430       ??_EPxCooking@physx@@MEAAPEAXI@Z 000000018002c430 f i Cooking.obj
 0001:0002b460       ??0ReducedVertexCloud@physx@@QEAA@PEBVPxVec3@1@I@Z 000000018002c460 f   CookingUtils.obj
 0001:0002b480       ??1ReducedVertexCloud@physx@@QEAA@XZ 000000018002c480 f   CookingUtils.obj
 0001:0002b490       ?Clean@ReducedVertexCloud@physx@@QEAAAEAV12@XZ 000000018002c490 f   CookingUtils.obj
 0001:0002b500       ?Reduce@ReducedVertexCloud@physx@@QEAA_NPEAUREDUCEDCLOUD@2@@Z 000000018002c500 f   CookingUtils.obj
 0001:0002b830       ??0EdgeList@Gu@physx@@QEAA@XZ 000000018002c830 f   EdgeList.obj
 0001:0002b850       ??1EdgeList@Gu@physx@@QEAA@XZ 000000018002c850 f   EdgeList.obj
 0001:0002b900       ?load@EdgeList@Gu@physx@@QEAA_NAEAVPxInputStream@3@@Z 000000018002c900 f   EdgeList.obj
 0001:0002bb00       ??0EdgeListBuilder@Gu@physx@@QEAA@XZ 000000018002cb00 f   EdgeList.obj
 0001:0002bb20       ??1EdgeListBuilder@Gu@physx@@QEAA@XZ 000000018002cb20 f   EdgeList.obj
 0001:0002bb30       ?init@EdgeListBuilder@Gu@physx@@QEAA_NAEBUEDGELISTCREATE@23@@Z 000000018002cb30 f   EdgeList.obj
 0001:0002bc70       ?createFacesToEdges@EdgeListBuilder@Gu@physx@@AEAA_NIPEBIPEBG@Z 000000018002cc70 f   EdgeList.obj
 0001:0002c100       ?createEdgesToFaces@EdgeListBuilder@Gu@physx@@AEAA_NIPEBIPEBG@Z 000000018002d100 f   EdgeList.obj
 0001:0002c360       ?computeActiveEdges@EdgeListBuilder@Gu@physx@@AEAA_NIPEBIPEBGPEBVPxVec3@3@M@Z 000000018002d360 f   EdgeList.obj
 0001:0002da10       ??$?_UI@@YAPEAX_KV?$ReflectionAllocator@I@shdfnd@physx@@PEBDH@Z 000000018002ea10 f i EdgeList.obj
 0001:0002dab0       ??0MeshCleaner@physx@@QEAA@IPEBVPxVec3@1@IPEBIM@Z 000000018002eab0 f   MeshCleaner.obj
 0001:0002e460       ??1MeshCleaner@physx@@QEAA@XZ 000000018002f460 f   MeshCleaner.obj
 0001:0002e4f0       ?createQuantizer@physx@@YAPEAVQuantizer@1@XZ 000000018002f4f0 f   Quantizer.obj
 0001:0002e5a0       ?kmeans_cluster3d@@YAIPEBVPxVec3@physx@@IIPEAV12@PEAIMM@Z 000000018002f5a0 f   Quantizer.obj
 0001:0002e5b0       ??$kmeans_cluster@VPxVec3@physx@@M@@YAIPEBVPxVec3@physx@@IIPEAV01@PEAIMM@Z 000000018002f5b0 f i Quantizer.obj
 0001:0002eed0       ??1Quantizer@physx@@MEAA@XZ 000000018002fed0 f i Quantizer.obj
 0001:0002eee0       ??1QuantizerImpl@@EEAA@XZ  000000018002fee0 f i Quantizer.obj
 0001:0002ef60       ??_GQuantizer@physx@@MEAAPEAXI@Z 000000018002ff60 f i Quantizer.obj
 0001:0002ef60       ??_EQuantizer@physx@@MEAAPEAXI@Z 000000018002ff60 f i Quantizer.obj
 0001:0002ef90       ??_GQuantizerImpl@@EEAAPEAXI@Z 000000018002ff90 f i Quantizer.obj
 0001:0002ef90       ??_EQuantizerImpl@@EEAAPEAXI@Z 000000018002ff90 f i Quantizer.obj
 0001:0002f060       ?getDenormalizeCenter@QuantizerImpl@@UEBAAEBVPxVec3@physx@@XZ 0000000180030060 f i Quantizer.obj
 0001:0002f070       ?getDenormalizeScale@QuantizerImpl@@UEBAAEBVPxVec3@physx@@XZ 0000000180030070 f i Quantizer.obj
 0001:0002f080       ?kmeansQuantize3D@QuantizerImpl@@UEAAPEBVPxVec3@physx@@IPEBV23@I_NIAEAI@Z 0000000180030080 f i Quantizer.obj
 0001:0002f2e0       ?normalizeInput@QuantizerImpl@@AEAAXIPEBVPxVec3@physx@@I@Z 00000001800302e0 f i Quantizer.obj
 0001:0002f710       ?release@QuantizerImpl@@UEAAXXZ 0000000180030710 f i Quantizer.obj
 0001:0002f722       LoadLibraryA               0000000180030722 f   kernel32:KERNEL32.dll
 0001:0002f728       __imp_load_PxGetFoundation 0000000180030728 f   PxFoundation_x64:PxFoundation_x64.dll
 0001:0002f734       PxGetFoundation            0000000180030734 f   PxFoundation_x64:PxFoundation_x64.dll
 0001:0002f73a       __tailMerge_pxfoundation_x64_dll 000000018003073a     PxFoundation_x64:PxFoundation_x64.dll
 0001:0002f7b3       __imp_load_?getAllocator@shdfnd@physx@@YAAEAVPxAllocatorCallback@2@XZ 00000001800307b3 f   PxFoundation_x64:PxFoundation_x64.dll
 0001:0002f7bf       ?getAllocator@shdfnd@physx@@YAAEAVPxAllocatorCallback@2@XZ 00000001800307bf f   PxFoundation_x64:PxFoundation_x64.dll
 0001:0002f7c5       __imp_load_?allocate@TempAllocator@shdfnd@physx@@QEAAPEAX_KPEBDH@Z 00000001800307c5 f   PxFoundation_x64:PxFoundation_x64.dll
 0001:0002f7d1       ?allocate@TempAllocator@shdfnd@physx@@QEAAPEAX_KPEBDH@Z 00000001800307d1 f   PxFoundation_x64:PxFoundation_x64.dll
 0001:0002f7d7       __imp_load_?deallocate@TempAllocator@shdfnd@physx@@QEAAXPEAX@Z 00000001800307d7 f   PxFoundation_x64:PxFoundation_x64.dll
 0001:0002f7e3       ?deallocate@TempAllocator@shdfnd@physx@@QEAAXPEAX@Z 00000001800307e3 f   PxFoundation_x64:PxFoundation_x64.dll
 0001:0002f7e9       __imp_load_?getInstance@Foundation@shdfnd@physx@@SAAEAV123@XZ 00000001800307e9 f   PxFoundation_x64:PxFoundation_x64.dll
 0001:0002f7f5       ?getInstance@Foundation@shdfnd@physx@@SAAEAV123@XZ 00000001800307f5 f   PxFoundation_x64:PxFoundation_x64.dll
 0001:0002f7fb       __imp_load_?error@Foundation@shdfnd@physx@@QEAAXW4Enum@PxErrorCode@3@PEBDH1ZZ 00000001800307fb f   PxFoundation_x64:PxFoundation_x64.dll
 0001:0002f807       ?error@Foundation@shdfnd@physx@@QEAAXW4Enum@PxErrorCode@3@PEBDH1ZZ 0000000180030807 f   PxFoundation_x64:PxFoundation_x64.dll
 0001:0002f80d       __imp_load_?PxDiagonalize@physx@@YA?AVPxVec3@1@AEBVPxMat33@1@AEAVPxQuat@1@@Z 000000018003080d f   PxFoundation_x64:PxFoundation_x64.dll
 0001:0002f819       ?PxDiagonalize@physx@@YA?AVPxVec3@1@AEBVPxMat33@1@AEAVPxQuat@1@@Z 0000000180030819 f   PxFoundation_x64:PxFoundation_x64.dll
 0001:0002f81f       __imp_load_?incRefCount@Foundation@shdfnd@physx@@SAXXZ 000000018003081f f   PxFoundation_x64:PxFoundation_x64.dll
 0001:0002f82b       ?incRefCount@Foundation@shdfnd@physx@@SAXXZ 000000018003082b f   PxFoundation_x64:PxFoundation_x64.dll
 0001:0002f831       __imp_load_?decRefCount@Foundation@shdfnd@physx@@SAXXZ 0000000180030831 f   PxFoundation_x64:PxFoundation_x64.dll
 0001:0002f83d       ?decRefCount@Foundation@shdfnd@physx@@SAXXZ 000000018003083d f   PxFoundation_x64:PxFoundation_x64.dll
 0001:0002f843       __imp_load_??0FPUGuard@shdfnd@physx@@QEAA@XZ 0000000180030843 f   PxFoundation_x64:PxFoundation_x64.dll
 0001:0002f84f       ??0FPUGuard@shdfnd@physx@@QEAA@XZ 000000018003084f f   PxFoundation_x64:PxFoundation_x64.dll
 0001:0002f855       __imp_load_??1FPUGuard@shdfnd@physx@@QEAA@XZ 0000000180030855 f   PxFoundation_x64:PxFoundation_x64.dll
 0001:0002f861       ??1FPUGuard@shdfnd@physx@@QEAA@XZ 0000000180030861 f   PxFoundation_x64:PxFoundation_x64.dll
 0001:0002f867       __imp_load_?writeWord@physx@@YAXG_NAEAVPxOutputStream@1@@Z 0000000180030867 f   PhysX3Common_x64:PhysX3Common_x64.dll
 0001:0002f873       ?writeWord@physx@@YAXG_NAEAVPxOutputStream@1@@Z 0000000180030873 f   PhysX3Common_x64:PhysX3Common_x64.dll
 0001:0002f879       __tailMerge_physx3common_x64_dll 0000000180030879     PhysX3Common_x64:PhysX3Common_x64.dll
 0001:0002f8f2       __imp_load_?writeDword@physx@@YAXI_NAEAVPxOutputStream@1@@Z 00000001800308f2 f   PhysX3Common_x64:PhysX3Common_x64.dll
 0001:0002f8fe       ?writeDword@physx@@YAXI_NAEAVPxOutputStream@1@@Z 00000001800308fe f   PhysX3Common_x64:PhysX3Common_x64.dll
 0001:0002f904       __imp_load_?writeFloat@physx@@YAXM_NAEAVPxOutputStream@1@@Z 0000000180030904 f   PhysX3Common_x64:PhysX3Common_x64.dll
 0001:0002f910       ?writeFloat@physx@@YAXM_NAEAVPxOutputStream@1@@Z 0000000180030910 f   PhysX3Common_x64:PhysX3Common_x64.dll
 0001:0002f916       __imp_load_?writeHeader@physx@@YA_NCCCCI_NAEAVPxOutputStream@1@@Z 0000000180030916 f   PhysX3Common_x64:PhysX3Common_x64.dll
 0001:0002f922       ?writeHeader@physx@@YA_NCCCCI_NAEAVPxOutputStream@1@@Z 0000000180030922 f   PhysX3Common_x64:PhysX3Common_x64.dll
 0001:0002f928       __imp_load_??0SourceMesh@Gu@physx@@QEAA@XZ 0000000180030928 f   PhysX3Common_x64:PhysX3Common_x64.dll
 0001:0002f934       ??0SourceMesh@Gu@physx@@QEAA@XZ 0000000180030934 f   PhysX3Common_x64:PhysX3Common_x64.dll
 0001:0002f93a       __imp_load_??1SourceMesh@Gu@physx@@QEAA@XZ 000000018003093a f   PhysX3Common_x64:PhysX3Common_x64.dll
 0001:0002f946       ??1SourceMesh@Gu@physx@@QEAA@XZ 0000000180030946 f   PhysX3Common_x64:PhysX3Common_x64.dll
 0001:0002f94c       __imp_load_??0BV4Tree@Gu@physx@@QEAA@XZ 000000018003094c f   PhysX3Common_x64:PhysX3Common_x64.dll
 0001:0002f958       ??0BV4Tree@Gu@physx@@QEAA@XZ 0000000180030958 f   PhysX3Common_x64:PhysX3Common_x64.dll
 0001:0002f95e       __imp_load_??1BV4Tree@Gu@physx@@QEAA@XZ 000000018003095e f   PhysX3Common_x64:PhysX3Common_x64.dll
 0001:0002f96a       ??1BV4Tree@Gu@physx@@QEAA@XZ 000000018003096a f   PhysX3Common_x64:PhysX3Common_x64.dll
 0001:0002f970       __imp_load_??0BV32Tree@Gu@physx@@QEAA@XZ 0000000180030970 f   PhysX3Common_x64:PhysX3Common_x64.dll
 0001:0002f97c       ??0BV32Tree@Gu@physx@@QEAA@XZ 000000018003097c f   PhysX3Common_x64:PhysX3Common_x64.dll
 0001:0002f982       __imp_load_??1BV32Tree@Gu@physx@@QEAA@XZ 0000000180030982 f   PhysX3Common_x64:PhysX3Common_x64.dll
 0001:0002f98e       ??1BV32Tree@Gu@physx@@QEAA@XZ 000000018003098e f   PhysX3Common_x64:PhysX3Common_x64.dll
 0001:0002f994       __imp_load_?writeFloatBuffer@physx@@YAXPEBMI_NAEAVPxOutputStream@1@@Z 0000000180030994 f   PhysX3Common_x64:PhysX3Common_x64.dll
 0001:0002f9a0       ?writeFloatBuffer@physx@@YAXPEBMI_NAEAVPxOutputStream@1@@Z 00000001800309a0 f   PhysX3Common_x64:PhysX3Common_x64.dll
 0001:0002f9a6       __imp_load_?writeWordBuffer@physx@@YAXPEBGI_NAEAVPxOutputStream@1@@Z 00000001800309a6 f   PhysX3Common_x64:PhysX3Common_x64.dll
 0001:0002f9b2       ?writeWordBuffer@physx@@YAXPEBGI_NAEAVPxOutputStream@1@@Z 00000001800309b2 f   PhysX3Common_x64:PhysX3Common_x64.dll
 0001:0002f9b8       __imp_load_?computeMaxIndex@physx@@YAIPEBII@Z 00000001800309b8 f   PhysX3Common_x64:PhysX3Common_x64.dll
 0001:0002f9c4       ?computeMaxIndex@physx@@YAIPEBII@Z 00000001800309c4 f   PhysX3Common_x64:PhysX3Common_x64.dll
 0001:0002f9ca       __imp_load_?storeIndices@physx@@YAXIIPEBIAEAVPxOutputStream@1@_N@Z 00000001800309ca f   PhysX3Common_x64:PhysX3Common_x64.dll
 0001:0002f9d6       ?storeIndices@physx@@YAXIIPEBIAEAVPxOutputStream@1@_N@Z 00000001800309d6 f   PhysX3Common_x64:PhysX3Common_x64.dll
 0001:0002f9dc       __imp_load_?computeBoundsAroundVertices@Gu@physx@@YAXAEAVPxBounds3@2@IPEIBVPxVec3@2@@Z 00000001800309dc f   PhysX3Common_x64:PhysX3Common_x64.dll
 0001:0002f9e8       ?computeBoundsAroundVertices@Gu@physx@@YAXAEAVPxBounds3@2@IPEIBVPxVec3@2@@Z 00000001800309e8 f   PhysX3Common_x64:PhysX3Common_x64.dll
 0001:0002f9ee       __imp_load_?BuildBV4Ex@Gu@physx@@YA_NAEAVBV4Tree@12@AEAVSourceMesh@12@MI@Z 00000001800309ee f   PhysX3Common_x64:PhysX3Common_x64.dll
 0001:0002f9fa       ?BuildBV4Ex@Gu@physx@@YA_NAEAVBV4Tree@12@AEAVSourceMesh@12@MI@Z 00000001800309fa f   PhysX3Common_x64:PhysX3Common_x64.dll
 0001:0002fa00       __imp_load_?BuildBV32Ex@Gu@physx@@YA_NAEAVBV32Tree@12@AEAVSourceMesh@12@MI@Z 0000000180030a00 f   PhysX3Common_x64:PhysX3Common_x64.dll
 0001:0002fa0c       ?BuildBV32Ex@Gu@physx@@YA_NAEAVBV32Tree@12@AEAVSourceMesh@12@MI@Z 0000000180030a0c f   PhysX3Common_x64:PhysX3Common_x64.dll
 0001:0002fa12       __imp_load_?computeMaxIndex@physx@@YAGPEBGI@Z 0000000180030a12 f   PhysX3Common_x64:PhysX3Common_x64.dll
 0001:0002fa1e       ?computeMaxIndex@physx@@YAGPEBGI@Z 0000000180030a1e f   PhysX3Common_x64:PhysX3Common_x64.dll
 0001:0002fa24       __imp_load_?WriteHeader@Gu@physx@@YA_NEEEEI_NAEAVPxOutputStream@2@@Z 0000000180030a24 f   PhysX3Common_x64:PhysX3Common_x64.dll
 0001:0002fa30       ?WriteHeader@Gu@physx@@YA_NEEEEI_NAEAVPxOutputStream@2@@Z 0000000180030a30 f   PhysX3Common_x64:PhysX3Common_x64.dll
 0001:0002fa36       __imp_load_?StoreIndices@Gu@physx@@YAXGIPEBGAEAVPxOutputStream@2@_N@Z 0000000180030a36 f   PhysX3Common_x64:PhysX3Common_x64.dll
 0001:0002fa42       ?StoreIndices@Gu@physx@@YAXGIPEBGAEAVPxOutputStream@2@_N@Z 0000000180030a42 f   PhysX3Common_x64:PhysX3Common_x64.dll
 0001:0002fa48       __imp_load_?CreateOffsets@BigConvexData@physx@@IEAAXXZ 0000000180030a48 f   PhysX3Common_x64:PhysX3Common_x64.dll
 0001:0002fa54       ?CreateOffsets@BigConvexData@physx@@IEAAXXZ 0000000180030a54 f   PhysX3Common_x64:PhysX3Common_x64.dll
 0001:0002fa5a       __imp_load_??0RadixSortBuffered@Cm@physx@@QEAA@XZ 0000000180030a5a f   PhysX3Common_x64:PhysX3Common_x64.dll
 0001:0002fa66       ??0RadixSortBuffered@Cm@physx@@QEAA@XZ 0000000180030a66 f   PhysX3Common_x64:PhysX3Common_x64.dll
 0001:0002fa6c       __imp_load_??1RadixSortBuffered@Cm@physx@@UEAA@XZ 0000000180030a6c f   PhysX3Common_x64:PhysX3Common_x64.dll
 0001:0002fa78       ??1RadixSortBuffered@Cm@physx@@UEAA@XZ 0000000180030a78 f   PhysX3Common_x64:PhysX3Common_x64.dll
 0001:0002fa7e       __imp_load_?Sort@RadixSortBuffered@Cm@physx@@QEAAAEAV123@PEBIIW4RadixHint@23@@Z 0000000180030a7e f   PhysX3Common_x64:PhysX3Common_x64.dll
 0001:0002fa8a       ?Sort@RadixSortBuffered@Cm@physx@@QEAAAEAV123@PEBIIW4RadixHint@23@@Z 0000000180030a8a f   PhysX3Common_x64:PhysX3Common_x64.dll
 0001:0002fa90       __imp_load_?computeOBBPoints@Gu@physx@@YAXPEIAVPxVec3@2@AEBV32@1111@Z 0000000180030a90 f   PhysX3Common_x64:PhysX3Common_x64.dll
 0001:0002fa9c       ?computeOBBPoints@Gu@physx@@YAXPEIAVPxVec3@2@AEBV32@1111@Z 0000000180030a9c f   PhysX3Common_x64:PhysX3Common_x64.dll
 0001:0002faa2       __imp_load_??0BigConvexData@physx@@QEAA@XZ 0000000180030aa2 f   PhysX3Common_x64:PhysX3Common_x64.dll
 0001:0002faae       ??0BigConvexData@physx@@QEAA@XZ 0000000180030aae f   PhysX3Common_x64:PhysX3Common_x64.dll
 0001:0002fab4       __imp_load_??1BigConvexData@physx@@QEAA@XZ 0000000180030ab4 f   PhysX3Common_x64:PhysX3Common_x64.dll
 0001:0002fac0       ??1BigConvexData@physx@@QEAA@XZ 0000000180030ac0 f   PhysX3Common_x64:PhysX3Common_x64.dll
 0001:0002fac6       __imp_load_?readDword@physx@@YAI_NAEAVPxInputStream@1@@Z 0000000180030ac6 f   PhysX3Common_x64:PhysX3Common_x64.dll
 0001:0002fad2       ?readDword@physx@@YAI_NAEAVPxInputStream@1@@Z 0000000180030ad2 f   PhysX3Common_x64:PhysX3Common_x64.dll
 0001:0002fad8       __imp_load_?ReadHeader@Gu@physx@@YA_NEEEEAEAIAEA_NAEAVPxInputStream@2@@Z 0000000180030ad8 f   PhysX3Common_x64:PhysX3Common_x64.dll
 0001:0002fae4       ?ReadHeader@Gu@physx@@YA_NEEEEAEAIAEA_NAEAVPxInputStream@2@@Z 0000000180030ae4 f   PhysX3Common_x64:PhysX3Common_x64.dll
 0001:0002faea       __imp_load_??0HeightField@Gu@physx@@QEAA@PEAVGuMeshFactory@2@@Z 0000000180030aea f   PhysX3Common_x64:PhysX3Common_x64.dll
 0001:0002faf6       ??0HeightField@Gu@physx@@QEAA@PEAVGuMeshFactory@2@@Z 0000000180030af6 f   PhysX3Common_x64:PhysX3Common_x64.dll
 0001:0002fafc       __imp_load_?loadFromDesc@HeightField@Gu@physx@@QEAA_NAEBVPxHeightFieldDesc@3@@Z 0000000180030afc f   PhysX3Common_x64:PhysX3Common_x64.dll
 0001:0002fb08       ?loadFromDesc@HeightField@Gu@physx@@QEAA_NAEBVPxHeightFieldDesc@3@@Z 0000000180030b08 f   PhysX3Common_x64:PhysX3Common_x64.dll
 0001:0002fb0e       __imp_load_?releaseMemory@HeightField@Gu@physx@@QEAAXXZ 0000000180030b0e f   PhysX3Common_x64:PhysX3Common_x64.dll
 0001:0002fb1a       ?releaseMemory@HeightField@Gu@physx@@QEAAXXZ 0000000180030b1a f   PhysX3Common_x64:PhysX3Common_x64.dll
 0001:0002fb20       __imp_load_??1HeightField@Gu@physx@@UEAA@XZ 0000000180030b20 f   PhysX3Common_x64:PhysX3Common_x64.dll
 0001:0002fb2c       ??1HeightField@Gu@physx@@UEAA@XZ 0000000180030b2c f   PhysX3Common_x64:PhysX3Common_x64.dll
 0001:0002fb34       ??$PFromRva@PEAP6A_JXZ@@YAPEAP6A_JXZK@Z 0000000180030b34 f i delayimp:delayhlp.obj
 0001:0002fb44       ??$PFromRva@PEAPEAUHINSTANCE__@@@@YAPEAPEAUHINSTANCE__@@K@Z 0000000180030b44 f i delayimp:delayhlp.obj
 0001:0002fb54       ??$PFromRva@PEAU_IMAGE_IMPORT_BY_NAME@@@@YAPEAU_IMAGE_IMPORT_BY_NAME@@K@Z 0000000180030b54 f i delayimp:delayhlp.obj
 0001:0002fb64       ??$PFromRva@PEAU_IMAGE_THUNK_DATA64@@@@YAPEAU_IMAGE_THUNK_DATA64@@K@Z 0000000180030b64 f i delayimp:delayhlp.obj
 0001:0002fb74       ??$PFromRva@PEBD@@YAPEBDK@Z 0000000180030b74 f i delayimp:delayhlp.obj
 0001:0002fb84       ??$PFromRva@PEBUImgDelayDescr@@@@YAPEBUImgDelayDescr@@K@Z 0000000180030b84 f i delayimp:delayhlp.obj
 0001:0002fb94       ??$PFromRva@PEBU_IMAGE_THUNK_DATA64@@@@YAPEBU_IMAGE_THUNK_DATA64@@K@Z 0000000180030b94 f i delayimp:delayhlp.obj
 0001:0002fba4       ?CountOfImports@@YAIPEBU_IMAGE_THUNK_DATA64@@@Z 0000000180030ba4 f i delayimp:delayhlp.obj
 0001:0002fbb8       ?DloadAcquireSectionWriteAccess@@YAXXZ 0000000180030bb8 f i delayimp:delayhlp.obj
 0001:0002fc64       ?DloadGetSRWLockFunctionPointers@@YAEXZ 0000000180030c64 f i delayimp:delayhlp.obj
 0001:0002fd00       ?DloadLock@@YAXXZ          0000000180030d00 f i delayimp:delayhlp.obj
 0001:0002fd48       ?DloadMakePermanentImageCommit@@YAXPEAX_K@Z 0000000180030d48 f i delayimp:delayhlp.obj
 0001:0002fde0       ?DloadObtainSection@@YAPEAXPEAK0@Z 0000000180030de0 f i delayimp:delayhlp.obj
 0001:0002fe7c       ?DloadProtectSection@@YAXKPEAK@Z 0000000180030e7c f i delayimp:delayhlp.obj
 0001:0002ff0c       ?DloadReleaseSectionWriteAccess@@YAXXZ 0000000180030f0c f i delayimp:delayhlp.obj
 0001:0002ffa0       ?DloadUnlock@@YAXXZ        0000000180030fa0 f i delayimp:delayhlp.obj
 0001:0002ffe0       ?IndexFromPImgThunkData@@YAIPEBU_IMAGE_THUNK_DATA64@@0@Z 0000000180030fe0 f i delayimp:delayhlp.obj
 0001:00030128       HRESULT_FROM_WIN32         0000000180031128 f i delayimp:delayhlp.obj
 0001:00030138       ReadAcquire64              0000000180031138 f i delayimp:delayhlp.obj
 0001:0003013c       ReadPointerAcquire         000000018003113c f i delayimp:delayhlp.obj
 0001:00030140       WritePointerRelease        0000000180031140 f i delayimp:delayhlp.obj
 0001:00030144       WriteRelease64             0000000180031144 f i delayimp:delayhlp.obj
 0001:00030148       __FUnloadDelayLoadedDLL2   0000000180031148 f   delayimp:delayhlp.obj
 0001:00030204       __HrLoadAllImportsForDll   0000000180031204 f   delayimp:delayhlp.obj
 0001:00030278       __delayLoadHelper2         0000000180031278 f   delayimp:delayhlp.obj
 0001:00030560       _alloca_probe              0000000180031560 f   LIBCMT:chkstk.obj
 0001:00030560       __chkstk                   0000000180031560 f   LIBCMT:chkstk.obj
 0001:000305b0       ??1type_info@@UEAA@XZ      00000001800315b0 f   LIBCMT:std_type_info_static.obj
 0001:000305bc       ??_Etype_info@@UEAAPEAXI@Z 00000001800315bc f i LIBCMT:std_type_info_static.obj
 0001:000305bc       ??_Gtype_info@@UEAAPEAXI@Z 00000001800315bc f i LIBCMT:std_type_info_static.obj
 0001:000305e8       ?__scrt_initialize_type_info@@YAXXZ 00000001800315e8 f   LIBCMT:tncleanup.obj
 0001:000305f8       ?__scrt_uninitialize_type_info@@YAXXZ 00000001800315f8 f   LIBCMT:tncleanup.obj
 0001:00030604       ??3@YAXPEAX_K@Z            0000000180031604 f   LIBCMT:delete_scalar_size.obj
 0001:00030610       __vdecl_sinf4              0000000180031610 f   LIBCMT:svml_ssinf4_dispatch.obj
 0001:00030630       __libm_sse2_sincosf_       0000000180031630 f   LIBCMT:svml_ssinf4_dispatch.obj
 0001:00030673       __libm_sse2_sincosf4_      0000000180031673 f   LIBCMT:svml_ssinf4_dispatch.obj
 0001:000309bc       _CRT_INIT                  00000001800319bc f   LIBCMT:dll_dllmain.obj
 0001:000309c4       _DllMainCRTStartup         00000001800319c4 f   LIBCMT:dll_dllmain.obj
 0001:00030a04       _guard_check_icall_nop     0000000180031a04 f i LIBCMT:guard_support.obj
 0001:00030a08       ReadNoFence64              0000000180031a08 f i LIBCMT:guard_support.obj
 0001:00030a0c       ReadPointerNoFence         0000000180031a0c f i LIBCMT:guard_support.obj
 0001:00030a10       __castguard_check_failure_debugbreak 0000000180031a10 f i LIBCMT:guard_support.obj
 0001:00030a2c       __castguard_check_failure_fastfail 0000000180031a2c f i LIBCMT:guard_support.obj
 0001:00030a50       __castguard_check_failure_nop 0000000180031a50 f i LIBCMT:guard_support.obj
 0001:00030a54       __castguard_check_failure_os_handled 0000000180031a54 f i LIBCMT:guard_support.obj
 0001:00030ab4       __castguard_slow_path_check_debugbreak 0000000180031ab4 f i LIBCMT:guard_support.obj
 0001:00030ae8       __castguard_slow_path_check_fastfail 0000000180031ae8 f i LIBCMT:guard_support.obj
 0001:00030b24       __castguard_slow_path_check_nop 0000000180031b24 f i LIBCMT:guard_support.obj
 0001:00030b28       __castguard_slow_path_check_os_handled 0000000180031b28 f i LIBCMT:guard_support.obj
 0001:00030b9c       _guard_icall_checks_enforced 0000000180031b9c f i LIBCMT:guard_support.obj
 0001:00030bb4       _guard_rf_checks_enforced  0000000180031bb4 f i LIBCMT:guard_support.obj
 0001:00030bb8       ??3@YAXPEAX@Z              0000000180031bb8 f   LIBCMT:delete_scalar.obj
 0001:00030bc0       __isa_available_init       0000000180031bc0 f   LIBCMT:cpu_disp.obj
 0001:00030d70       __sse2_sinf4@@16           0000000180031d70 f   LIBCMT:svml_ssinf4_sse2.obj
 0001:000316b0       __sse4_sinf4@@16           00000001800326b0 f   LIBCMT:svml_ssinf4_sse4.obj
 0001:00031e90       __security_init_cookie     0000000180032e90 f   LIBCMT:gs_support.obj
 0001:00031f3c       DllMain                    0000000180032f3c f   LIBCMT:dll_dllmain_stub.obj
 0001:00031f44       __local_stdio_printf_options 0000000180032f44 f i LIBCMT:default_local_stdio_options.obj
 0001:00031f4c       __local_stdio_scanf_options 0000000180032f4c f i LIBCMT:default_local_stdio_options.obj
 0001:00031f54       __scrt_initialize_default_local_stdio_options 0000000180032f54 f   LIBCMT:default_local_stdio_options.obj
 0001:00031f70       ?configure_argv@__scrt_narrow_argv_policy@@SAHXZ 0000000180032f70 f i LIBCMT:utility.obj
 0001:00031fd0       ?initialize_environment@__scrt_narrow_environment_policy@@SAHXZ 0000000180032fd0 f i LIBCMT:utility.obj
 0001:00032008       NtCurrentTeb               0000000180033008 f i LIBCMT:utility.obj
 0001:00032014       __scrt_acquire_startup_lock 0000000180033014 f   LIBCMT:utility.obj
 0001:00032050       __scrt_dllmain_after_initialize_c 0000000180033050 f   LIBCMT:utility.obj
 0001:00032084       __scrt_dllmain_before_initialize_c 0000000180033084 f   LIBCMT:utility.obj
 0001:0003209c       __scrt_dllmain_crt_thread_attach 000000018003309c f   LIBCMT:utility.obj
 0001:000320c4       __scrt_dllmain_crt_thread_detach 00000001800330c4 f   LIBCMT:utility.obj
 0001:000320dc       __scrt_dllmain_exception_filter 00000001800330dc f   LIBCMT:utility.obj
 0001:0003213c       __scrt_dllmain_uninitialize_c 000000018003313c f   LIBCMT:utility.obj
 0001:0003216c       __scrt_dllmain_uninitialize_critical 000000018003316c f   LIBCMT:utility.obj
 0001:00032180       __scrt_initialize_crt      0000000180033180 f   LIBCMT:utility.obj
 0001:000321cc       __scrt_initialize_onexit_tables 00000001800331cc f   LIBCMT:utility.obj
 0001:00032258       __scrt_is_nonwritable_in_current_image 0000000180033258 f   LIBCMT:utility.obj
 0001:000322f0       __scrt_release_startup_lock 00000001800332f0 f   LIBCMT:utility.obj
 0001:00032314       __scrt_uninitialize_crt    0000000180033314 f   LIBCMT:utility.obj
 0001:00032340       _onexit                    0000000180033340 f   LIBCMT:utility.obj
 0001:0003237c       at_quick_exit              000000018003337c f   LIBCMT:utility.obj
 0001:0003239c       atexit                     000000018003339c f   LIBCMT:utility.obj
 0001:000323b4       __scrt_get_dyn_tls_init_callback 00000001800333b4 f   LIBCMT:dyn_tls_init.obj
 0001:000323bc       __crt_debugger_hook        00000001800333bc f   LIBCMT:utility_desktop.obj
 0001:000323c4       __scrt_fastfail            00000001800333c4 f   LIBCMT:utility_desktop.obj
 0001:00032510       __scrt_get_show_window_mode 0000000180033510 f   LIBCMT:utility_desktop.obj
 0001:0003254c       __scrt_initialize_mta      000000018003354c f   LIBCMT:utility_desktop.obj
 0001:00032554       __scrt_initialize_winrt    0000000180033554 f   LIBCMT:utility_desktop.obj
 0001:00032558       __scrt_is_managed_app      0000000180033558 f   LIBCMT:utility_desktop.obj
 0001:000325ac       __scrt_set_unhandled_exception_filter 00000001800335ac f   LIBCMT:utility_desktop.obj
 0001:000325bc       __scrt_stub_for_initialize_mta 00000001800335bc f   LIBCMT:utility_desktop.obj
 0001:000325bc       __scrt_exe_initialize_mta  00000001800335bc f   LIBCMT:utility_desktop.obj
 0001:000325c0       __scrt_unhandled_exception_filter 00000001800335c0 f   LIBCMT:utility_desktop.obj
 0001:0003261c       _RTC_Initialize            000000018003361c f   LIBCMT:initsect.obj
 0001:00032658       _RTC_Terminate             0000000180033658 f   LIBCMT:initsect.obj
 0001:000326a0       __common_ssin_cout_rare    00000001800336a0 f   LIBCMT:svml_s_sin_cout.obj
 0001:00032710       _get_startup_argv_mode     0000000180033710 f   LIBCMT:argv_mode.obj
 0001:00032718       __scrt_is_ucrt_dll_in_use  0000000180033718 f   LIBCMT:ucrt_detection.obj
 0001:00032724       strstr                     0000000180033724 f   libvcruntime:strstr.obj
 0001:00032930       ??$?RD@__crt_internal_free_policy@@QEBAXQEBD@Z 0000000180033930 f i libvcruntime:std_type_info.obj
 0001:00032938       ??$?RX@__crt_internal_free_policy@@QEBAXQEBX@Z 0000000180033938 f i libvcruntime:std_type_info.obj
 0001:00032940       ??$__crt_interlocked_compare_exchange_pointer@$$CBDPEAD$$T@@YAPEBDPEDSEBDQEAD$$T@Z 0000000180033940 f i libvcruntime:std_type_info.obj
 0001:0003294c       ??$__crt_interlocked_read_pointer@$$CBD@@YAPEBDPEDSEBD@Z 000000018003394c f i libvcruntime:std_type_info.obj
 0001:00032954       ??0?$__crt_unique_heap_ptr@DU__crt_internal_free_policy@@@@QEAA@QEAD@Z 0000000180033954 f i libvcruntime:std_type_info.obj
 0001:0003295c       ??0?$__crt_unique_heap_ptr@XU__crt_internal_free_policy@@@@QEAA@QEAX@Z 000000018003395c f i libvcruntime:std_type_info.obj
 0001:00032964       ??1?$__crt_unique_heap_ptr@DU__crt_internal_free_policy@@@@QEAA@XZ 0000000180033964 f i libvcruntime:std_type_info.obj
 0001:00032980       ??1?$__crt_unique_heap_ptr@XU__crt_internal_free_policy@@@@QEAA@XZ 0000000180033980 f i libvcruntime:std_type_info.obj
 0001:0003299c       ??B?$__crt_unique_heap_ptr@DU__crt_internal_free_policy@@@@QEBA_NXZ 000000018003399c f i libvcruntime:std_type_info.obj
 0001:000329a4       ??B?$__crt_unique_heap_ptr@XU__crt_internal_free_policy@@@@QEBA_NXZ 00000001800339a4 f i libvcruntime:std_type_info.obj
 0001:000329cc       ?__crt_interlocked_read_64@@YA_JPED_J@Z 00000001800339cc f i libvcruntime:std_type_info.obj
 0001:000329d4       ?detach@?$__crt_unique_heap_ptr@XU__crt_internal_free_policy@@@@QEAAPEAXXZ 00000001800339d4 f i libvcruntime:std_type_info.obj
 0001:000329dc       ?get@?$__crt_unique_heap_ptr@DU__crt_internal_free_policy@@@@QEBAPEADXZ 00000001800339dc f i libvcruntime:std_type_info.obj
 0001:000329e0       ?get@?$__crt_unique_heap_ptr@XU__crt_internal_free_policy@@@@QEBAPEAXXZ 00000001800339e0 f i libvcruntime:std_type_info.obj
 0001:000329e4       ?is_valid@?$__crt_unique_heap_ptr@DU__crt_internal_free_policy@@@@QEBA_NXZ 00000001800339e4 f i libvcruntime:std_type_info.obj
 0001:000329ec       ?is_valid@?$__crt_unique_heap_ptr@XU__crt_internal_free_policy@@@@QEBA_NXZ 00000001800339ec f i libvcruntime:std_type_info.obj
 0001:000329f4       ?release@?$__crt_unique_heap_ptr@DU__crt_internal_free_policy@@@@QEAAXXZ 00000001800339f4 f i libvcruntime:std_type_info.obj
 0001:00032a10       ?release@?$__crt_unique_heap_ptr@XU__crt_internal_free_policy@@@@QEAAXXZ 0000000180033a10 f i libvcruntime:std_type_info.obj
 0001:00032a2c       __std_type_info_compare    0000000180033a2c f   libvcruntime:std_type_info.obj
 0001:00032a54       __std_type_info_destroy_list 0000000180033a54 f   libvcruntime:std_type_info.obj
 0001:00032a80       __std_type_info_hash       0000000180033a80 f   libvcruntime:std_type_info.obj
 0001:00032ab8       __std_type_info_name       0000000180033ab8 f   libvcruntime:std_type_info.obj
 0001:00032be0       memcpy_repmovs             0000000180033be0 f   libvcruntime:memcpy.obj
 0001:00032c00       memmove                    0000000180033c00 f   libvcruntime:memcpy.obj
 0001:00032c00       memcpy                     0000000180033c00 f   libvcruntime:memcpy.obj
 0001:00033278       ??$__crt_interlocked_exchange_pointer@$$A6AXXZP6AXXZ@@YAP6AXXZPEDS6AXXZQ6AXXZ@Z 0000000180034278 f i libvcruntime:purevirt.obj
 0001:00033280       ??$__crt_interlocked_read_pointer@$$A6AXXZ@@YAP6AXXZPEDS6AXXZ@Z 0000000180034280 f i libvcruntime:purevirt.obj
 0001:00033288       _get_purecall_handler      0000000180034288 f   libvcruntime:purevirt.obj
 0001:00033294       _purecall                  0000000180034294 f   libvcruntime:purevirt.obj
 0001:000332b0       _set_purecall_handler      00000001800342b0 f   libvcruntime:purevirt.obj
 0001:000332d0       memset_repmovs             00000001800342d0 f   libvcruntime:memset.obj
 0001:000332f0       memset                     00000001800342f0 f   libvcruntime:memset.obj
 0001:00033480       __C_specific_handler       0000000180034480 f   libvcruntime:riscchandler.obj
 0001:0003368c       __vcrt_initialize          000000018003468c f   libvcruntime:initialization.obj
 0001:000336b4       __vcrt_thread_attach       00000001800346b4 f   libvcruntime:initialization.obj
 0001:000336c8       __vcrt_thread_detach       00000001800346c8 f   libvcruntime:initialization.obj
 0001:000336dc       __vcrt_uninitialize        00000001800346dc f   libvcruntime:initialization.obj
 0001:000336f8       __vcrt_uninitialize_critical 00000001800346f8 f   libvcruntime:initialization.obj
 0001:0003370c       __DestructExceptionObject  000000018003470c f   libvcruntime:ehhelpers.obj
 0001:0003377c       ?_CallMemberFunction0@@YAXQEAX0@Z 000000018003477c f i libvcruntime:ehhelpers.obj
 0001:000337d8       ?raw_name@type_info@@QEBAPEBDXZ 00000001800347d8 f i libvcruntime:ehhelpers.obj
 0001:000337e0       _IsExceptionObjectToBeDestroyed 00000001800347e0 f   libvcruntime:ehhelpers.obj
 0001:00033810       _SetWinRTOutOfMemoryExceptionCallback 0000000180034810 f   libvcruntime:ehhelpers.obj
 0001:00033818       __AdjustPointer            0000000180034818 f   libvcruntime:ehhelpers.obj
 0001:0003383c       __FrameUnwindFilter        000000018003483c f   libvcruntime:ehhelpers.obj
 0001:000338a4       __GetPlatformExceptionInfo 00000001800348a4 f   libvcruntime:ehhelpers.obj
 0001:00033900       __current_exception        0000000180034900 f   libvcruntime:ehhelpers.obj
 0001:00033914       __current_exception_context 0000000180034914 f   libvcruntime:ehhelpers.obj
 0001:00033928       __processing_throw         0000000180034928 f   libvcruntime:ehhelpers.obj
 0001:0003393c       __std_terminate            000000018003493c f   libvcruntime:ehhelpers.obj
 0001:00033948       _is_exception_typeof       0000000180034948 f   libvcruntime:ehhelpers.obj
 0001:000339f0       ??$?0$00@DName@@QEAA@PEBDU?$StringLifeSelector@$00@@@Z 00000001800349f0 f i libvcruntime:undname.obj
 0001:00033a30       ??$?0$00@pcharNode@@QEAA@PEBDHU?$StringLifeSelector@$00@@@Z 0000000180034a30 f i libvcruntime:undname.obj
 0001:00033a48       ??$?0$01@DName@@QEAA@PEBDU?$StringLifeSelector@$01@@@Z 0000000180034a48 f i libvcruntime:undname.obj
 0001:00033a88       ??$?0$01@pcharNode@@QEAA@PEBDHU?$StringLifeSelector@$01@@@Z 0000000180034a88 f i libvcruntime:undname.obj
 0001:00033afc       ??$?0$0A@@DName@@QEAA@PEBDU?$StringLifeSelector@$0A@@@@Z 0000000180034afc f i libvcruntime:undname.obj
 0001:00033b3c       ??$?0$0A@@pcharNode@@QEAA@PEBDHU?$StringLifeSelector@$0A@@@@Z 0000000180034b3c f i libvcruntime:undname.obj
 0001:00033bb0       ??$?0_K$0A@@?$optional@_K@std@@QEAA@$$QEA_K@Z 0000000180034bb0 f i libvcruntime:undname.obj
 0001:00033bc0       ??$?0_K@?$_Optional_construct_base@_K@std@@QEAA@Uin_place_t@1@$$QEA_K@Z 0000000180034bc0 f i libvcruntime:undname.obj
 0001:00033bd0       ??$?0_K@?$_Optional_destruct_base@_K$00@std@@QEAA@Uin_place_t@1@$$QEA_K@Z 0000000180034bd0 f i libvcruntime:undname.obj
 0001:00033be0       ??$append@VDNameNode@@@DName@@AEAAXPEBVDNameNode@@@Z 0000000180034be0 f i libvcruntime:undname.obj
 0001:00033c44       ??$append@VDNameStatusNode@@@DName@@AEAAXPEBVDNameStatusNode@@@Z 0000000180034c44 f i libvcruntime:undname.obj
 0001:00033ca8       ??$append@VcharNode@@@DName@@AEAAXPEBVcharNode@@@Z 0000000180034ca8 f i libvcruntime:undname.obj
 0001:00033d0c       ??$append@VpDNameNode@@@DName@@AEAAXPEBVpDNameNode@@@Z 0000000180034d0c f i libvcruntime:undname.obj
 0001:00033d70       ??$append@VpcharNode@@@DName@@AEAAXPEBVpcharNode@@@Z 0000000180034d70 f i libvcruntime:undname.obj
 0001:00033dd4       ??$doPchar@$00@DName@@AEAAXPEBDH@Z 0000000180034dd4 f i libvcruntime:undname.obj
 0001:00033e78       ??$doPchar@$01@DName@@AEAAXPEBDH@Z 0000000180034e78 f i libvcruntime:undname.obj
 0001:00033f10       ??$doPchar@$0A@@DName@@AEAAXPEBDH@Z 0000000180034f10 f i libvcruntime:undname.obj
 0001:00033fa8       ??$forward@_K@std@@YA$$QEA_KAEA_K@Z 0000000180034fa8 f i libvcruntime:undname.obj
 0001:00033fac       ??$size@D$04@std@@YA_KAEAY04$$CBD@Z 0000000180034fac f i libvcruntime:undname.obj
 0001:00033fb4       ??$size@D$0EB@@std@@YA_KAEAY0EB@$$CBD@Z 0000000180034fb4 f i libvcruntime:undname.obj
 0001:00033fbc       ??0?$_Optional_construct_base@_K@std@@QEAA@XZ 0000000180034fbc f i libvcruntime:undname.obj
 0001:00033fc4       ??0?$_Optional_destruct_base@_K$00@std@@QEAA@XZ 0000000180034fc4 f i libvcruntime:undname.obj
 0001:00033fcc       ??0?$optional@_K@std@@QEAA@XZ 0000000180034fcc f i libvcruntime:undname.obj
 0001:00033fd4       ??0Block@_HeapManager@@QEAA@XZ 0000000180034fd4 f i libvcruntime:undname.obj
 0001:00033fdc       ??0DName@@QEAA@AEAPEBDD@Z  0000000180034fdc f   libvcruntime:undname.obj
 0001:0003408c       ??0DName@@QEAA@AEBUStringLiteral@@@Z 000000018003508c f   libvcruntime:undname.obj
 0001:000340b8       ??0DName@@QEAA@AEBV0@@Z    00000001800350b8 f i libvcruntime:undname.obj
 0001:000340c8       ??0DName@@QEAA@D@Z         00000001800350c8 f   libvcruntime:undname.obj
 0001:000340e8       ??0DName@@QEAA@PEAV0@@Z    00000001800350e8 f   libvcruntime:undname.obj
 0001:0003416c       ??0DName@@QEAA@W4DNameStatus@@@Z 000000018003516c f   libvcruntime:undname.obj
 0001:0003419c       ??0DName@@QEAA@XZ          000000018003519c f i libvcruntime:undname.obj
 0001:000341a8       ??0DName@@QEAA@_J@Z        00000001800351a8 f   libvcruntime:undname.obj
 0001:00034250       ??0DName@@QEAA@_K@Z        0000000180035250 f   libvcruntime:undname.obj
 0001:000342d8       ??0DNameNode@@IEAA@XZ      00000001800352d8 f i libvcruntime:undname.obj
 0001:000342e8       ??0Replicator@@QEAA@XZ     00000001800352e8 f i libvcruntime:undname.obj
 0001:000342fc       ??0UnDecorator@@QEAA@PEBDP6APEADJ@ZK@Z 00000001800352fc f i libvcruntime:undname.obj
 0001:0003434c       ??0_Nontrivial_dummy_type@std@@QEAA@XZ 000000018003534c f i libvcruntime:undname.obj
 0001:00034350       ??0charNode@@QEAA@D@Z      0000000180035350 f i libvcruntime:undname.obj
 0001:00034364       ??0pDNameNode@@QEAA@PEAVDName@@@Z 0000000180035364 f   libvcruntime:undname.obj
 0001:0003438c       ??0pairNode@@QEAA@PEBVDNameNode@@0@Z 000000018003538c f i libvcruntime:undname.obj
 0001:000343b0       ??2@YAPEAX_KAEAV_HeapManager@@H@Z 00000001800353b0 f   libvcruntime:undname.obj
 0001:000343dc       ??4DName@@QEAAAEAV0@AEBUStringLiteral@@@Z 00000001800353dc f   libvcruntime:undname.obj
 0001:00034404       ??4DName@@QEAAAEAV0@AEBV0@@Z 0000000180035404 f   libvcruntime:undname.obj
 0001:00034414       ??4DName@@QEAAAEAV0@D@Z    0000000180035414 f i libvcruntime:undname.obj
 0001:00034434       ??4DName@@QEAAAEAV0@PEAV0@@Z 0000000180035434 f   libvcruntime:undname.obj
 0001:000344ac       ??4DName@@QEAAAEAV0@W4DNameStatus@@@Z 00000001800354ac f   libvcruntime:undname.obj
 0001:000344cc       ??AReplicator@@QEBA?AVDName@@H@Z 00000001800354cc f   libvcruntime:undname.obj
 0001:0003450c       ??B?$optional@_K@std@@QEBA_NXZ 000000018003550c f i libvcruntime:undname.obj
 0001:00034510       ??D?$optional@_K@std@@QEGAAAEA_KXZ 0000000180035510 f i libvcruntime:undname.obj
 0001:00034514       ??H@YA?AVDName@@AEBUStringLiteral@@AEBV0@@Z 0000000180035514 f i libvcruntime:undname.obj
 0001:0003454c       ??H@YA?AVDName@@DAEBV0@@Z  000000018003554c f i libvcruntime:undname.obj
 0001:00034590       ??H@YA?AVDName@@W4DNameStatus@@AEBV0@@Z 0000000180035590 f i libvcruntime:undname.obj
 0001:000345dc       ??HDName@@QEBA?AV0@AEBUStringLiteral@@@Z 00000001800355dc f   libvcruntime:undname.obj
 0001:00034608       ??HDName@@QEBA?AV0@AEBV0@@Z 0000000180035608 f   libvcruntime:undname.obj
 0001:00034634       ??HDName@@QEBA?AV0@D@Z     0000000180035634 f   libvcruntime:undname.obj
 0001:00034660       ??HDName@@QEBA?AV0@PEAV0@@Z 0000000180035660 f   libvcruntime:undname.obj
 0001:0003468c       ??HDName@@QEBA?AV0@W4DNameStatus@@@Z 000000018003568c f   libvcruntime:undname.obj
 0001:000346b8       ??HStringLiteral@@QEBA?AU0@H@Z 00000001800356b8 f i libvcruntime:undname.obj
 0001:000346d0       ??YDName@@QEAAAEAV0@AEBUStringLiteral@@@Z 00000001800356d0 f   libvcruntime:undname.obj
 0001:00034750       ??YDName@@QEAAAEAV0@AEBV0@@Z 0000000180035750 f   libvcruntime:undname.obj
 0001:00034804       ??YDName@@QEAAAEAV0@D@Z    0000000180035804 f   libvcruntime:undname.obj
 0001:00034870       ??YDName@@QEAAAEAV0@PEAV0@@Z 0000000180035870 f   libvcruntime:undname.obj
 0001:00034904       ??YDName@@QEAAAEAV0@W4DNameStatus@@@Z 0000000180035904 f   libvcruntime:undname.obj
 0001:00034970       ??YReplicator@@QEAAAEAV0@AEBVDName@@@Z 0000000180035970 f   libvcruntime:undname.obj
 0001:000349c8       ??_5DName@@QEAAAEAV0@AEBV0@@Z 00000001800359c8 f   libvcruntime:undname.obj
 0001:000349dc       ??__K_l@@YA?AUStringLiteral@@PEBD_K@Z 00000001800359dc f i libvcruntime:undname.obj
 0001:000349e8       ?Constructor@_HeapManager@@QEAAXP6APEAX_K@ZP6AXPEAX@Z@Z 00000001800359e8 f i libvcruntime:undname.obj
 0001:00034a00       ?Destructor@_HeapManager@@QEAAXXZ 0000000180035a00 f i libvcruntime:undname.obj
 0001:00034a54       ?UScore@UnDecorator@@SA?AUStringLiteral@@W4Tokens@@@Z 0000000180035a54 f   libvcruntime:undname.obj
 0001:00034aa0       ?composeDeclaration@UnDecorator@@CA?AVDName@@AEBV2@@Z 0000000180035aa0 f i libvcruntime:undname.obj
 0001:00035948       ?doAccessSpecifiers@UnDecorator@@SAHXZ 0000000180036948 f i libvcruntime:undname.obj
 0001:00035958       ?doAllocationLanguage@UnDecorator@@SAHXZ 0000000180036958 f i libvcruntime:undname.obj
 0001:00035968       ?doAllocationModel@UnDecorator@@SAHXZ 0000000180036968 f i libvcruntime:undname.obj
 0001:00035978       ?doEcsu@UnDecorator@@SAHXZ 0000000180036978 f i libvcruntime:undname.obj
 0001:00035988       ?doEllipsis@UnDecorator@@SAHXZ 0000000180036988 f i libvcruntime:undname.obj
 0001:00035998       ?doFunctionReturns@UnDecorator@@SAHXZ 0000000180036998 f i libvcruntime:undname.obj
 0001:000359a8       ?doMSKeywords@UnDecorator@@SAHXZ 00000001800369a8 f i libvcruntime:undname.obj
 0001:000359b8       ?doMemberTypes@UnDecorator@@SAHXZ 00000001800369b8 f i libvcruntime:undname.obj
 0001:000359c8       ?doNameOnly@UnDecorator@@SAHXZ 00000001800369c8 f i libvcruntime:undname.obj
 0001:000359d4       ?doNoIdentCharCheck@UnDecorator@@SAHXZ 00000001800369d4 f i libvcruntime:undname.obj
 0001:000359e0       ?doPchar@DName@@AEAAXD@Z   00000001800369e0 f   libvcruntime:undname.obj
 0001:00035a30       ?doPtr64@UnDecorator@@SAHXZ 0000000180036a30 f i libvcruntime:undname.obj
 0001:00035a40       ?doRestrictionSpec@UnDecorator@@SAHXZ 0000000180036a40 f i libvcruntime:undname.obj
 0001:00035a50       ?doThisTypes@UnDecorator@@SAHXZ 0000000180036a50 f i libvcruntime:undname.obj
 0001:00035a64       ?doThrowTypes@UnDecorator@@SAHXZ 0000000180036a64 f i libvcruntime:undname.obj
 0001:00035a74       ?doTypeOnly@UnDecorator@@SAHXZ 0000000180036a74 f i libvcruntime:undname.obj
 0001:00035a80       ?doUnderScore@UnDecorator@@SAHXZ 0000000180036a80 f i libvcruntime:undname.obj
 0001:00035a8c       ?getAddressOf@UnDecorator@@CA?AVDName@@XZ 0000000180036a8c f   libvcruntime:undname.obj
 0001:00035b1c       ?getArgumentList@UnDecorator@@CA?AVDName@@XZ 0000000180036b1c f   libvcruntime:undname.obj
 0001:00035cb0       ?getArgumentTypes@UnDecorator@@CA?AVDName@@XZ 0000000180036cb0 f   libvcruntime:undname.obj
 0001:00035e0c       ?getArrayAccess@UnDecorator@@CA?AVDName@@XZ 0000000180036e0c f   libvcruntime:undname.obj
 0001:00035ea8       ?getArrayObject@UnDecorator@@CA?AVDName@@XZ 0000000180036ea8 f   libvcruntime:undname.obj
 0001:00035f70       ?getArrayType@UnDecorator@@CA?AVDName@@AEBV2@@Z 0000000180036f70 f i libvcruntime:undname.obj
 0001:000361b8       ?getBasedType@UnDecorator@@CA?AVDName@@XZ 00000001800371b8 f   libvcruntime:undname.obj
 0001:000362b0       ?getBasicDataType@UnDecorator@@CA?AVDName@@AEBV2@@Z 00000001800372b0 f   libvcruntime:undname.obj
 0001:00036860       ?getCHPEName@UnDecorator@@QEAAPEADPEADH@Z 0000000180037860 f i libvcruntime:undname.obj
 0001:00036980       ?getCallIndex@UnDecorator@@CA?AVDName@@XZ 0000000180037980 f i libvcruntime:undname.obj
 0001:0003699c       ?getCallingConvention@UnDecorator@@CA?AVDName@@XZ 000000018003799c f   libvcruntime:undname.obj
 0001:00036adc       ?getDataIndirectType@UnDecorator@@CA?AVDName@@AEBV2@W4IndirectionKind@@0H@Z 0000000180037adc f   libvcruntime:undname.obj
 0001:00037374       ?getDataIndirectType@UnDecorator@@CA?AVDName@@XZ 0000000180038374 f i libvcruntime:undname.obj
 0001:000373b0       ?getDataType@UnDecorator@@CA?AVDName@@PEAV2@@Z 00000001800383b0 f   libvcruntime:undname.obj
 0001:000374c4       ?getDecoratedName@UnDecorator@@CA?AVDName@@XZ 00000001800384c4 f   libvcruntime:undname.obj
 0001:000377a8       ?getDimension@UnDecorator@@CA?AVDName@@_N@Z 00000001800387a8 f   libvcruntime:undname.obj
 0001:000378f4       ?getDispatchTarget@UnDecorator@@CA?AVDName@@XZ 00000001800388f4 f   libvcruntime:undname.obj
 0001:00037940       ?getDisplacement@UnDecorator@@CA?AVDName@@XZ 0000000180038940 f i libvcruntime:undname.obj
 0001:0003795c       ?getECSUDataType@UnDecorator@@CA?AVDName@@XZ 000000018003895c f   libvcruntime:undname.obj
 0001:00037b3c       ?getECSUName@UnDecorator@@CA?AVDName@@XZ 0000000180038b3c f i libvcruntime:undname.obj
 0001:00037b54       ?getEnumType@UnDecorator@@CA?AVDName@@XZ 0000000180038b54 f i libvcruntime:undname.obj
 0001:00037c84       ?getExtendedDataIndirectType@UnDecorator@@CA?AVDName@@AEAW4IndirectionKind@@AEA_NH@Z 0000000180038c84 f   libvcruntime:undname.obj
 0001:00037e8c       ?getExternalDataType@UnDecorator@@CA?AVDName@@AEBV2@@Z 0000000180038e8c f i libvcruntime:undname.obj
 0001:00037f4c       ?getFloatingPoint@UnDecorator@@CA?AVDName@@H@Z 0000000180038f4c f   libvcruntime:undname.obj
 0001:00038074       ?getFunctionIndirectType@UnDecorator@@CA?AVDName@@AEBV2@@Z 0000000180039074 f   libvcruntime:undname.obj
 0001:000385ac       ?getGuardNumber@UnDecorator@@CA?AVDName@@XZ 00000001800395ac f i libvcruntime:undname.obj
 0001:000385c8       ?getLastChar@DName@@QEBADXZ 00000001800395c8 f i libvcruntime:undname.obj
 0001:000385e4       ?getLastChar@DNameStatusNode@@UEBADXZ 00000001800395e4 f i libvcruntime:undname.obj
 0001:000385f0       ?getLastChar@charNode@@UEBADXZ 00000001800395f0 f i libvcruntime:undname.obj
 0001:000385f4       ?getLastChar@pDNameNode@@UEBADXZ 00000001800395f4 f i libvcruntime:undname.obj
 0001:00038620       ?getLastChar@pairNode@@UEBADXZ 0000000180039620 f i libvcruntime:undname.obj
 0001:00038658       ?getLastChar@pcharNode@@UEBADXZ 0000000180039658 f i libvcruntime:undname.obj
 0001:0003866c       ?getLexicalFrame@UnDecorator@@CA?AVDName@@XZ 000000018003966c f i libvcruntime:undname.obj
 0001:000386d0       ?getMemberAccess@UnDecorator@@CA?AVDName@@XZ 00000001800396d0 f   libvcruntime:undname.obj
 0001:00038764       ?getMemoryWithBuffer@_HeapManager@@QEAAPEAX_K@Z 0000000180039764 f   libvcruntime:undname.obj
 0001:000387f4       ?getMemoryWithoutBuffer@_HeapManager@@QEAAPEAX_K@Z 00000001800397f4 f   libvcruntime:undname.obj
 0001:00038808       ?getNoexcept@UnDecorator@@CA?AVDName@@XZ 0000000180039808 f   libvcruntime:undname.obj
 0001:0003886c       ?getNumberOfDimensions@UnDecorator@@CAHXZ 000000018003986c f   libvcruntime:undname.obj
 0001:000388e0       ?getOperatorName@UnDecorator@@CA?AVDName@@_NPEA_N@Z 00000001800398e0 f i libvcruntime:undname.obj
 0001:000392d4       ?getPointerToMember@UnDecorator@@CA?AVDName@@XZ 000000018003a2d4 f   libvcruntime:undname.obj
 0001:000393cc       ?getPointerType@UnDecorator@@CA?AVDName@@AEBV2@0@Z 000000018003a3cc f i libvcruntime:undname.obj
 0001:000393ec       ?getPointerTypeArray@UnDecorator@@CA?AVDName@@AEBV2@0@Z 000000018003a3ec f i libvcruntime:undname.obj
 0001:00039408       ?getPrimaryDataType@UnDecorator@@CA?AVDName@@AEBV2@@Z 000000018003a408 f   libvcruntime:undname.obj
 0001:000396bc       ?getPtrRefDataType@UnDecorator@@CA?AVDName@@AEBV2@H@Z 000000018003a6bc f   libvcruntime:undname.obj
 0001:00039888       ?getPtrRefType@UnDecorator@@CA?AVDName@@AEBV2@0W4IndirectionKind@@@Z 000000018003a888 f   libvcruntime:undname.obj
 0001:00039a60       ?getReferenceType@UnDecorator@@CA?AVDName@@AEBV2@0W4IndirectionKind@@@Z 000000018003aa60 f i libvcruntime:undname.obj
 0001:00039a78       ?getRestrictionSpec@UnDecorator@@CA?AVDName@@XZ 000000018003aa78 f   libvcruntime:undname.obj
 0001:00039c44       ?getReturnType@UnDecorator@@CA?AVDName@@PEAV2@@Z 000000018003ac44 f   libvcruntime:undname.obj
 0001:00039c78       ?getScope@UnDecorator@@CA?AVDName@@XZ 000000018003ac78 f   libvcruntime:undname.obj
 0001:0003a12c       ?getScopedName@UnDecorator@@CA?AVDName@@XZ 000000018003b12c f   libvcruntime:undname.obj
 0001:0003a268       ?getSignedDimension@UnDecorator@@CA?AVDName@@XZ 000000018003b268 f   libvcruntime:undname.obj
 0001:0003a2f0       ?getStorageConvention@UnDecorator@@CA?AVDName@@XZ 000000018003b2f0 f i libvcruntime:undname.obj
 0001:0003a32c       ?getString@DName@@QEBAPEADPEAD0@Z 000000018003b32c f i libvcruntime:undname.obj
 0001:0003a348       ?getString@DName@@QEBAPEADPEADH@Z 000000018003b348 f i libvcruntime:undname.obj
 0001:0003a3dc       ?getString@DNameStatusNode@@UEBAPEADPEAD0@Z 000000018003b3dc f i libvcruntime:undname.obj
 0001:0003a424       ?getString@charNode@@UEBAPEADPEAD0@Z 000000018003b424 f i libvcruntime:undname.obj
 0001:0003a438       ?getString@pDNameNode@@UEBAPEADPEAD0@Z 000000018003b438 f i libvcruntime:undname.obj
 0001:0003a468       ?getString@pairNode@@UEBAPEADPEAD0@Z 000000018003b468 f i libvcruntime:undname.obj
 0001:0003a4b4       ?getString@pcharNode@@UEBAPEADPEAD0@Z 000000018003b4b4 f i libvcruntime:undname.obj
 0001:0003a4ec       ?getStringEncoding@UnDecorator@@CA?AVDName@@W4PrefixKind@@H@Z 000000018003b4ec f   libvcruntime:undname.obj
 0001:0003a5d0       ?getStringHelper@@YAPEADPEADPEBD1H@Z 000000018003b5d0 f i libvcruntime:undname.obj
 0001:0003a600       ?getStringObject@UnDecorator@@CA?AVDName@@XZ 000000018003b600 f   libvcruntime:undname.obj
 0001:0003a668       ?getSymbolName@UnDecorator@@CA?AVDName@@XZ 000000018003b668 f i libvcruntime:undname.obj
 0001:0003a6b4       ?getTemplateArgumentList@UnDecorator@@CA?AVDName@@XZ 000000018003b6b4 f   libvcruntime:undname.obj
 0001:0003a928       ?getTemplateName@UnDecorator@@CA?AVDName@@_N@Z 000000018003b928 f   libvcruntime:undname.obj
 0001:0003abbc       ?getTemplateNonTypeArgument@UnDecorator@@CA?AVDName@@XZ 000000018003bbbc f   libvcruntime:undname.obj
 0001:0003b0f0       ?getTemplateTypeArgument@UnDecorator@@CA?AVDName@@XZ 000000018003c0f0 f   libvcruntime:undname.obj
 0001:0003b258       ?getThisType@UnDecorator@@CA?AVDName@@XZ 000000018003c258 f i libvcruntime:undname.obj
 0001:0003b298       ?getThrowTypes@UnDecorator@@CA?AVDName@@XZ 000000018003c298 f   libvcruntime:undname.obj
 0001:0003b2bc       ?getTypeEncoding@UnDecorator@@CAHXZ 000000018003c2bc f i libvcruntime:undname.obj
 0001:0003b64c       ?getUndecoratedName@UnDecorator@@QEAAPEADPEADH@Z 000000018003c64c f i libvcruntime:undname.obj
 0001:0003b7a0       ?getUnionObject@UnDecorator@@CA?AVDName@@XZ 000000018003c7a0 f   libvcruntime:undname.obj
 0001:0003b878       ?getVCallThunkType@UnDecorator@@CA?AVDName@@XZ 000000018003c878 f i libvcruntime:undname.obj
 0001:0003b8f0       ?getValue@UnDecorator@@CA?AV?$optional@_K@std@@XZ 000000018003c8f0 f   libvcruntime:undname.obj
 0001:0003b964       ?getValueObject@UnDecorator@@CA?AVDName@@XZ 000000018003c964 f   libvcruntime:undname.obj
 0001:0003babc       ?getVbTableType@UnDecorator@@CA?AVDName@@AEBV2@@Z 000000018003cabc f i libvcruntime:undname.obj
 0001:0003bad4       ?getVdispMapType@UnDecorator@@CA?AVDName@@AEBV2@@Z 000000018003cad4 f i libvcruntime:undname.obj
 0001:0003bb50       ?getVfTableType@UnDecorator@@CA?AVDName@@AEBV2@@Z 000000018003cb50 f i libvcruntime:undname.obj
 0001:0003bd58       ?getZName@UnDecorator@@CA?AVDName@@_N0@Z 000000018003cd58 f   libvcruntime:undname.obj
 0001:0003c040       ?haveTemplateParameters@UnDecorator@@SAHXZ 000000018003d040 f i libvcruntime:undname.obj
 0001:0003c04c       ?isArray@DName@@QEBAHXZ    000000018003d04c f i libvcruntime:undname.obj
 0001:0003c058       ?isComArray@DName@@QEBAHXZ 000000018003d058 f i libvcruntime:undname.obj
 0001:0003c064       ?isEmpty@DName@@QEBAHXZ    000000018003d064 f i libvcruntime:undname.obj
 0001:0003c070       ?isFull@Replicator@@QEBAHXZ 000000018003d070 f i libvcruntime:undname.obj
 0001:0003c07c       ?isNoTE@DName@@QEBAHXZ     000000018003d07c f i libvcruntime:undname.obj
 0001:0003c088       ?isPinPtr@DName@@QEBAHXZ   000000018003d088 f i libvcruntime:undname.obj
 0001:0003c094       ?isPtrRef@DName@@QEBAHXZ   000000018003d094 f i libvcruntime:undname.obj
 0001:0003c0a0       ?isUDC@DName@@QEBAHXZ      000000018003d0a0 f i libvcruntime:undname.obj
 0001:0003c0b8       ?isUDTThunk@DName@@QEBAHXZ 000000018003d0b8 f i libvcruntime:undname.obj
 0001:0003c0d0       ?isVCallThunk@DName@@QEBAHXZ 000000018003d0d0 f i libvcruntime:undname.obj
 0001:0003c0dc       ?isValid@DName@@QEBAHXZ    000000018003d0dc f i libvcruntime:undname.obj
 0001:0003c0e8       ?length@DName@@QEBAHXZ     000000018003d0e8 f i libvcruntime:undname.obj
 0001:0003c100       ?length@DNameStatusNode@@UEBAHXZ 000000018003d100 f i libvcruntime:undname.obj
 0001:0003c104       ?length@charNode@@UEBAHXZ  000000018003d104 f i libvcruntime:undname.obj
 0001:0003c10c       ?length@pDNameNode@@UEBAHXZ 000000018003d10c f i libvcruntime:undname.obj
 0001:0003c134       ?length@pairNode@@UEBAHXZ  000000018003d134 f i libvcruntime:undname.obj
 0001:0003c17c       ?length@pcharNode@@UEBAHXZ 000000018003d17c f i libvcruntime:undname.obj
 0001:0003c180       ?make@DNameStatusNode@@SAPEBV1@W4DNameStatus@@@Z 000000018003d180 f i libvcruntime:undname.obj
 0001:0003c1a0       ?parseDecoratedName@UnDecorator@@CA?AVDName@@XZ 000000018003d1a0 f   libvcruntime:undname.obj
 0001:0003c2b4       ?raw_length@DNameStatusNode@@UEBAHXZ 000000018003d2b4 f i libvcruntime:undname.obj
 0001:0003c2b8       ?raw_length@charNode@@UEBAHXZ 000000018003d2b8 f i libvcruntime:undname.obj
 0001:0003c2c0       ?raw_length@pDNameNode@@UEBAHXZ 000000018003d2c0 f i libvcruntime:undname.obj
 0001:0003c2c4       ?raw_length@pairNode@@UEBAHXZ 000000018003d2c4 f i libvcruntime:undname.obj
 0001:0003c2c8       ?raw_length@pcharNode@@UEBAHXZ 000000018003d2c8 f i libvcruntime:undname.obj
 0001:0003c2cc       ?setIsArray@DName@@QEAAXXZ 000000018003d2cc f i libvcruntime:undname.obj
 0001:0003c2d4       ?setIsComArray@DName@@QEAAXXZ 000000018003d2d4 f i libvcruntime:undname.obj
 0001:0003c2dc       ?setIsNoTE@DName@@QEAAXXZ  000000018003d2dc f i libvcruntime:undname.obj
 0001:0003c2e4       ?setIsPinPtr@DName@@QEAAXXZ 000000018003d2e4 f i libvcruntime:undname.obj
 0001:0003c2ec       ?setIsUDC@DName@@QEAAXXZ   000000018003d2ec f i libvcruntime:undname.obj
 0001:0003c2f8       ?setIsVCallThunk@DName@@QEAAXXZ 000000018003d2f8 f i libvcruntime:undname.obj
 0001:0003c300       ?setPtrRef@DName@@QEAAAEAV1@XZ 000000018003d300 f i libvcruntime:undname.obj
 0001:0003c30c       ?status@DName@@QEBA?AW4DNameStatus@@XZ 000000018003d30c f i libvcruntime:undname.obj
 0001:0003c370       __unDName                  000000018003d370 f   libvcruntime:undname.obj
 0001:0003c398       __unDNameEx                000000018003d398 f   libvcruntime:undname.obj
 0001:0003c4cc       _vsprintf_s_l              000000018003d4cc f i libvcruntime:undname.obj
 0001:0003c530       sprintf_s                  000000018003d530 f i libvcruntime:undname.obj
 0001:0003c584       unDNameGenerateCHPE        000000018003d584 f   libvcruntime:undname.obj
 0001:0003c6a0       _NLG_Notify                000000018003d6a0 f   libvcruntime:notify.obj
 0001:0003c6c0       __NLG_Dispatch2            000000018003d6c0 f   libvcruntime:notify.obj
 0001:0003c6d0       __NLG_Return2              000000018003d6d0 f   libvcruntime:notify.obj
 0001:0003c6dc       __except_validate_context_record 000000018003d6dc f   libvcruntime:jbcxrval.obj
 0001:0003c714       __except_validate_jump_buffer 000000018003d714 f   libvcruntime:jbcxrval.obj
 0001:0003c754       __except_validate_jump_buffer_common 000000018003d754 f i libvcruntime:jbcxrval.obj
 0001:0003c7b0       ??$?RU__vcrt_ptd@@@__crt_internal_free_policy@@QEBAXQEBU__vcrt_ptd@@@Z 000000018003d7b0 f i libvcruntime:per_thread_data.obj
 0001:0003c7b8       ??0?$__crt_unique_heap_ptr@U__vcrt_ptd@@U__crt_internal_free_policy@@@@QEAA@QEAU__vcrt_ptd@@@Z 000000018003d7b8 f i libvcruntime:per_thread_data.obj
 0001:0003c7dc       ??1?$__crt_unique_heap_ptr@U__vcrt_ptd@@U__crt_internal_free_policy@@@@QEAA@XZ 000000018003d7dc f i libvcruntime:per_thread_data.obj
 0001:0003c804       ??B?$__crt_unique_heap_ptr@U__vcrt_ptd@@U__crt_internal_free_policy@@@@QEBA_NXZ 000000018003d804 f i libvcruntime:per_thread_data.obj
 0001:0003c80c       ?detach@?$__crt_unique_heap_ptr@U__vcrt_ptd@@U__crt_internal_free_policy@@@@QEAAPEAU__vcrt_ptd@@XZ 000000018003d80c f i libvcruntime:per_thread_data.obj
 0001:0003c814       ?get@?$__crt_unique_heap_ptr@U__vcrt_ptd@@U__crt_internal_free_policy@@@@QEBAPEAU__vcrt_ptd@@XZ 000000018003d814 f i libvcruntime:per_thread_data.obj
 0001:0003c818       ?is_valid@?$__crt_unique_heap_ptr@U__vcrt_ptd@@U__crt_internal_free_policy@@@@QEBA_NXZ 000000018003d818 f i libvcruntime:per_thread_data.obj
 0001:0003c820       ?release@?$__crt_unique_heap_ptr@U__vcrt_ptd@@U__crt_internal_free_policy@@@@QEAAXXZ 000000018003d820 f i libvcruntime:per_thread_data.obj
 0001:0003c868       __vcrt_freefls             000000018003d868 f   libvcruntime:per_thread_data.obj
 0001:0003c888       __vcrt_freeptd             000000018003d888 f   libvcruntime:per_thread_data.obj
 0001:0003c8d8       __vcrt_getptd              000000018003d8d8 f   libvcruntime:per_thread_data.obj
 0001:0003c8f4       __vcrt_getptd_noexit       000000018003d8f4 f   libvcruntime:per_thread_data.obj
 0001:0003c9b4       __vcrt_getptd_noinit       000000018003d9b4 f   libvcruntime:per_thread_data.obj
 0001:0003ca04       __vcrt_initialize_ptd      000000018003da04 f   libvcruntime:per_thread_data.obj
 0001:0003ca4c       __vcrt_uninitialize_ptd    000000018003da4c f   libvcruntime:per_thread_data.obj
 0001:0003ca70       __vcrt_initialize_locks    000000018003da70 f   libvcruntime:locks.obj
 0001:0003caa4       __vcrt_lock                000000018003daa4 f   libvcruntime:locks.obj
 0001:0003cac0       __vcrt_uninitialize_locks  000000018003dac0 f   libvcruntime:locks.obj
 0001:0003caf8       __vcrt_unlock              000000018003daf8 f   libvcruntime:locks.obj
 0001:0003cb14       ??$?0AEAViterator@TryBlockMap4@FH4@@AEAV012@$0A@@?$pair@Viterator@TryBlockMap4@FH4@@V123@@std@@QEAA@AEAViterator@TryBlockMap4@FH4@@0@Z 000000018003db14 f i libvcruntime:risctrnsctrl.obj
 0001:0003cb28       ??$?0AEAViterator@TryBlockMap@__FrameHandler3@@AEAV012@$0A@@?$pair@Viterator@TryBlockMap@__FrameHandler3@@V123@@std@@QEAA@AEAViterator@TryBlockMap@__FrameHandler3@@0@Z 000000018003db28 f i libvcruntime:risctrnsctrl.obj
 0001:0003cc78       ??$_CallSETranslator@V__FrameHandler3@@@@YAHPEAUEHExceptionRecord@@PEA_KPEAU_CONTEXT@@PEAU_xDISPATCHER_CONTEXT@@PEBU_s_FuncInfo@@K1H@Z 000000018003dc78 f i libvcruntime:risctrnsctrl.obj
 0001:0003cccc       ??$_CallSETranslator@V__FrameHandler4@@@@YAHPEAUEHExceptionRecord@@PEA_KPEAU_CONTEXT@@PEAU_xDISPATCHER_CONTEXT@@PEAUFuncInfo4@FH4@@K1H@Z 000000018003dccc f i libvcruntime:risctrnsctrl.obj
 0001:0003cd20       ??$forward@AEAViterator@TryBlockMap4@FH4@@@std@@YAAEAViterator@TryBlockMap4@FH4@@AEAV123@@Z 000000018003dd20 f i libvcruntime:risctrnsctrl.obj
 0001:0003cd24       ??$forward@AEAViterator@TryBlockMap@__FrameHandler3@@@std@@YAAEAViterator@TryBlockMap@__FrameHandler3@@AEAV123@@Z 000000018003dd24 f i libvcruntime:risctrnsctrl.obj
 0001:0003cd28       ??0FuncInfo4@FH4@@QEAA@XZ  000000018003dd28 f i libvcruntime:risctrnsctrl.obj
 0001:0003cd3c       ??0FuncInfoHeader@FH4@@QEAA@XZ 000000018003dd3c f i libvcruntime:risctrnsctrl.obj
 0001:0003cd44       ??0iterator@TryBlockMap4@FH4@@QEAA@AEAV12@I@Z 000000018003dd44 f i libvcruntime:risctrnsctrl.obj
 0001:0003cd50       ??0iterator@TryBlockMap@__FrameHandler3@@QEAA@AEAV12@I@Z 000000018003dd50 f i libvcruntime:risctrnsctrl.obj
 0001:0003cd5c       ??4iterator@TryBlockMap4@FH4@@QEAAAEAV012@AEBV012@@Z 000000018003dd5c f i libvcruntime:risctrnsctrl.obj
 0001:0003cd68       ??9iterator@TryBlockMap4@FH4@@QEBA_NAEBV012@@Z 000000018003dd68 f i libvcruntime:risctrnsctrl.obj
 0001:0003cd74       ??Diterator@TryBlockMap4@FH4@@QEAA?AUTryBlockMapEntry4@2@XZ 000000018003dd74 f i libvcruntime:risctrnsctrl.obj
 0001:0003cd84       ??Eiterator@TryBlockMap4@FH4@@QEAAAEAV012@XZ 000000018003dd84 f i libvcruntime:risctrnsctrl.obj
 0001:0003ce20       ?CatchTryBlock@__FrameHandler3@@SAPEBU_s_TryBlockMapEntry@@PEBU_s_FuncInfo@@H@Z 000000018003de20 f   libvcruntime:risctrnsctrl.obj
 0001:0003ce74       ?DecompFuncInfo@FH4@@YA_JPEAEAEAUFuncInfo4@1@_KH@Z 000000018003de74 f i libvcruntime:risctrnsctrl.obj
 0001:0003ce88       ?DecompFuncInfo@FH4@@YA_JPEAEAEAUFuncInfo4@1@_KH_N@Z 000000018003de88 f i libvcruntime:risctrnsctrl.obj
 0001:0003cfac       ?DecompTryBlock@TryBlockMap4@FH4@@AEAAXXZ 000000018003dfac f i libvcruntime:risctrnsctrl.obj
 0001:0003d040       ?ExecutionInCatch@__FrameHandler3@@SA_NPEAU_xDISPATCHER_CONTEXT@@PEBU_s_FuncInfo@@@Z 000000018003e040 f   libvcruntime:risctrnsctrl.obj
 0001:0003d06c       ?ExecutionInCatch@__FrameHandler4@@SA_NPEAU_xDISPATCHER_CONTEXT@@PEAUFuncInfo4@FH4@@@Z 000000018003e06c f   libvcruntime:risctrnsctrl.obj
 0001:0003d074       ?FrameUnwindToEmptyState@__FrameHandler3@@SAXPEA_KPEAU_xDISPATCHER_CONTEXT@@PEBU_s_FuncInfo@@@Z 000000018003e074 f   libvcruntime:risctrnsctrl.obj
 0001:0003d0d8       ?FrameUnwindToEmptyState@__FrameHandler4@@SAXPEA_KPEAU_xDISPATCHER_CONTEXT@@PEAUFuncInfo4@FH4@@@Z 000000018003e0d8 f   libvcruntime:risctrnsctrl.obj
 0001:0003d10c       ?GetEstablisherFrame@__FrameHandler3@@SAPEA_KPEA_KPEAU_xDISPATCHER_CONTEXT@@PEBU_s_FuncInfo@@0@Z 000000018003e10c f   libvcruntime:risctrnsctrl.obj
 0001:0003d1d8       ?GetEstablisherFrame@__FrameHandler4@@SAPEA_KPEA_KPEAU_xDISPATCHER_CONTEXT@@PEAUFuncInfo4@FH4@@0@Z 000000018003e1d8 f   libvcruntime:risctrnsctrl.obj
 0001:0003d1fc       ?GetRangeOfTrysToCheck@__FrameHandler3@@SA?AU?$pair@Viterator@TryBlockMap@__FrameHandler3@@V123@@std@@AEAVTryBlockMap@1@HPEAU_xDISPATCHER_CONTEXT@@PEBU_s_FuncInfo@@H@Z 000000018003e1fc f   libvcruntime:risctrnsctrl.obj
 0001:0003d33c       ?GetRangeOfTrysToCheck@__FrameHandler4@@SA?AU?$pair@Viterator@TryBlockMap4@FH4@@V123@@std@@AEAVTryBlockMap4@FH4@@HPEAU_xDISPATCHER_CONTEXT@@PEAUFuncInfo4@5@H@Z 000000018003e33c f   libvcruntime:risctrnsctrl.obj
 0001:0003d4a4       ?ReadInt@FH4@@YAHPEAPEAE@Z 000000018003e4a4 f i libvcruntime:risctrnsctrl.obj
 0001:0003d4b4       ?ReadUnsigned@FH4@@YAIPEAPEAE@Z 000000018003e4b4 f i libvcruntime:risctrnsctrl.obj
 0001:0003d4e4       ?UnwindNestedFrames@__FrameHandler3@@SAXPEA_KPEAUEHExceptionRecord@@PEAU_CONTEXT@@0PEAXPEBU_s_FuncInfo@@HHPEBU_s_HandlerType@@PEAU_xDISPATCHER_CONTEXT@@E@Z 000000018003e4e4 f   libvcruntime:risctrnsctrl.obj
 0001:0003d5e8       ?UnwindNestedFrames@__FrameHandler4@@SAXPEA_KPEAUEHExceptionRecord@@PEAU_CONTEXT@@0PEAXPEAUFuncInfo4@FH4@@HHPEAUHandlerType4@5@PEAU_xDISPATCHER_CONTEXT@@E@Z 000000018003e5e8 f   libvcruntime:risctrnsctrl.obj
 0001:0003d708       ?begin@TryBlockMap4@FH4@@QEAA?AViterator@12@XZ 000000018003e708 f i libvcruntime:risctrnsctrl.obj
 0001:0003d714       ?end@TryBlockMap4@FH4@@QEAA?AViterator@12@XZ 000000018003e714 f i libvcruntime:risctrnsctrl.obj
 0001:0003d720       ?imageRelToByteBuffer@FH4@@YAPEAE_KH@Z 000000018003e720 f i libvcruntime:risctrnsctrl.obj
 0001:0003d728       ?incrementToSentinel@iterator@TryBlockMap4@FH4@@QEAAXXZ 000000018003e728 f i libvcruntime:risctrnsctrl.obj
 0001:0003d72c       ?setBuffer@TryBlockMap4@FH4@@QEAAXViterator@12@@Z 000000018003e72c f i libvcruntime:risctrnsctrl.obj
 0001:0003d8ec       _CreateFrameInfo           000000018003e8ec f   libvcruntime:risctrnsctrl.obj
 0001:0003d928       _FindAndUnlinkFrame        000000018003e928 f   libvcruntime:risctrnsctrl.obj
 0001:0003d97c       _GetImageBase              000000018003e97c f   libvcruntime:risctrnsctrl.obj
 0001:0003d990       _GetThrowImageBase         000000018003e990 f   libvcruntime:risctrnsctrl.obj
 0001:0003d9a4       _SetImageBase              000000018003e9a4 f   libvcruntime:risctrnsctrl.obj
 0001:0003d9bc       _SetThrowImageBase         000000018003e9bc f   libvcruntime:risctrnsctrl.obj
 0001:0003d9d4       __CxxFrameHandler          000000018003e9d4 f   libvcruntime:risctrnsctrl.obj
 0001:0003d9dc       __CxxFrameHandler2         000000018003e9dc f   libvcruntime:risctrnsctrl.obj
 0001:0003d9e4       __CxxFrameHandler3         000000018003e9e4 f   libvcruntime:risctrnsctrl.obj
 0001:0003da6c       __CxxFrameHandler4         000000018003ea6c f   libvcruntime:risctrnsctrl.obj
 0001:0003db2c       ??$__crt_interlocked_exchange_pointer@UHINSTANCE__@@PEAU1@@@YAPEAUHINSTANCE__@@PEDSEAU0@QEAU0@@Z 000000018003eb2c f i libvcruntime:winapi_downlevel.obj
 0001:0003db34       ??$__crt_interlocked_exchange_pointer@UHINSTANCE__@@PEAX@@YAPEAUHINSTANCE__@@PEDSEAU0@QEAX@Z 000000018003eb34 f i libvcruntime:winapi_downlevel.obj
 0001:0003db3c       ??$__crt_interlocked_exchange_pointer@XPEAX@@YAPEAXPEDSEAXQEAX@Z 000000018003eb3c f i libvcruntime:winapi_downlevel.obj
 0001:0003db44       ??$__crt_interlocked_read_pointer@UHINSTANCE__@@@@YAPEAUHINSTANCE__@@PEDSEAU0@@Z 000000018003eb44 f i libvcruntime:winapi_downlevel.obj
 0001:0003db4c       ??$__crt_interlocked_read_pointer@X@@YAPEAXPEDSEAX@Z 000000018003eb4c f i libvcruntime:winapi_downlevel.obj
 0001:0003e08c       __vcrt_FlsAlloc            000000018003f08c f   libvcruntime:winapi_downlevel.obj
 0001:0003e0d4       __vcrt_FlsFree             000000018003f0d4 f   libvcruntime:winapi_downlevel.obj
 0001:0003e11c       __vcrt_FlsGetValue         000000018003f11c f   libvcruntime:winapi_downlevel.obj
 0001:0003e164       __vcrt_FlsSetValue         000000018003f164 f   libvcruntime:winapi_downlevel.obj
 0001:0003e1b8       __vcrt_InitializeCriticalSectionEx 000000018003f1b8 f   libvcruntime:winapi_downlevel.obj
 0001:0003e21c       ?GetCurrentState@__FrameHandler3@@SAHPEA_KPEAU_xDISPATCHER_CONTEXT@@PEBU_s_FuncInfo@@@Z 000000018003f21c f   libvcruntime:ehstate.obj
 0001:0003e244       ?GetUnwindTryBlock@__FrameHandler3@@SAHPEA_KPEAU_xDISPATCHER_CONTEXT@@PEBU_s_FuncInfo@@@Z 000000018003f244 f   libvcruntime:ehstate.obj
 0001:0003e270       ?SetState@__FrameHandler3@@SAXPEA_KPEBU_s_FuncInfo@@H@Z 000000018003f270 f   libvcruntime:ehstate.obj
 0001:0003e27c       ?SetUnwindTryBlock@__FrameHandler3@@SAXPEA_KPEAU_xDISPATCHER_CONTEXT@@PEBU_s_FuncInfo@@H@Z 000000018003f27c f   libvcruntime:ehstate.obj
 0001:0003e2b8       ?StateFromControlPc@__FrameHandler3@@SAHPEBU_s_FuncInfo@@PEAU_xDISPATCHER_CONTEXT@@@Z 000000018003f2b8 f   libvcruntime:ehstate.obj
 0001:0003e2c0       ?StateFromControlPc@__FrameHandler4@@SAHPEAUFuncInfo4@FH4@@PEAU_xDISPATCHER_CONTEXT@@@Z 000000018003f2c0 f   libvcruntime:ehstate.obj
 0001:0003e2c8       ?StateFromIp@__FrameHandler3@@SAHPEBU_s_FuncInfo@@PEAU_xDISPATCHER_CONTEXT@@_K@Z 000000018003f2c8 f   libvcruntime:ehstate.obj
 0001:0003e330       ?StateFromIp@__FrameHandler4@@SAHPEAUFuncInfo4@FH4@@PEAU_xDISPATCHER_CONTEXT@@_K@Z 000000018003f330 f   libvcruntime:ehstate.obj
 0001:0003e418       ?__FuncRelToRealOffset@@YA_KPEAU_xDISPATCHER_CONTEXT@@I@Z 000000018003f418 f i libvcruntime:ehstate.obj
 0001:0003e428       ?__RVAtoRealOffset@@YA_KPEAU_xDISPATCHER_CONTEXT@@H@Z 000000018003f428 f i libvcruntime:ehstate.obj
 0001:0003fa30       ??$TypeMatchHelper@V__FrameHandler3@@@@YAHPEBU_s_HandlerType@@PEBU_s_CatchableType@@PEBU_s_ThrowInfo@@@Z 0000000180040a30 f i libvcruntime:frame.obj
 0001:0003fb70       ??$TypeMatchHelper@V__FrameHandler4@@@@YAHPEAUHandlerType4@FH4@@PEBU_s_CatchableType@@PEBU_s_ThrowInfo@@@Z 0000000180040b70 f i libvcruntime:frame.obj
 0001:0003fcb4       ??$__InternalCxxFrameHandler@V__FrameHandler3@@@@YA?AW4_EXCEPTION_DISPOSITION@@PEAUEHExceptionRecord@@PEA_KPEAU_CONTEXT@@PEAU_xDISPATCHER_CONTEXT@@PEBU_s_FuncInfo@@H1E@Z 0000000180040cb4 f i libvcruntime:frame.obj
 0001:0003feec       ??$__InternalCxxFrameHandler@V__FrameHandler4@@@@YA?AW4_EXCEPTION_DISPOSITION@@PEAUEHExceptionRecord@@PEA_KPEAU_CONTEXT@@PEAU_xDISPATCHER_CONTEXT@@PEAUFuncInfo4@FH4@@H1E@Z 0000000180040eec f i libvcruntime:frame.obj
 0001:00040180       ??0HandlerMap4@FH4@@QEAA@PEBUTryBlockMapEntry4@1@_KH@Z 0000000180041180 f i libvcruntime:frame.obj
 0001:000401fc       ??0HandlerMap@__FrameHandler3@@QEAA@PEBU_s_TryBlockMapEntry@@_KI@Z 00000001800411fc f i libvcruntime:frame.obj
 0001:00040210       ??0HandlerType4@FH4@@QEAA@XZ 0000000180041210 f i libvcruntime:frame.obj
 0001:00040228       ??0TryBlockMap4@FH4@@QEAA@PEBUFuncInfo4@1@_K@Z 0000000180041228 f i libvcruntime:frame.obj
 0001:00040300       ??0TryBlockMap@__FrameHandler3@@QEAA@PEBU_s_FuncInfo@@_K@Z 0000000180041300 f i libvcruntime:frame.obj
 0001:0004030c       ??0UWMap4@FH4@@QEAA@PEBUFuncInfo4@1@_K@Z 000000018004130c f i libvcruntime:frame.obj
 0001:00040350       ??0bad_exception@std@@QEAA@AEBV01@@Z 0000000180041350 f i libvcruntime:frame.obj
 0001:0004038c       ??0bad_exception@std@@QEAA@XZ 000000018004138c f i libvcruntime:frame.obj
 0001:000403ac       ??0exception@std@@QEAA@AEBV01@@Z 00000001800413ac f i libvcruntime:frame.obj
 0001:000403e0       ??0exception@std@@QEAA@QEBDH@Z 00000001800413e0 f i libvcruntime:frame.obj
 0001:000403f8       ??0iterator@HandlerMap4@FH4@@QEAA@AEAV12@I@Z 00000001800413f8 f i libvcruntime:frame.obj
 0001:00040404       ??0iterator@HandlerMap@__FrameHandler3@@QEAA@AEAV12@I@Z 0000000180041404 f i libvcruntime:frame.obj
 0001:00040410       ??0iterator@UWMap4@FH4@@QEAA@AEAV12@PEAE@Z 0000000180041410 f i libvcruntime:frame.obj
 0001:0004041c       ??1bad_exception@std@@UEAA@XZ 000000018004141c f i libvcruntime:frame.obj
 0001:00040430       ??1exception@std@@UEAA@XZ  0000000180041430 f i libvcruntime:frame.obj
 0001:00040444       ??4iterator@UWMap4@FH4@@QEAAAEAV012@AEBV012@@Z 0000000180041444 f i libvcruntime:frame.obj
 0001:00040464       ??8iterator@HandlerMap4@FH4@@QEBA_NAEBV012@@Z 0000000180041464 f i libvcruntime:frame.obj
 0001:00040470       ??8iterator@HandlerMap@__FrameHandler3@@QEBA_NAEBV012@@Z 0000000180041470 f i libvcruntime:frame.obj
 0001:0004047c       ??8type_info@@QEBA_NAEBV0@@Z 000000018004147c f i libvcruntime:frame.obj
 0001:00040498       ??9iterator@HandlerMap4@FH4@@QEBA_NAEBV012@@Z 0000000180041498 f i libvcruntime:frame.obj
 0001:000404a4       ??9iterator@HandlerMap@__FrameHandler3@@QEBA_NAEBV012@@Z 00000001800414a4 f i libvcruntime:frame.obj
 0001:000404b0       ??Diterator@HandlerMap4@FH4@@QEAA?AUHandlerType4@2@XZ 00000001800414b0 f i libvcruntime:frame.obj
 0001:000404d0       ??Diterator@HandlerMap@__FrameHandler3@@QEAA?BU_s_HandlerType@@XZ 00000001800414d0 f i libvcruntime:frame.obj
 0001:000404f4       ??Diterator@TryBlockMap@__FrameHandler3@@QEAA?BU_s_TryBlockMapEntry@@XZ 00000001800414f4 f i libvcruntime:frame.obj
 0001:00040524       ??Diterator@UWMap4@FH4@@QEAA?AUUnwindMapEntry4@2@XZ 0000000180041524 f i libvcruntime:frame.obj
 0001:00040578       ??Eiterator@HandlerMap4@FH4@@QEAAAEAV012@XZ 0000000180041578 f i libvcruntime:frame.obj
 0001:00040598       ??Eiterator@HandlerMap@__FrameHandler3@@QEAAAEAV012@XZ 0000000180041598 f i libvcruntime:frame.obj
 0001:000405a0       ??Eiterator@TryBlockMap@__FrameHandler3@@QEAAAEAV012@XZ 00000001800415a0 f i libvcruntime:frame.obj
 0001:000405a8       ??Eiterator@UWMap4@FH4@@QEAAAEAV012@XZ 00000001800415a8 f i libvcruntime:frame.obj
 0001:000405c8       ??Giterator@UWMap4@FH4@@QEBA_JAEBV012@@Z 00000001800415c8 f i libvcruntime:frame.obj
 0001:000405d4       ??Miterator@TryBlockMap4@FH4@@QEBA_NAEBV012@@Z 00000001800415d4 f i libvcruntime:frame.obj
 0001:000405e0       ??Miterator@TryBlockMap@__FrameHandler3@@QEBA_NAEBV012@@Z 00000001800415e0 f i libvcruntime:frame.obj
 0001:000405ec       ??Oiterator@UWMap4@FH4@@QEBA_NAEBV012@@Z 00000001800415ec f i libvcruntime:frame.obj
 0001:000405f8       ??Piterator@UWMap4@FH4@@QEBA_NAEBV012@@Z 00000001800415f8 f i libvcruntime:frame.obj
 0001:00040604       ??_Gbad_exception@std@@UEAAPEAXI@Z 0000000180041604 f i libvcruntime:frame.obj
 0001:00040604       ??_Ebad_exception@std@@UEAAPEAXI@Z 0000000180041604 f i libvcruntime:frame.obj
 0001:00040648       ??_Gexception@std@@UEAAPEAXI@Z 0000000180041648 f i libvcruntime:frame.obj
 0001:00040648       ??_Eexception@std@@UEAAPEAXI@Z 0000000180041648 f i libvcruntime:frame.obj
 0001:0004068c       ?BuildCatchObject@__FrameHandler3@@SAXPEAUEHExceptionRecord@@PEAXPEBU_s_HandlerType@@PEBU_s_CatchableType@@@Z 000000018004168c f   libvcruntime:frame.obj
 0001:00040694       ?BuildCatchObject@__FrameHandler4@@SAXPEAUEHExceptionRecord@@PEAXPEAUHandlerType4@FH4@@PEBU_s_CatchableType@@@Z 0000000180041694 f   libvcruntime:frame.obj
 0001:0004069c       ?BuildCatchObjectHelper@__FrameHandler3@@SAHPEAUEHExceptionRecord@@PEAXPEBU_s_HandlerType@@PEBU_s_CatchableType@@@Z 000000018004169c f   libvcruntime:frame.obj
 0001:000406a4       ?BuildCatchObjectHelper@__FrameHandler4@@SAHPEAUEHExceptionRecord@@PEAXPEAUHandlerType4@FH4@@PEBU_s_CatchableType@@@Z 00000001800416a4 f   libvcruntime:frame.obj
 0001:000406ac       ?CxxCallCatchBlock@__FrameHandler3@@SAPEAXPEAU_EXCEPTION_RECORD@@@Z 00000001800416ac f   libvcruntime:frame.obj
 0001:00040898       ?CxxCallCatchBlock@__FrameHandler4@@SAPEAXPEAU_EXCEPTION_RECORD@@@Z 0000000180041898 f   libvcruntime:frame.obj
 0001:00040ae8       ?DecompHandler@HandlerMap4@FH4@@AEAAXXZ 0000000180041ae8 f i libvcruntime:frame.obj
 0001:00040d28       ?FrameUnwindToState@__FrameHandler3@@SAXPEA_KPEAU_xDISPATCHER_CONTEXT@@PEBU_s_FuncInfo@@H@Z 0000000180041d28 f   libvcruntime:frame.obj
 0001:00040eb4       ?FrameUnwindToState@__FrameHandler4@@SAXPEA_KPEAU_xDISPATCHER_CONTEXT@@PEAUFuncInfo4@FH4@@H@Z 0000000180041eb4 f   libvcruntime:frame.obj
 0001:0004119c       ?GetHandlerSearchState@__FrameHandler3@@SAHPEA_KPEAU_xDISPATCHER_CONTEXT@@PEBU_s_FuncInfo@@@Z 000000018004219c f i libvcruntime:frame.obj
 0001:00041234       ?GetHandlerSearchState@__FrameHandler4@@SAHPEA_KPEAU_xDISPATCHER_CONTEXT@@PEAUFuncInfo4@FH4@@@Z 0000000180042234 f i libvcruntime:frame.obj
 0001:00041298       ?GetMaxState@__FrameHandler3@@SAHPEAU_xDISPATCHER_CONTEXT@@PEBU_s_FuncInfo@@@Z 0000000180042298 f i libvcruntime:frame.obj
 0001:0004129c       ?GetMaxState@__FrameHandler4@@SAHPEAU_xDISPATCHER_CONTEXT@@PEAUFuncInfo4@FH4@@@Z 000000018004229c f i libvcruntime:frame.obj
 0001:0004144c       ?ReadEntry@UWMap4@FH4@@AEAAXPEAPEAE@Z 000000018004244c f i libvcruntime:frame.obj
 0001:000414ec       ?TypeMatch@__FrameHandler3@@SAHPEBU_s_HandlerType@@PEBU_s_CatchableType@@PEBU_s_ThrowInfo@@@Z 00000001800424ec f   libvcruntime:frame.obj
 0001:000414f4       ?TypeMatch@__FrameHandler4@@SAHPEAUHandlerType4@FH4@@PEBU_s_CatchableType@@PEBU_s_ThrowInfo@@@Z 00000001800424f4 f   libvcruntime:frame.obj
 0001:000414fc       ?WalkBack@UWMap4@FH4@@AEAAXPEAPEAE@Z 00000001800424fc f i libvcruntime:frame.obj
 0001:00041534       ?WalkBack@iterator@UWMap4@FH4@@QEAAXXZ 0000000180042534 f i libvcruntime:frame.obj
 0001:00041574       ?WalkForward@UWMap4@FH4@@AEAAXPEAPEAE@Z 0000000180042574 f i libvcruntime:frame.obj
 0001:0004157c       ?_CallMemberFunction1@@YAXQEAX00@Z 000000018004257c f i libvcruntime:frame.obj
 0001:00041588       ?_CallMemberFunction2@@YAXQEAX00H@Z 0000000180042588 f i libvcruntime:frame.obj
 0001:000415ac       ?begin@HandlerMap4@FH4@@QEAA?AViterator@12@XZ 00000001800425ac f i libvcruntime:frame.obj
 0001:000415b8       ?begin@HandlerMap@__FrameHandler3@@QEAA?AViterator@12@XZ 00000001800425b8 f i libvcruntime:frame.obj
 0001:000415c4       ?begin@UWMap4@FH4@@QEAA?AViterator@12@XZ 00000001800425c4 f i libvcruntime:frame.obj
 0001:000415d4       ?end@HandlerMap4@FH4@@QEAA?AViterator@12@XZ 00000001800425d4 f i libvcruntime:frame.obj
 0001:000415e0       ?end@HandlerMap@__FrameHandler3@@QEAA?AViterator@12@XZ 00000001800425e0 f i libvcruntime:frame.obj
 0001:000415ec       ?getESTypes@__FrameHandler3@@SAPEBU_s_ESTypeList@@PEBU_s_FuncInfo@@@Z 00000001800425ec f i libvcruntime:frame.obj
 0001:00041614       ?getESTypes@__FrameHandler4@@SAPEBU_s_ESTypeList@@PEAUFuncInfo4@FH4@@@Z 0000000180042614 f i libvcruntime:frame.obj
 0001:00041618       ?getLastEntry@HandlerMap4@FH4@@QEAAPEAUHandlerType4@2@XZ 0000000180042618 f i libvcruntime:frame.obj
 0001:00041668       ?getLastEntry@HandlerMap@__FrameHandler3@@QEAAPEBU_s_HandlerType@@XZ 0000000180042668 f i libvcruntime:frame.obj
 0001:0004167c       ?getMagicNum@__FrameHandler3@@SAIPEBU_s_FuncInfo@@@Z 000000018004267c f i libvcruntime:frame.obj
 0001:00041684       ?getMagicNum@__FrameHandler4@@SAIPEAUFuncInfo4@FH4@@@Z 0000000180042684 f i libvcruntime:frame.obj
 0001:0004168c       ?getNumTryBlocks@TryBlockMap4@FH4@@QEAAIXZ 000000018004268c f i libvcruntime:frame.obj
 0001:00041690       ?getNumTryBlocks@TryBlockMap@__FrameHandler3@@QEAAIXZ 0000000180042690 f i libvcruntime:frame.obj
 0001:00041698       ?getStartStop@UWMap4@FH4@@QEAAXHHAEAViterator@12@0@Z 0000000180042698 f i libvcruntime:frame.obj
 0001:00041768       ?getStateFromIterators@UWMap4@FH4@@SAHAEBViterator@12@H0H0@Z 0000000180042768 f i libvcruntime:frame.obj
 0001:00041830       ?isEHs@__FrameHandler3@@SA_NPEBU_s_FuncInfo@@@Z 0000000180042830 f i libvcruntime:frame.obj
 0001:00041838       ?isEHs@__FrameHandler4@@SA_NPEAUFuncInfo4@FH4@@@Z 0000000180042838 f i libvcruntime:frame.obj
 0001:00041840       ?isNoExcept@__FrameHandler3@@SA_NPEBU_s_FuncInfo@@@Z 0000000180042840 f i libvcruntime:frame.obj
 0001:0004184c       ?isNoExcept@__FrameHandler4@@SA_NPEAUFuncInfo4@FH4@@@Z 000000018004284c f i libvcruntime:frame.obj
 0001:00041854       ?reset@HandlerType4@FH4@@QEAAXXZ 0000000180042854 f i libvcruntime:frame.obj
 0001:00041868       ?resetBuffer@HandlerMap4@FH4@@QEAAXXZ 0000000180042868 f i libvcruntime:frame.obj
 0001:00041878       ?setBuffer@HandlerMap4@FH4@@QEAAXI@Z 0000000180042878 f i libvcruntime:frame.obj
 0001:000418b4       ?what@exception@std@@UEBAPEBDXZ 00000001800428b4 f i libvcruntime:frame.obj
 0001:000418c8       __BuildCatchObject         00000001800428c8 f   libvcruntime:frame.obj
 0001:000418d0       __BuildCatchObjectHelper   00000001800428d0 f   libvcruntime:frame.obj
 0001:000418d8       __TypeMatch                00000001800428d8 f   libvcruntime:frame.obj
 0001:000418e0       __vcrt_EncodePointer       00000001800428e0 f i libvcruntime:frame.obj
 0001:00041900       _CallSettingFrame          0000000180042900 f   libvcruntime:handlers.obj
 0001:00041950       _CallSettingFrame_LookupContinuationIndex 0000000180042950 f   libvcruntime:handlers.obj
 0001:00041980       _CallSettingFrame_NotifyContinuationAddr 0000000180042980 f   libvcruntime:handlers.obj
 0001:000419b0       _CallSettingFrameEncoded   00000001800429b0 f   libvcruntime:handlers.obj
 0001:000419f8       ??$?RD@__crt_public_free_policy@@QEBAXQEBD@Z 00000001800429f8 f i libvcruntime:std_exception.obj
 0001:00041a00       ??0?$__crt_unique_heap_ptr@DU__crt_public_free_policy@@@@QEAA@QEAD@Z 0000000180042a00 f i libvcruntime:std_exception.obj
 0001:00041a08       ??1?$__crt_unique_heap_ptr@DU__crt_public_free_policy@@@@QEAA@XZ 0000000180042a08 f i libvcruntime:std_exception.obj
 0001:00041a24       ??B?$__crt_unique_heap_ptr@DU__crt_public_free_policy@@@@QEBA_NXZ 0000000180042a24 f i libvcruntime:std_exception.obj
 0001:00041a2c       ?detach@?$__crt_unique_heap_ptr@DU__crt_public_free_policy@@@@QEAAPEADXZ 0000000180042a2c f i libvcruntime:std_exception.obj
 0001:00041a34       ?get@?$__crt_unique_heap_ptr@DU__crt_public_free_policy@@@@QEBAPEADXZ 0000000180042a34 f i libvcruntime:std_exception.obj
 0001:00041a38       ?is_valid@?$__crt_unique_heap_ptr@DU__crt_public_free_policy@@@@QEBA_NXZ 0000000180042a38 f i libvcruntime:std_exception.obj
 0001:00041a40       ?release@?$__crt_unique_heap_ptr@DU__crt_public_free_policy@@@@QEAAXXZ 0000000180042a40 f i libvcruntime:std_exception.obj
 0001:00041a5c       __std_exception_copy       0000000180042a5c f   libvcruntime:std_exception.obj
 0001:00041aec       __std_exception_destroy    0000000180042aec f   libvcruntime:std_exception.obj
 0001:00041b14       _CxxThrowException         0000000180042b14 f   libvcruntime:throw.obj
 0001:00041bc0       cosf                       0000000180042bc0 f   libucrt:cosf.obj
 0001:000420c0       sinf                       00000001800430c0 f   libucrt:sinf.obj
 0001:000427b8       _fpclass                   00000001800437b8 f   libucrt:ieeemisc.obj
 0001:00042840       _fpclassf                  0000000180043840 f   libucrt:ieeemisc.obj
 0001:000428ac       _isnan                     00000001800438ac f   libucrt:ieeemisc.obj
 0001:000428d8       _isnanf                    00000001800438d8 f   libucrt:ieeemisc.obj
 0001:000428f4       _nextafter                 00000001800438f4 f   libucrt:ieeemisc.obj
 0001:000428fc       _nextafterf                00000001800438fc f   libucrt:ieeemisc.obj
 0001:00042904       _scalb                     0000000180043904 f   libucrt:ieeemisc.obj
 0001:00042ab0       _scalbf                    0000000180043ab0 f   libucrt:ieeemisc.obj
 0001:00042c50       atan2f                     0000000180043c50 f   libucrt:atan2f.obj
 0001:00043190       _initterm                  0000000180044190 f   libucrt:initterm.obj
 0001:000431f4       _initterm_e                00000001800441f4 f   libucrt:initterm.obj
 0001:00043234       free                       0000000180044234 f   libucrt:free.obj
 0001:00043268       _seh_filter_dll            0000000180044268 f   libucrt:exception_filter.obj
 0001:0004327c       _seh_filter_exe            000000018004427c f   libucrt:exception_filter.obj
 0001:00043400       ??$?B$$A6AXPEAXK0@Z@__crt_fast_encoded_nullptr_t@@QEBAP6AXPEAXK0@ZXZ 0000000180044400 f i libucrt:exit.obj
 0001:00043468       ??$__crt_fast_decode_pointer@P6AXPEAXK0@Z@@YAP6AXPEAXK0@ZQ6AX0K0@Z@Z 0000000180044468 f i libucrt:exit.obj
 0001:00043480       ??$__crt_fast_encode_pointer@P6AXPEAXK0@Z@@YAP6AXPEAXK0@ZQ6AX0K0@Z@Z 0000000180044480 f i libucrt:exit.obj
 0001:000434a0       ??$__crt_get_proc_address@P6AXI@Z@@YAP6AXI@ZQEAUHINSTANCE__@@QEBD@Z 00000001800444a0 f i libucrt:exit.obj
 0001:000434a8       ??$__crt_interlocked_read@J@@YAJPEDJ@Z 00000001800444a8 f i libucrt:exit.obj
 0001:000434cc       ??0?$__crt_unique_handle_t@U__crt_hmodule_traits@@@@QEAA@QEAUHINSTANCE__@@@Z 00000001800444cc f i libucrt:exit.obj
 0001:000434d4       ??1?$__crt_unique_handle_t@U__crt_hmodule_traits@@@@QEAA@XZ 00000001800444d4 f i libucrt:exit.obj
 0001:000435cc       ?__acrt_select_exit_lock@@YA?AW4__acrt_lock_id@@XZ 00000001800445cc f i libucrt:exit.obj
 0001:000435d4       ?__crt_fast_encode_pointer@@YA?AU__crt_fast_encoded_nullptr_t@@$$T@Z 00000001800445d4 f i libucrt:exit.obj
 0001:000435dc       ?__crt_interlocked_read_32@@YAHPEDH@Z 00000001800445dc f i libucrt:exit.obj
 0001:000435e0       ?__crt_rotate_pointer_value@@YA_K_KH@Z 00000001800445e0 f i libucrt:exit.obj
 0001:000435f8       ?close@?$__crt_unique_handle_t@U__crt_hmodule_traits@@@@QEAAXXZ 00000001800445f8 f i libucrt:exit.obj
 0001:0004361c       ?close@__crt_hmodule_traits@@SA_NPEAUHINSTANCE__@@@Z 000000018004461c f i libucrt:exit.obj
 0001:00043738       ?get@?$__crt_unique_handle_t@U__crt_hmodule_traits@@@@QEBAPEAUHINSTANCE__@@XZ 0000000180044738 f i libucrt:exit.obj
 0001:0004373c       ?get_address_of@?$__crt_unique_handle_t@U__crt_hmodule_traits@@@@QEAAPEAPEAUHINSTANCE__@@XZ 000000018004473c f i libucrt:exit.obj
 0001:00043740       ?get_invalid_value@__crt_hmodule_traits@@SAPEAUHINSTANCE__@@XZ 0000000180044740 f i libucrt:exit.obj
 0001:00043824       _Exit                      0000000180044824 f   libucrt:exit.obj
 0001:00043830       __acrt_initialize_thread_local_exit_callback 0000000180044830 f   libucrt:exit.obj
 0001:00043838       _c_exit                    0000000180044838 f   libucrt:exit.obj
 0001:00043848       _cexit                     0000000180044848 f   libucrt:exit.obj
 0001:00043858       _exit                      0000000180044858 f   libucrt:exit.obj
 0001:00043864       _is_c_termination_complete 0000000180044864 f   libucrt:exit.obj
 0001:0004386c       _register_thread_local_exe_atexit_callback 000000018004486c f   libucrt:exit.obj
 0001:000438a8       exit                       00000001800448a8 f   libucrt:exit.obj
 0001:000438b4       quick_exit                 00000001800448b4 f   libucrt:exit.obj
 0001:000438c0       ??$?RE@__crt_internal_free_policy@@QEBAXQEBE@Z 00000001800448c0 f i libucrt:argv_parsing.obj
 0001:000438c8       ??$?RPEAD@__crt_internal_free_policy@@QEBAXQEBQEAD@Z 00000001800448c8 f i libucrt:argv_parsing.obj
 0001:000438d0       ??$?RPEA_W@__crt_internal_free_policy@@QEBAXQEBQEA_W@Z 00000001800448d0 f i libucrt:argv_parsing.obj
 0001:00043bc4       ??$get_module_file_name@$$TAEAY0BAF@DH@?$__crt_char_traits@D@@SAK$$QEA$$TAEAY0BAF@D$$QEAH@Z 0000000180044bc4 f i libucrt:argv_parsing.obj
 0001:00043bd0       ??$get_module_file_name@$$TAEAY0BAF@_WH@?$__crt_char_traits@_W@@SAK$$QEA$$TAEAY0BAF@_W$$QEAH@Z 0000000180044bd0 f i libucrt:argv_parsing.obj
 0001:00043f40       ??$set_program_name@PEAD@?$__crt_char_traits@D@@SAX$$QEAPEAD@Z 0000000180044f40 f i libucrt:argv_parsing.obj
 0001:00043f4c       ??$set_program_name@PEA_W@?$__crt_char_traits@_W@@SAX$$QEAPEA_W@Z 0000000180044f4c f i libucrt:argv_parsing.obj
 0001:00043f68       ??0?$__crt_unique_heap_ptr@EU__crt_internal_free_policy@@@@QEAA@QEAE@Z 0000000180044f68 f i libucrt:argv_parsing.obj
 0001:00043f70       ??0?$__crt_unique_heap_ptr@PEADU__crt_internal_free_policy@@@@QEAA@QEAPEAD@Z 0000000180044f70 f i libucrt:argv_parsing.obj
 0001:00043f78       ??0?$__crt_unique_heap_ptr@PEA_WU__crt_internal_free_policy@@@@QEAA@QEAPEA_W@Z 0000000180044f78 f i libucrt:argv_parsing.obj
 0001:00043f80       ??1?$__crt_unique_heap_ptr@EU__crt_internal_free_policy@@@@QEAA@XZ 0000000180044f80 f i libucrt:argv_parsing.obj
 0001:00043f9c       ??1?$__crt_unique_heap_ptr@PEADU__crt_internal_free_policy@@@@QEAA@XZ 0000000180044f9c f i libucrt:argv_parsing.obj
 0001:00043fb8       ??1?$__crt_unique_heap_ptr@PEA_WU__crt_internal_free_policy@@@@QEAA@XZ 0000000180044fb8 f i libucrt:argv_parsing.obj
 0001:00043fd4       ??B?$__crt_unique_heap_ptr@EU__crt_internal_free_policy@@@@QEBA_NXZ 0000000180044fd4 f i libucrt:argv_parsing.obj
 0001:00044014       ?detach@?$__crt_unique_heap_ptr@EU__crt_internal_free_policy@@@@QEAAPEAEXZ 0000000180045014 f i libucrt:argv_parsing.obj
 0001:0004401c       ?detach@?$__crt_unique_heap_ptr@PEADU__crt_internal_free_policy@@@@QEAAPEAPEADXZ 000000018004501c f i libucrt:argv_parsing.obj
 0001:00044024       ?detach@?$__crt_unique_heap_ptr@PEA_WU__crt_internal_free_policy@@@@QEAAPEAPEA_WXZ 0000000180045024 f i libucrt:argv_parsing.obj
 0001:00044048       ?get@?$__crt_unique_heap_ptr@EU__crt_internal_free_policy@@@@QEBAPEAEXZ 0000000180045048 f i libucrt:argv_parsing.obj
 0001:0004404c       ?get@?$__crt_unique_heap_ptr@PEADU__crt_internal_free_policy@@@@QEBAPEAPEADXZ 000000018004504c f i libucrt:argv_parsing.obj
 0001:00044050       ?get@?$__crt_unique_heap_ptr@PEA_WU__crt_internal_free_policy@@@@QEBAPEAPEA_WXZ 0000000180045050 f i libucrt:argv_parsing.obj
 0001:00044054       ?get_address_of@?$__crt_unique_heap_ptr@PEADU__crt_internal_free_policy@@@@QEAAPEAPEAPEADXZ 0000000180045054 f i libucrt:argv_parsing.obj
 0001:00044058       ?get_address_of@?$__crt_unique_heap_ptr@PEA_WU__crt_internal_free_policy@@@@QEAAPEAPEAPEA_WXZ 0000000180045058 f i libucrt:argv_parsing.obj
 0001:0004407c       ?is_valid@?$__crt_unique_heap_ptr@EU__crt_internal_free_policy@@@@QEBA_NXZ 000000018004507c f i libucrt:argv_parsing.obj
 0001:00044084       ?release@?$__crt_unique_heap_ptr@EU__crt_internal_free_policy@@@@QEAAXXZ 0000000180045084 f i libucrt:argv_parsing.obj
 0001:000440a0       ?release@?$__crt_unique_heap_ptr@PEADU__crt_internal_free_policy@@@@QEAAXXZ 00000001800450a0 f i libucrt:argv_parsing.obj
 0001:000440bc       ?release@?$__crt_unique_heap_ptr@PEA_WU__crt_internal_free_policy@@@@QEAAXXZ 00000001800450bc f i libucrt:argv_parsing.obj
 0001:000440f4       __acrt_allocate_buffer_for_argv 00000001800450f4 f   libucrt:argv_parsing.obj
 0001:00044154       _configure_narrow_argv     0000000180045154 f   libucrt:argv_parsing.obj
 0001:000442dc       _configure_wide_argv       00000001800452dc f   libucrt:argv_parsing.obj
 0001:00044460       _set_pgmptr                0000000180045460 f i libucrt:argv_parsing.obj
 0001:00044468       _set_wpgmptr               0000000180045468 f i libucrt:argv_parsing.obj
 0001:00044470       ??$?R_W@__crt_internal_free_policy@@QEBAXQEB_W@Z 0000000180045470 f i libucrt:environment_initialization.obj
 0001:00044978       ??$get_environment_from_os@$$V@?$__crt_char_traits@D@@SAPEADXZ 0000000180045978 f i libucrt:environment_initialization.obj
 0001:00044980       ??$get_environment_from_os@$$V@?$__crt_char_traits@_W@@SAPEA_WXZ 0000000180045980 f i libucrt:environment_initialization.obj
 0001:00044b10       ??$set_variable_in_environment_nolock@PEADH@?$__crt_char_traits@D@@SAH$$QEAPEAD$$QEAH@Z 0000000180045b10 f i libucrt:environment_initialization.obj
 0001:00044b1c       ??$set_variable_in_environment_nolock@PEA_WH@?$__crt_char_traits@_W@@SAH$$QEAPEA_W$$QEAH@Z 0000000180045b1c f i libucrt:environment_initialization.obj
 0001:00044b28       ??$tcscpy_s@PEADAEB_KAEAPEAD@?$__crt_char_traits@D@@SAH$$QEAPEADAEB_KAEAPEAD@Z 0000000180045b28 f i libucrt:environment_initialization.obj
 0001:00044b38       ??$tcscpy_s@PEA_WAEB_KAEAPEA_W@?$__crt_char_traits@_W@@SAH$$QEAPEA_WAEB_KAEAPEA_W@Z 0000000180045b38 f i libucrt:environment_initialization.obj
 0001:00044b48       ??$tcslen@AEAPEAD@?$__crt_char_traits@D@@SA_KAEAPEAD@Z 0000000180045b48 f i libucrt:environment_initialization.obj
 0001:00044b5c       ??$tcslen@AEAPEA_W@?$__crt_char_traits@_W@@SA_KAEAPEA_W@Z 0000000180045b5c f i libucrt:environment_initialization.obj
 0001:00044b70       ??$uninitialize@A6AXAEAPEAPEAD@Z@?$dual_state_global@PEAPEAD@__crt_state_management@@QEAAXA6AXAEAPEAPEAD@Z@Z 0000000180045b70 f i libucrt:environment_initialization.obj
 0001:00044bb4       ??$uninitialize@A6AXAEAPEAPEA_W@Z@?$dual_state_global@PEAPEA_W@__crt_state_management@@QEAAXA6AXAEAPEAPEA_W@Z@Z 0000000180045bb4 f i libucrt:environment_initialization.obj
 0001:00044c30       ??0?$__crt_unique_heap_ptr@_WU__crt_internal_free_policy@@@@QEAA@QEA_W@Z 0000000180045c30 f i libucrt:environment_initialization.obj
 0001:00044c38       ??1?$__crt_unique_heap_ptr@_WU__crt_internal_free_policy@@@@QEAA@XZ 0000000180045c38 f i libucrt:environment_initialization.obj
 0001:00044c54       ??B?$__crt_unique_heap_ptr@PEADU__crt_internal_free_policy@@@@QEBA_NXZ 0000000180045c54 f i libucrt:environment_initialization.obj
 0001:00044c5c       ??B?$__crt_unique_heap_ptr@PEA_WU__crt_internal_free_policy@@@@QEBA_NXZ 0000000180045c5c f i libucrt:environment_initialization.obj
 0001:00044c64       ??B?$__crt_unique_heap_ptr@_WU__crt_internal_free_policy@@@@QEBA_NXZ 0000000180045c64 f i libucrt:environment_initialization.obj
 0001:00044c6c       ?__crt_compute_required_transform_buffer_count@@YA_KIQEBD@Z 0000000180045c6c f i libucrt:environment_initialization.obj
 0001:00044c90       ?__crt_compute_required_transform_buffer_count@@YA_KIQEB_W@Z 0000000180045c90 f i libucrt:environment_initialization.obj
 0001:00044cc0       ?__crt_transform_string@@YA_KIQEBDQEA_W_K@Z 0000000180045cc0 f i libucrt:environment_initialization.obj
 0001:00044ce4       ?__crt_transform_string@@YA_KIQEB_WQEAD_K@Z 0000000180045ce4 f i libucrt:environment_initialization.obj
 0001:00044d14       ?detach@?$__crt_unique_heap_ptr@DU__crt_internal_free_policy@@@@QEAAPEADXZ 0000000180045d14 f i libucrt:environment_initialization.obj
 0001:00044d1c       ?detach@?$__crt_unique_heap_ptr@_WU__crt_internal_free_policy@@@@QEAAPEA_WXZ 0000000180045d1c f i libucrt:environment_initialization.obj
 0001:00044d24       ?get@?$__crt_unique_heap_ptr@_WU__crt_internal_free_policy@@@@QEBAPEA_WXZ 0000000180045d24 f i libucrt:environment_initialization.obj
 0001:00044d28       ?get_current_state_index@__crt_state_management@@YA_KXZ 0000000180045d28 f i libucrt:environment_initialization.obj
 0001:00044d5c       ?initialize@?$dual_state_global@PEAPEAD@__crt_state_management@@QEAAXQEAPEAD@Z 0000000180045d5c f i libucrt:environment_initialization.obj
 0001:00044d84       ?initialize@?$dual_state_global@PEAPEA_W@__crt_state_management@@QEAAXQEAPEA_W@Z 0000000180045d84 f i libucrt:environment_initialization.obj
 0001:00044dac       ?is_valid@?$__crt_unique_heap_ptr@PEADU__crt_internal_free_policy@@@@QEBA_NXZ 0000000180045dac f i libucrt:environment_initialization.obj
 0001:00044db4       ?is_valid@?$__crt_unique_heap_ptr@PEA_WU__crt_internal_free_policy@@@@QEBA_NXZ 0000000180045db4 f i libucrt:environment_initialization.obj
 0001:00044dbc       ?is_valid@?$__crt_unique_heap_ptr@_WU__crt_internal_free_policy@@@@QEBA_NXZ 0000000180045dbc f i libucrt:environment_initialization.obj
 0001:00044dd0       ?release@?$__crt_unique_heap_ptr@_WU__crt_internal_free_policy@@@@QEAAXXZ 0000000180045dd0 f i libucrt:environment_initialization.obj
 0001:00044dec       ?value@?$dual_state_global@PEAPEAD@__crt_state_management@@QEAAAEAPEAPEADXZ 0000000180045dec f i libucrt:environment_initialization.obj
 0001:00044df0       ?value@?$dual_state_global@PEAPEA_W@__crt_state_management@@QEAAAEAPEAPEA_WXZ 0000000180045df0 f i libucrt:environment_initialization.obj
 0001:00044df4       __dcrt_get_or_create_narrow_environment_nolock 0000000180045df4 f   libucrt:environment_initialization.obj
 0001:00044e30       __dcrt_get_or_create_wide_environment_nolock 0000000180045e30 f   libucrt:environment_initialization.obj
 0001:00044e6c       __dcrt_uninitialize_environments_nolock 0000000180045e6c f   libucrt:environment_initialization.obj
 0001:00044ea4       __p__environ               0000000180045ea4 f   libucrt:environment_initialization.obj
 0001:00044eac       __p__wenviron              0000000180045eac f   libucrt:environment_initialization.obj
 0001:00044eb4       _get_initial_narrow_environment 0000000180045eb4 f   libucrt:environment_initialization.obj
 0001:00044f04       _get_initial_wide_environment 0000000180045f04 f   libucrt:environment_initialization.obj
 0001:00044f54       _initialize_narrow_environment 0000000180045f54 f   libucrt:environment_initialization.obj
 0001:00044f5c       _initialize_wide_environment 0000000180045f5c f   libucrt:environment_initialization.obj
 0001:00044f64       _invoke_watson_if_error    0000000180045f64 f i libucrt:environment_initialization.obj
 0001:00044f98       ??$?B$$A6AXXZ@__crt_fast_encoded_nullptr_t@@QEBAP6AXXZXZ 0000000180045f98 f i libucrt:onexit.obj
 0001:00044fa0       ??$?BP6AXXZ@__crt_fast_encoded_nullptr_t@@QEBAPEAP6AXXZXZ 0000000180045fa0 f i libucrt:onexit.obj
 0001:00044fa8       ??$?RP6AXXZ@__crt_internal_free_policy@@QEBAXQEBQ6AXXZ@Z 0000000180045fa8 f i libucrt:onexit.obj
 0001:00045078       ??$__crt_fast_decode_pointer@P6AXXZ@@YAP6AXXZQ6AXXZ@Z 0000000180046078 f i libucrt:onexit.obj
 0001:00045090       ??$__crt_fast_decode_pointer@PEAP6AXXZ@@YAPEAP6AXXZQEAP6AXXZ@Z 0000000180046090 f i libucrt:onexit.obj
 0001:000450a8       ??$__crt_fast_encode_pointer@P6AHXZ@@YAP6AHXZQ6AHXZ@Z 00000001800460a8 f i libucrt:onexit.obj
 0001:000450c8       ??$__crt_fast_encode_pointer@P6AXXZ@@YAP6AXXZQ6AXXZ@Z 00000001800460c8 f i libucrt:onexit.obj
 0001:000450e8       ??$__crt_fast_encode_pointer@PEAP6AXXZ@@YAPEAP6AXXZQEAP6AXXZ@Z 00000001800460e8 f i libucrt:onexit.obj
 0001:0004513c       ??0?$__crt_unique_heap_ptr@P6AXXZU__crt_internal_free_policy@@@@QEAA@QEAP6AXXZ@Z 000000018004613c f i libucrt:onexit.obj
 0001:00045144       ??1?$__crt_unique_heap_ptr@P6AXXZU__crt_internal_free_policy@@@@QEAA@XZ 0000000180046144 f i libucrt:onexit.obj
 0001:00045160       ??1scoped_global_state_reset@__crt_state_management@@QEAA@XZ 0000000180046160 f i libucrt:onexit.obj
 0001:0004544c       ?detach@?$__crt_unique_heap_ptr@P6AXXZU__crt_internal_free_policy@@@@QEAAPEAP6AXXZXZ 000000018004644c f i libucrt:onexit.obj
 0001:00045454       ?release@?$__crt_unique_heap_ptr@P6AXXZU__crt_internal_free_policy@@@@QEAAXXZ 0000000180046454 f i libucrt:onexit.obj
 0001:00045470       _crt_at_quick_exit         0000000180046470 f   libucrt:onexit.obj
 0001:00045480       _crt_atexit                0000000180046480 f   libucrt:onexit.obj
 0001:00045490       _execute_onexit_table      0000000180046490 f   libucrt:onexit.obj
 0001:000454cc       _initialize_onexit_table   00000001800464cc f   libucrt:onexit.obj
 0001:000454f4       _register_onexit_function  00000001800464f4 f   libucrt:onexit.obj
 0001:0004567c       ??$?BX@__crt_fast_encoded_nullptr_t@@QEBAPEAXXZ 000000018004667c f i libucrt:initialization.obj
 0001:00045684       ??$__crt_fast_encode_pointer@PEAX@@YAPEAXQEAX@Z 0000000180046684 f i libucrt:initialization.obj
 0001:00045754       ?__acrt_stdio_is_initialized@@YA_NXZ 0000000180046754 f i libucrt:initialization.obj
 0001:00045760       ?initialize@?$dual_state_global@PEAU__crt_locale_data@@@__crt_state_management@@QEAAXQEAU__crt_locale_data@@@Z 0000000180046760 f i libucrt:initialization.obj
 0001:00045788       __acrt_initialize          0000000180046788 f   libucrt:initialization.obj
 0001:0004579c       __acrt_thread_attach       000000018004679c f   libucrt:initialization.obj
 0001:000457b0       __acrt_thread_detach       00000001800467b0 f   libucrt:initialization.obj
 0001:000457c0       __acrt_uninitialize        00000001800467c0 f   libucrt:initialization.obj
 0001:000457f8       __acrt_uninitialize_critical 00000001800467f8 f   libucrt:initialization.obj
 0001:0004581c       _get_terminate             000000018004681c f   libucrt:terminate.obj
 0001:00045840       set_terminate              0000000180046840 f   libucrt:terminate.obj
 0001:0004586c       terminate                  000000018004686c f   libucrt:terminate.obj
 0001:0004588c       malloc                     000000018004688c f   libucrt:malloc.obj
 0001:000458f8       strcpy_s                   00000001800468f8 f   libucrt:strcpy_s.obj
 0001:00045958       _set_abort_behavior        0000000180046958 f   libucrt:abort.obj
 0001:00045974       abort                      0000000180046974 f   libucrt:abort.obj
 0001:000459cc       ??$?0AEBV?$stream_output_adapter@D@__crt_stdio_output@@AEB_KAEBQEBDAEBQEAU__crt_locale_pointers@@AEBQEAD@?$format_validation_base@DV?$stream_output_adapter@D@__crt_stdio_output@@@__crt_stdio_output@@IEAA@AEBV?$stream_output_adapter@D@1@AEB_KAEBQEBDAEBQEAU__crt_locale_pointers@@AEBQEAD@Z 00000001800469cc f i libucrt:output.obj
 0001:00045a50       ??$?0AEBV?$stream_output_adapter@D@__crt_stdio_output@@AEB_KAEBQEBDAEBQEAU__crt_locale_pointers@@AEBQEAD@?$positional_parameter_base@DV?$stream_output_adapter@D@__crt_stdio_output@@@__crt_stdio_output@@IEAA@AEBV?$stream_output_adapter@D@1@AEB_KAEBQEBDAEBQEAU__crt_locale_pointers@@AEBQEAD@Z 0000000180046a50 f i libucrt:output.obj
 0001:00045af0       ??$?0AEBV?$stream_output_adapter@D@__crt_stdio_output@@AEB_KAEBQEBDAEBQEAU__crt_locale_pointers@@AEBQEAD@?$standard_base@DV?$stream_output_adapter@D@__crt_stdio_output@@@__crt_stdio_output@@IEAA@AEBV?$stream_output_adapter@D@1@AEB_KAEBQEBDAEBQEAU__crt_locale_pointers@@AEBQEAD@Z 0000000180046af0 f i libucrt:output.obj
 0001:00045b74       ??$?0AEBV?$stream_output_adapter@_W@__crt_stdio_output@@AEB_KAEBQEB_WAEBQEAU__crt_locale_pointers@@AEBQEAD@?$format_validation_base@_WV?$stream_output_adapter@_W@__crt_stdio_output@@@__crt_stdio_output@@IEAA@AEBV?$stream_output_adapter@_W@1@AEB_KAEBQEB_WAEBQEAU__crt_locale_pointers@@AEBQEAD@Z 0000000180046b74 f i libucrt:output.obj
 0001:00045bfc       ??$?0AEBV?$stream_output_adapter@_W@__crt_stdio_output@@AEB_KAEBQEB_WAEBQEAU__crt_locale_pointers@@AEBQEAD@?$positional_parameter_base@_WV?$stream_output_adapter@_W@__crt_stdio_output@@@__crt_stdio_output@@IEAA@AEBV?$stream_output_adapter@_W@1@AEB_KAEBQEB_WAEBQEAU__crt_locale_pointers@@AEBQEAD@Z 0000000180046bfc f i libucrt:output.obj
 0001:00045ca0       ??$?0AEBV?$stream_output_adapter@_W@__crt_stdio_output@@AEB_KAEBQEB_WAEBQEAU__crt_locale_pointers@@AEBQEAD@?$standard_base@_WV?$stream_output_adapter@_W@__crt_stdio_output@@@__crt_stdio_output@@IEAA@AEBV?$stream_output_adapter@_W@1@AEB_KAEBQEB_WAEBQEAU__crt_locale_pointers@@AEBQEAD@Z 0000000180046ca0 f i libucrt:output.obj
 0001:00045d28       ??$?0AEBV?$string_output_adapter@D@__crt_stdio_output@@AEB_KAEBQEBDAEBQEAU__crt_locale_pointers@@AEBQEAD@?$format_validation_base@DV?$string_output_adapter@D@__crt_stdio_output@@@__crt_stdio_output@@IEAA@AEBV?$string_output_adapter@D@1@AEB_KAEBQEBDAEBQEAU__crt_locale_pointers@@AEBQEAD@Z 0000000180046d28 f i libucrt:output.obj
 0001:00045dac       ??$?0AEBV?$string_output_adapter@D@__crt_stdio_output@@AEB_KAEBQEBDAEBQEAU__crt_locale_pointers@@AEBQEAD@?$positional_parameter_base@DV?$string_output_adapter@D@__crt_stdio_output@@@__crt_stdio_output@@IEAA@AEBV?$string_output_adapter@D@1@AEB_KAEBQEBDAEBQEAU__crt_locale_pointers@@AEBQEAD@Z 0000000180046dac f i libucrt:output.obj
 0001:00045e4c       ??$?0AEBV?$string_output_adapter@D@__crt_stdio_output@@AEB_KAEBQEBDAEBQEAU__crt_locale_pointers@@AEBQEAD@?$standard_base@DV?$string_output_adapter@D@__crt_stdio_output@@@__crt_stdio_output@@IEAA@AEBV?$string_output_adapter@D@1@AEB_KAEBQEBDAEBQEAU__crt_locale_pointers@@AEBQEAD@Z 0000000180046e4c f i libucrt:output.obj
 0001:00045ed0       ??$?0AEBV?$string_output_adapter@_W@__crt_stdio_output@@AEB_KAEBQEB_WAEBQEAU__crt_locale_pointers@@AEBQEAD@?$format_validation_base@_WV?$string_output_adapter@_W@__crt_stdio_output@@@__crt_stdio_output@@IEAA@AEBV?$string_output_adapter@_W@1@AEB_KAEBQEB_WAEBQEAU__crt_locale_pointers@@AEBQEAD@Z 0000000180046ed0 f i libucrt:output.obj
 0001:00045f58       ??$?0AEBV?$string_output_adapter@_W@__crt_stdio_output@@AEB_KAEBQEB_WAEBQEAU__crt_locale_pointers@@AEBQEAD@?$positional_parameter_base@_WV?$string_output_adapter@_W@__crt_stdio_output@@@__crt_stdio_output@@IEAA@AEBV?$string_output_adapter@_W@1@AEB_KAEBQEB_WAEBQEAU__crt_locale_pointers@@AEBQEAD@Z 0000000180046f58 f i libucrt:output.obj
 0001:00045ffc       ??$?0AEBV?$string_output_adapter@_W@__crt_stdio_output@@AEB_KAEBQEB_WAEBQEAU__crt_locale_pointers@@AEBQEAD@?$standard_base@_WV?$string_output_adapter@_W@__crt_stdio_output@@@__crt_stdio_output@@IEAA@AEBV?$string_output_adapter@_W@1@AEB_KAEBQEB_WAEBQEAU__crt_locale_pointers@@AEBQEAD@Z 0000000180046ffc f i libucrt:output.obj
 0001:00047480       ??$count@D@formatting_buffer@__crt_stdio_output@@QEBA_KXZ 0000000180048480 f i libucrt:output.obj
 0001:0004749c       ??$count@_W@formatting_buffer@__crt_stdio_output@@QEBA_KXZ 000000018004849c f i libucrt:output.obj
 0001:000474b8       ??$data@D@formatting_buffer@__crt_stdio_output@@QEAAPEADXZ 00000001800484b8 f i libucrt:output.obj
 0001:000474c8       ??$data@_W@formatting_buffer@__crt_stdio_output@@QEAAPEA_WXZ 00000001800484c8 f i libucrt:output.obj
 0001:000474d8       ??$ensure_buffer_is_big_enough@D@formatting_buffer@__crt_stdio_output@@QEAA_N_K@Z 00000001800484d8 f i libucrt:output.obj
 0001:00047580       ??$ensure_buffer_is_big_enough@_W@formatting_buffer@__crt_stdio_output@@QEAA_N_K@Z 0000000180048580 f i libucrt:output.obj
 0001:0004762c       ??$extract_argument_from_va_list@C_J@?$positional_parameter_base@DV?$stream_output_adapter@D@__crt_stdio_output@@@__crt_stdio_output@@IEAA_NAEA_J@Z 000000018004862c f i libucrt:output.obj
 0001:000476e8       ??$extract_argument_from_va_list@C_J@?$positional_parameter_base@DV?$string_output_adapter@D@__crt_stdio_output@@@__crt_stdio_output@@IEAA_NAEA_J@Z 00000001800486e8 f i libucrt:output.obj
 0001:000477a4       ??$extract_argument_from_va_list@C_J@?$positional_parameter_base@_WV?$stream_output_adapter@_W@__crt_stdio_output@@@__crt_stdio_output@@IEAA_NAEA_J@Z 00000001800487a4 f i libucrt:output.obj
 0001:00047864       ??$extract_argument_from_va_list@C_J@?$positional_parameter_base@_WV?$string_output_adapter@_W@__crt_stdio_output@@@__crt_stdio_output@@IEAA_NAEA_J@Z 0000000180048864 f i libucrt:output.obj
 0001:00047924       ??$extract_argument_from_va_list@C_J@?$standard_base@DV?$stream_output_adapter@D@__crt_stdio_output@@@__crt_stdio_output@@IEAA_NAEA_J@Z 0000000180048924 f i libucrt:output.obj
 0001:00047938       ??$extract_argument_from_va_list@C_J@?$standard_base@DV?$string_output_adapter@D@__crt_stdio_output@@@__crt_stdio_output@@IEAA_NAEA_J@Z 0000000180048938 f i libucrt:output.obj
 0001:0004794c       ??$extract_argument_from_va_list@C_J@?$standard_base@_WV?$stream_output_adapter@_W@__crt_stdio_output@@@__crt_stdio_output@@IEAA_NAEA_J@Z 000000018004894c f i libucrt:output.obj
 0001:00047960       ??$extract_argument_from_va_list@C_J@?$standard_base@_WV?$string_output_adapter@_W@__crt_stdio_output@@@__crt_stdio_output@@IEAA_NAEA_J@Z 0000000180048960 f i libucrt:output.obj
 0001:00047974       ??$extract_argument_from_va_list@E_J@?$positional_parameter_base@DV?$stream_output_adapter@D@__crt_stdio_output@@@__crt_stdio_output@@IEAA_NAEA_J@Z 0000000180048974 f i libucrt:output.obj
 0001:00047a30       ??$extract_argument_from_va_list@E_J@?$positional_parameter_base@DV?$string_output_adapter@D@__crt_stdio_output@@@__crt_stdio_output@@IEAA_NAEA_J@Z 0000000180048a30 f i libucrt:output.obj
 0001:00047aec       ??$extract_argument_from_va_list@E_J@?$positional_parameter_base@_WV?$stream_output_adapter@_W@__crt_stdio_output@@@__crt_stdio_output@@IEAA_NAEA_J@Z 0000000180048aec f i libucrt:output.obj
 0001:00047bac       ??$extract_argument_from_va_list@E_J@?$positional_parameter_base@_WV?$string_output_adapter@_W@__crt_stdio_output@@@__crt_stdio_output@@IEAA_NAEA_J@Z 0000000180048bac f i libucrt:output.obj
 0001:00047c6c       ??$extract_argument_from_va_list@E_J@?$standard_base@DV?$stream_output_adapter@D@__crt_stdio_output@@@__crt_stdio_output@@IEAA_NAEA_J@Z 0000000180048c6c f i libucrt:output.obj
 0001:00047c80       ??$extract_argument_from_va_list@E_J@?$standard_base@DV?$string_output_adapter@D@__crt_stdio_output@@@__crt_stdio_output@@IEAA_NAEA_J@Z 0000000180048c80 f i libucrt:output.obj
 0001:00047c94       ??$extract_argument_from_va_list@E_J@?$standard_base@_WV?$stream_output_adapter@_W@__crt_stdio_output@@@__crt_stdio_output@@IEAA_NAEA_J@Z 0000000180048c94 f i libucrt:output.obj
 0001:00047ca8       ??$extract_argument_from_va_list@E_J@?$standard_base@_WV?$string_output_adapter@_W@__crt_stdio_output@@@__crt_stdio_output@@IEAA_NAEA_J@Z 0000000180048ca8 f i libucrt:output.obj
 0001:00047cbc       ??$extract_argument_from_va_list@F_J@?$positional_parameter_base@DV?$stream_output_adapter@D@__crt_stdio_output@@@__crt_stdio_output@@IEAA_NAEA_J@Z 0000000180048cbc f i libucrt:output.obj
 0001:00047d78       ??$extract_argument_from_va_list@F_J@?$positional_parameter_base@DV?$string_output_adapter@D@__crt_stdio_output@@@__crt_stdio_output@@IEAA_NAEA_J@Z 0000000180048d78 f i libucrt:output.obj
 0001:00047e34       ??$extract_argument_from_va_list@F_J@?$positional_parameter_base@_WV?$stream_output_adapter@_W@__crt_stdio_output@@@__crt_stdio_output@@IEAA_NAEA_J@Z 0000000180048e34 f i libucrt:output.obj
 0001:00047ef4       ??$extract_argument_from_va_list@F_J@?$positional_parameter_base@_WV?$string_output_adapter@_W@__crt_stdio_output@@@__crt_stdio_output@@IEAA_NAEA_J@Z 0000000180048ef4 f i libucrt:output.obj
 0001:00047fb4       ??$extract_argument_from_va_list@F_J@?$standard_base@DV?$stream_output_adapter@D@__crt_stdio_output@@@__crt_stdio_output@@IEAA_NAEA_J@Z 0000000180048fb4 f i libucrt:output.obj
 0001:00047fc8       ??$extract_argument_from_va_list@F_J@?$standard_base@DV?$string_output_adapter@D@__crt_stdio_output@@@__crt_stdio_output@@IEAA_NAEA_J@Z 0000000180048fc8 f i libucrt:output.obj
 0001:00047fdc       ??$extract_argument_from_va_list@F_J@?$standard_base@_WV?$stream_output_adapter@_W@__crt_stdio_output@@@__crt_stdio_output@@IEAA_NAEA_J@Z 0000000180048fdc f i libucrt:output.obj
 0001:00047ff0       ??$extract_argument_from_va_list@F_J@?$standard_base@_WV?$string_output_adapter@_W@__crt_stdio_output@@@__crt_stdio_output@@IEAA_NAEA_J@Z 0000000180048ff0 f i libucrt:output.obj
 0001:00048004       ??$extract_argument_from_va_list@GD@?$positional_parameter_base@DV?$stream_output_adapter@D@__crt_stdio_output@@@__crt_stdio_output@@IEAA_NAEAD@Z 0000000180049004 f i libucrt:output.obj
 0001:000480bc       ??$extract_argument_from_va_list@GD@?$positional_parameter_base@DV?$string_output_adapter@D@__crt_stdio_output@@@__crt_stdio_output@@IEAA_NAEAD@Z 00000001800490bc f i libucrt:output.obj
 0001:00048174       ??$extract_argument_from_va_list@GD@?$standard_base@DV?$stream_output_adapter@D@__crt_stdio_output@@@__crt_stdio_output@@IEAA_NAEAD@Z 0000000180049174 f i libucrt:output.obj
 0001:00048188       ??$extract_argument_from_va_list@GD@?$standard_base@DV?$string_output_adapter@D@__crt_stdio_output@@@__crt_stdio_output@@IEAA_NAEAD@Z 0000000180049188 f i libucrt:output.obj
 0001:0004819c       ??$extract_argument_from_va_list@G_J@?$positional_parameter_base@DV?$stream_output_adapter@D@__crt_stdio_output@@@__crt_stdio_output@@IEAA_NAEA_J@Z 000000018004919c f i libucrt:output.obj
 0001:00048258       ??$extract_argument_from_va_list@G_J@?$positional_parameter_base@DV?$string_output_adapter@D@__crt_stdio_output@@@__crt_stdio_output@@IEAA_NAEA_J@Z 0000000180049258 f i libucrt:output.obj
 0001:00048314       ??$extract_argument_from_va_list@G_J@?$positional_parameter_base@_WV?$stream_output_adapter@_W@__crt_stdio_output@@@__crt_stdio_output@@IEAA_NAEA_J@Z 0000000180049314 f i libucrt:output.obj
 0001:000483d4       ??$extract_argument_from_va_list@G_J@?$positional_parameter_base@_WV?$string_output_adapter@_W@__crt_stdio_output@@@__crt_stdio_output@@IEAA_NAEA_J@Z 00000001800493d4 f i libucrt:output.obj
 0001:00048494       ??$extract_argument_from_va_list@G_J@?$standard_base@DV?$stream_output_adapter@D@__crt_stdio_output@@@__crt_stdio_output@@IEAA_NAEA_J@Z 0000000180049494 f i libucrt:output.obj
 0001:000484a8       ??$extract_argument_from_va_list@G_J@?$standard_base@DV?$string_output_adapter@D@__crt_stdio_output@@@__crt_stdio_output@@IEAA_NAEA_J@Z 00000001800494a8 f i libucrt:output.obj
 0001:000484bc       ??$extract_argument_from_va_list@G_J@?$standard_base@_WV?$stream_output_adapter@_W@__crt_stdio_output@@@__crt_stdio_output@@IEAA_NAEA_J@Z 00000001800494bc f i libucrt:output.obj
 0001:000484d0       ??$extract_argument_from_va_list@G_J@?$standard_base@_WV?$string_output_adapter@_W@__crt_stdio_output@@@__crt_stdio_output@@IEAA_NAEA_J@Z 00000001800494d0 f i libucrt:output.obj
 0001:000484e4       ??$extract_argument_from_va_list@H_J@?$positional_parameter_base@DV?$stream_output_adapter@D@__crt_stdio_output@@@__crt_stdio_output@@IEAA_NAEA_J@Z 00000001800494e4 f i libucrt:output.obj
 0001:000485a0       ??$extract_argument_from_va_list@H_J@?$positional_parameter_base@DV?$string_output_adapter@D@__crt_stdio_output@@@__crt_stdio_output@@IEAA_NAEA_J@Z 00000001800495a0 f i libucrt:output.obj
 0001:0004865c       ??$extract_argument_from_va_list@H_J@?$positional_parameter_base@_WV?$stream_output_adapter@_W@__crt_stdio_output@@@__crt_stdio_output@@IEAA_NAEA_J@Z 000000018004965c f i libucrt:output.obj
 0001:00048718       ??$extract_argument_from_va_list@H_J@?$positional_parameter_base@_WV?$string_output_adapter@_W@__crt_stdio_output@@@__crt_stdio_output@@IEAA_NAEA_J@Z 0000000180049718 f i libucrt:output.obj
 0001:000487d4       ??$extract_argument_from_va_list@H_J@?$standard_base@DV?$stream_output_adapter@D@__crt_stdio_output@@@__crt_stdio_output@@IEAA_NAEA_J@Z 00000001800497d4 f i libucrt:output.obj
 0001:000487e8       ??$extract_argument_from_va_list@H_J@?$standard_base@DV?$string_output_adapter@D@__crt_stdio_output@@@__crt_stdio_output@@IEAA_NAEA_J@Z 00000001800497e8 f i libucrt:output.obj
 0001:000487fc       ??$extract_argument_from_va_list@H_J@?$standard_base@_WV?$stream_output_adapter@_W@__crt_stdio_output@@@__crt_stdio_output@@IEAA_NAEA_J@Z 00000001800497fc f i libucrt:output.obj
 0001:00048810       ??$extract_argument_from_va_list@H_J@?$standard_base@_WV?$string_output_adapter@_W@__crt_stdio_output@@@__crt_stdio_output@@IEAA_NAEA_J@Z 0000000180049810 f i libucrt:output.obj
 0001:00048824       ??$extract_argument_from_va_list@I_J@?$positional_parameter_base@DV?$stream_output_adapter@D@__crt_stdio_output@@@__crt_stdio_output@@IEAA_NAEA_J@Z 0000000180049824 f i libucrt:output.obj
 0001:000488e0       ??$extract_argument_from_va_list@I_J@?$positional_parameter_base@DV?$string_output_adapter@D@__crt_stdio_output@@@__crt_stdio_output@@IEAA_NAEA_J@Z 00000001800498e0 f i libucrt:output.obj
 0001:0004899c       ??$extract_argument_from_va_list@I_J@?$positional_parameter_base@_WV?$stream_output_adapter@_W@__crt_stdio_output@@@__crt_stdio_output@@IEAA_NAEA_J@Z 000000018004999c f i libucrt:output.obj
 0001:00048a58       ??$extract_argument_from_va_list@I_J@?$positional_parameter_base@_WV?$string_output_adapter@_W@__crt_stdio_output@@@__crt_stdio_output@@IEAA_NAEA_J@Z 0000000180049a58 f i libucrt:output.obj
 0001:00048b14       ??$extract_argument_from_va_list@I_J@?$standard_base@DV?$stream_output_adapter@D@__crt_stdio_output@@@__crt_stdio_output@@IEAA_NAEA_J@Z 0000000180049b14 f i libucrt:output.obj
 0001:00048b28       ??$extract_argument_from_va_list@I_J@?$standard_base@DV?$string_output_adapter@D@__crt_stdio_output@@@__crt_stdio_output@@IEAA_NAEA_J@Z 0000000180049b28 f i libucrt:output.obj
 0001:00048b3c       ??$extract_argument_from_va_list@I_J@?$standard_base@_WV?$stream_output_adapter@_W@__crt_stdio_output@@@__crt_stdio_output@@IEAA_NAEA_J@Z 0000000180049b3c f i libucrt:output.obj
 0001:00048b50       ??$extract_argument_from_va_list@I_J@?$standard_base@_WV?$string_output_adapter@_W@__crt_stdio_output@@@__crt_stdio_output@@IEAA_NAEA_J@Z 0000000180049b50 f i libucrt:output.obj
 0001:00048b64       ??$extract_argument_from_va_list@PEADPEAD@?$positional_parameter_base@DV?$stream_output_adapter@D@__crt_stdio_output@@@__crt_stdio_output@@IEAA_NAEAPEAD@Z 0000000180049b64 f i libucrt:output.obj
 0001:00048c20       ??$extract_argument_from_va_list@PEADPEAD@?$positional_parameter_base@DV?$string_output_adapter@D@__crt_stdio_output@@@__crt_stdio_output@@IEAA_NAEAPEAD@Z 0000000180049c20 f i libucrt:output.obj
 0001:00048cdc       ??$extract_argument_from_va_list@PEADPEAD@?$positional_parameter_base@_WV?$stream_output_adapter@_W@__crt_stdio_output@@@__crt_stdio_output@@IEAA_NAEAPEAD@Z 0000000180049cdc f i libucrt:output.obj
 0001:00048d98       ??$extract_argument_from_va_list@PEADPEAD@?$positional_parameter_base@_WV?$string_output_adapter@_W@__crt_stdio_output@@@__crt_stdio_output@@IEAA_NAEAPEAD@Z 0000000180049d98 f i libucrt:output.obj
 0001:00048e54       ??$extract_argument_from_va_list@PEADPEAD@?$standard_base@DV?$stream_output_adapter@D@__crt_stdio_output@@@__crt_stdio_output@@IEAA_NAEAPEAD@Z 0000000180049e54 f i libucrt:output.obj
 0001:00048e68       ??$extract_argument_from_va_list@PEADPEAD@?$standard_base@DV?$string_output_adapter@D@__crt_stdio_output@@@__crt_stdio_output@@IEAA_NAEAPEAD@Z 0000000180049e68 f i libucrt:output.obj
 0001:00048e7c       ??$extract_argument_from_va_list@PEADPEAD@?$standard_base@_WV?$stream_output_adapter@_W@__crt_stdio_output@@@__crt_stdio_output@@IEAA_NAEAPEAD@Z 0000000180049e7c f i libucrt:output.obj
 0001:00048e90       ??$extract_argument_from_va_list@PEADPEAD@?$standard_base@_WV?$string_output_adapter@_W@__crt_stdio_output@@@__crt_stdio_output@@IEAA_NAEAPEAD@Z 0000000180049e90 f i libucrt:output.obj
 0001:00048ea4       ??$extract_argument_from_va_list@PEAUansi_string@?1??type_case_Z@?$output_processor@DV?$stream_output_adapter@D@__crt_stdio_output@@V?$format_validation_base@DV?$stream_output_adapter@D@__crt_stdio_output@@@2@@__crt_stdio_output@@AEAA_NXZ@PEAU1?1??234@AEAA_NXZ@@?$standard_base@DV?$stream_output_adapter@D@__crt_stdio_output@@@__crt_stdio_output@@IEAA_NAEAPEAUansi_string@?1??type_case_Z@?$output_processor@DV?$stream_output_adapter@D@__crt_stdio_output@@V?$format_validation_base@DV?$stream_output_adapter@D@__crt_stdio_output@@@2@@1@AEAA_NXZ@@Z 0000000180049ea4 f i libucrt:output.obj
 0001:00048eb8       ??$extract_argument_from_va_list@PEAUansi_string@?1??type_case_Z@?$output_processor@DV?$stream_output_adapter@D@__crt_stdio_output@@V?$positional_parameter_base@DV?$stream_output_adapter@D@__crt_stdio_output@@@2@@__crt_stdio_output@@AEAA_NXZ@PEAU1?1??234@AEAA_NXZ@@?$positional_parameter_base@DV?$stream_output_adapter@D@__crt_stdio_output@@@__crt_stdio_output@@IEAA_NAEAPEAUansi_string@?1??type_case_Z@?$output_processor@DV?$stream_output_adapter@D@__crt_stdio_output@@V?$positional_parameter_base@DV?$stream_output_adapter@D@__crt_stdio_output@@@2@@1@AEAA_NXZ@@Z 0000000180049eb8 f i libucrt:output.obj
 0001:00048f74       ??$extract_argument_from_va_list@PEAUansi_string@?1??type_case_Z@?$output_processor@DV?$stream_output_adapter@D@__crt_stdio_output@@V?$positional_parameter_base@DV?$stream_output_adapter@D@__crt_stdio_output@@@2@@__crt_stdio_output@@AEAA_NXZ@PEAU1?1??234@AEAA_NXZ@@?$standard_base@DV?$stream_output_adapter@D@__crt_stdio_output@@@__crt_stdio_output@@IEAA_NAEAPEAUansi_string@?1??type_case_Z@?$output_processor@DV?$stream_output_adapter@D@__crt_stdio_output@@V?$positional_parameter_base@DV?$stream_output_adapter@D@__crt_stdio_output@@@2@@1@AEAA_NXZ@@Z 0000000180049f74 f i libucrt:output.obj
 0001:00048f88       ??$extract_argument_from_va_list@PEAUansi_string@?1??type_case_Z@?$output_processor@DV?$stream_output_adapter@D@__crt_stdio_output@@V?$standard_base@DV?$stream_output_adapter@D@__crt_stdio_output@@@2@@__crt_stdio_output@@AEAA_NXZ@PEAU1?1??234@AEAA_NXZ@@?$standard_base@DV?$stream_output_adapter@D@__crt_stdio_output@@@__crt_stdio_output@@IEAA_NAEAPEAUansi_string@?1??type_case_Z@?$output_processor@DV?$stream_output_adapter@D@__crt_stdio_output@@V?$standard_base@DV?$stream_output_adapter@D@__crt_stdio_output@@@2@@1@AEAA_NXZ@@Z 0000000180049f88 f i libucrt:output.obj
 0001:00048f9c       ??$extract_argument_from_va_list@PEAUansi_string@?1??type_case_Z@?$output_processor@DV?$string_output_adapter@D@__crt_stdio_output@@V?$format_validation_base@DV?$string_output_adapter@D@__crt_stdio_output@@@2@@__crt_stdio_output@@AEAA_NXZ@PEAU1?1??234@AEAA_NXZ@@?$standard_base@DV?$string_output_adapter@D@__crt_stdio_output@@@__crt_stdio_output@@IEAA_NAEAPEAUansi_string@?1??type_case_Z@?$output_processor@DV?$string_output_adapter@D@__crt_stdio_output@@V?$format_validation_base@DV?$string_output_adapter@D@__crt_stdio_output@@@2@@1@AEAA_NXZ@@Z 0000000180049f9c f i libucrt:output.obj
 0001:00048fb0       ??$extract_argument_from_va_list@PEAUansi_string@?1??type_case_Z@?$output_processor@DV?$string_output_adapter@D@__crt_stdio_output@@V?$positional_parameter_base@DV?$string_output_adapter@D@__crt_stdio_output@@@2@@__crt_stdio_output@@AEAA_NXZ@PEAU1?1??234@AEAA_NXZ@@?$positional_parameter_base@DV?$string_output_adapter@D@__crt_stdio_output@@@__crt_stdio_output@@IEAA_NAEAPEAUansi_string@?1??type_case_Z@?$output_processor@DV?$string_output_adapter@D@__crt_stdio_output@@V?$positional_parameter_base@DV?$string_output_adapter@D@__crt_stdio_output@@@2@@1@AEAA_NXZ@@Z 0000000180049fb0 f i libucrt:output.obj
 0001:0004906c       ??$extract_argument_from_va_list@PEAUansi_string@?1??type_case_Z@?$output_processor@DV?$string_output_adapter@D@__crt_stdio_output@@V?$positional_parameter_base@DV?$string_output_adapter@D@__crt_stdio_output@@@2@@__crt_stdio_output@@AEAA_NXZ@PEAU1?1??234@AEAA_NXZ@@?$standard_base@DV?$string_output_adapter@D@__crt_stdio_output@@@__crt_stdio_output@@IEAA_NAEAPEAUansi_string@?1??type_case_Z@?$output_processor@DV?$string_output_adapter@D@__crt_stdio_output@@V?$positional_parameter_base@DV?$string_output_adapter@D@__crt_stdio_output@@@2@@1@AEAA_NXZ@@Z 000000018004a06c f i libucrt:output.obj
 0001:00049080       ??$extract_argument_from_va_list@PEAUansi_string@?1??type_case_Z@?$output_processor@DV?$string_output_adapter@D@__crt_stdio_output@@V?$standard_base@DV?$string_output_adapter@D@__crt_stdio_output@@@2@@__crt_stdio_output@@AEAA_NXZ@PEAU1?1??234@AEAA_NXZ@@?$standard_base@DV?$string_output_adapter@D@__crt_stdio_output@@@__crt_stdio_output@@IEAA_NAEAPEAUansi_string@?1??type_case_Z@?$output_processor@DV?$string_output_adapter@D@__crt_stdio_output@@V?$standard_base@DV?$string_output_adapter@D@__crt_stdio_output@@@2@@1@AEAA_NXZ@@Z 000000018004a080 f i libucrt:output.obj
 0001:00049094       ??$extract_argument_from_va_list@PEAUansi_string@?1??type_case_Z@?$output_processor@_WV?$stream_output_adapter@_W@__crt_stdio_output@@V?$format_validation_base@_WV?$stream_output_adapter@_W@__crt_stdio_output@@@2@@__crt_stdio_output@@AEAA_NXZ@PEAU1?1??234@AEAA_NXZ@@?$standard_base@_WV?$stream_output_adapter@_W@__crt_stdio_output@@@__crt_stdio_output@@IEAA_NAEAPEAUansi_string@?1??type_case_Z@?$output_processor@_WV?$stream_output_adapter@_W@__crt_stdio_output@@V?$format_validation_base@_WV?$stream_output_adapter@_W@__crt_stdio_output@@@2@@1@AEAA_NXZ@@Z 000000018004a094 f i libucrt:output.obj
 0001:000490a8       ??$extract_argument_from_va_list@PEAUansi_string@?1??type_case_Z@?$output_processor@_WV?$stream_output_adapter@_W@__crt_stdio_output@@V?$positional_parameter_base@_WV?$stream_output_adapter@_W@__crt_stdio_output@@@2@@__crt_stdio_output@@AEAA_NXZ@PEAU1?1??234@AEAA_NXZ@@?$positional_parameter_base@_WV?$stream_output_adapter@_W@__crt_stdio_output@@@__crt_stdio_output@@IEAA_NAEAPEAUansi_string@?1??type_case_Z@?$output_processor@_WV?$stream_output_adapter@_W@__crt_stdio_output@@V?$positional_parameter_base@_WV?$stream_output_adapter@_W@__crt_stdio_output@@@2@@1@AEAA_NXZ@@Z 000000018004a0a8 f i libucrt:output.obj
 0001:00049164       ??$extract_argument_from_va_list@PEAUansi_string@?1??type_case_Z@?$output_processor@_WV?$stream_output_adapter@_W@__crt_stdio_output@@V?$positional_parameter_base@_WV?$stream_output_adapter@_W@__crt_stdio_output@@@2@@__crt_stdio_output@@AEAA_NXZ@PEAU1?1??234@AEAA_NXZ@@?$standard_base@_WV?$stream_output_adapter@_W@__crt_stdio_output@@@__crt_stdio_output@@IEAA_NAEAPEAUansi_string@?1??type_case_Z@?$output_processor@_WV?$stream_output_adapter@_W@__crt_stdio_output@@V?$positional_parameter_base@_WV?$stream_output_adapter@_W@__crt_stdio_output@@@2@@1@AEAA_NXZ@@Z 000000018004a164 f i libucrt:output.obj
 0001:00049178       ??$extract_argument_from_va_list@PEAUansi_string@?1??type_case_Z@?$output_processor@_WV?$stream_output_adapter@_W@__crt_stdio_output@@V?$standard_base@_WV?$stream_output_adapter@_W@__crt_stdio_output@@@2@@__crt_stdio_output@@AEAA_NXZ@PEAU1?1??234@AEAA_NXZ@@?$standard_base@_WV?$stream_output_adapter@_W@__crt_stdio_output@@@__crt_stdio_output@@IEAA_NAEAPEAUansi_string@?1??type_case_Z@?$output_processor@_WV?$stream_output_adapter@_W@__crt_stdio_output@@V?$standard_base@_WV?$stream_output_adapter@_W@__crt_stdio_output@@@2@@1@AEAA_NXZ@@Z 000000018004a178 f i libucrt:output.obj
 0001:0004918c       ??$extract_argument_from_va_list@PEAUansi_string@?1??type_case_Z@?$output_processor@_WV?$string_output_adapter@_W@__crt_stdio_output@@V?$format_validation_base@_WV?$string_output_adapter@_W@__crt_stdio_output@@@2@@__crt_stdio_output@@AEAA_NXZ@PEAU1?1??234@AEAA_NXZ@@?$standard_base@_WV?$string_output_adapter@_W@__crt_stdio_output@@@__crt_stdio_output@@IEAA_NAEAPEAUansi_string@?1??type_case_Z@?$output_processor@_WV?$string_output_adapter@_W@__crt_stdio_output@@V?$format_validation_base@_WV?$string_output_adapter@_W@__crt_stdio_output@@@2@@1@AEAA_NXZ@@Z 000000018004a18c f i libucrt:output.obj
 0001:000491a0       ??$extract_argument_from_va_list@PEAUansi_string@?1??type_case_Z@?$output_processor@_WV?$string_output_adapter@_W@__crt_stdio_output@@V?$positional_parameter_base@_WV?$string_output_adapter@_W@__crt_stdio_output@@@2@@__crt_stdio_output@@AEAA_NXZ@PEAU1?1??234@AEAA_NXZ@@?$positional_parameter_base@_WV?$string_output_adapter@_W@__crt_stdio_output@@@__crt_stdio_output@@IEAA_NAEAPEAUansi_string@?1??type_case_Z@?$output_processor@_WV?$string_output_adapter@_W@__crt_stdio_output@@V?$positional_parameter_base@_WV?$string_output_adapter@_W@__crt_stdio_output@@@2@@1@AEAA_NXZ@@Z 000000018004a1a0 f i libucrt:output.obj
 0001:0004925c       ??$extract_argument_from_va_list@PEAUansi_string@?1??type_case_Z@?$output_processor@_WV?$string_output_adapter@_W@__crt_stdio_output@@V?$positional_parameter_base@_WV?$string_output_adapter@_W@__crt_stdio_output@@@2@@__crt_stdio_output@@AEAA_NXZ@PEAU1?1??234@AEAA_NXZ@@?$standard_base@_WV?$string_output_adapter@_W@__crt_stdio_output@@@__crt_stdio_output@@IEAA_NAEAPEAUansi_string@?1??type_case_Z@?$output_processor@_WV?$string_output_adapter@_W@__crt_stdio_output@@V?$positional_parameter_base@_WV?$string_output_adapter@_W@__crt_stdio_output@@@2@@1@AEAA_NXZ@@Z 000000018004a25c f i libucrt:output.obj
 0001:00049270       ??$extract_argument_from_va_list@PEAUansi_string@?1??type_case_Z@?$output_processor@_WV?$string_output_adapter@_W@__crt_stdio_output@@V?$standard_base@_WV?$string_output_adapter@_W@__crt_stdio_output@@@2@@__crt_stdio_output@@AEAA_NXZ@PEAU1?1??234@AEAA_NXZ@@?$standard_base@_WV?$string_output_adapter@_W@__crt_stdio_output@@@__crt_stdio_output@@IEAA_NAEAPEAUansi_string@?1??type_case_Z@?$output_processor@_WV?$string_output_adapter@_W@__crt_stdio_output@@V?$standard_base@_WV?$string_output_adapter@_W@__crt_stdio_output@@@2@@1@AEAA_NXZ@@Z 000000018004a270 f i libucrt:output.obj
 0001:00049284       ??$extract_argument_from_va_list@PEAXPEAX@?$positional_parameter_base@DV?$stream_output_adapter@D@__crt_stdio_output@@@__crt_stdio_output@@IEAA_NAEAPEAX@Z 000000018004a284 f i libucrt:output.obj
 0001:00049340       ??$extract_argument_from_va_list@PEAXPEAX@?$positional_parameter_base@DV?$string_output_adapter@D@__crt_stdio_output@@@__crt_stdio_output@@IEAA_NAEAPEAX@Z 000000018004a340 f i libucrt:output.obj
 0001:000493fc       ??$extract_argument_from_va_list@PEAXPEAX@?$positional_parameter_base@_WV?$stream_output_adapter@_W@__crt_stdio_output@@@__crt_stdio_output@@IEAA_NAEAPEAX@Z 000000018004a3fc f i libucrt:output.obj
 0001:000494b8       ??$extract_argument_from_va_list@PEAXPEAX@?$positional_parameter_base@_WV?$string_output_adapter@_W@__crt_stdio_output@@@__crt_stdio_output@@IEAA_NAEAPEAX@Z 000000018004a4b8 f i libucrt:output.obj
 0001:00049574       ??$extract_argument_from_va_list@PEAXPEAX@?$standard_base@DV?$stream_output_adapter@D@__crt_stdio_output@@@__crt_stdio_output@@IEAA_NAEAPEAX@Z 000000018004a574 f i libucrt:output.obj
 0001:00049588       ??$extract_argument_from_va_list@PEAXPEAX@?$standard_base@DV?$string_output_adapter@D@__crt_stdio_output@@@__crt_stdio_output@@IEAA_NAEAPEAX@Z 000000018004a588 f i libucrt:output.obj
 0001:0004959c       ??$extract_argument_from_va_list@PEAXPEAX@?$standard_base@_WV?$stream_output_adapter@_W@__crt_stdio_output@@@__crt_stdio_output@@IEAA_NAEAPEAX@Z 000000018004a59c f i libucrt:output.obj
 0001:000495b0       ??$extract_argument_from_va_list@PEAXPEAX@?$standard_base@_WV?$string_output_adapter@_W@__crt_stdio_output@@@__crt_stdio_output@@IEAA_NAEAPEAX@Z 000000018004a5b0 f i libucrt:output.obj
 0001:000495c4       ??$extract_argument_from_va_list@U_CRT_DOUBLE@@U1@@?$positional_parameter_base@DV?$stream_output_adapter@D@__crt_stdio_output@@@__crt_stdio_output@@IEAA_NAEAU_CRT_DOUBLE@@@Z 000000018004a5c4 f i libucrt:output.obj
 0001:00049680       ??$extract_argument_from_va_list@U_CRT_DOUBLE@@U1@@?$positional_parameter_base@DV?$string_output_adapter@D@__crt_stdio_output@@@__crt_stdio_output@@IEAA_NAEAU_CRT_DOUBLE@@@Z 000000018004a680 f i libucrt:output.obj
 0001:0004973c       ??$extract_argument_from_va_list@U_CRT_DOUBLE@@U1@@?$positional_parameter_base@_WV?$stream_output_adapter@_W@__crt_stdio_output@@@__crt_stdio_output@@IEAA_NAEAU_CRT_DOUBLE@@@Z 000000018004a73c f i libucrt:output.obj
 0001:000497f8       ??$extract_argument_from_va_list@U_CRT_DOUBLE@@U1@@?$positional_parameter_base@_WV?$string_output_adapter@_W@__crt_stdio_output@@@__crt_stdio_output@@IEAA_NAEAU_CRT_DOUBLE@@@Z 000000018004a7f8 f i libucrt:output.obj
 0001:000498b4       ??$extract_argument_from_va_list@U_CRT_DOUBLE@@U1@@?$standard_base@DV?$stream_output_adapter@D@__crt_stdio_output@@@__crt_stdio_output@@IEAA_NAEAU_CRT_DOUBLE@@@Z 000000018004a8b4 f i libucrt:output.obj
 0001:000498cc       ??$extract_argument_from_va_list@U_CRT_DOUBLE@@U1@@?$standard_base@DV?$string_output_adapter@D@__crt_stdio_output@@@__crt_stdio_output@@IEAA_NAEAU_CRT_DOUBLE@@@Z 000000018004a8cc f i libucrt:output.obj
 0001:000498e4       ??$extract_argument_from_va_list@U_CRT_DOUBLE@@U1@@?$standard_base@_WV?$stream_output_adapter@_W@__crt_stdio_output@@@__crt_stdio_output@@IEAA_NAEAU_CRT_DOUBLE@@@Z 000000018004a8e4 f i libucrt:output.obj
 0001:000498fc       ??$extract_argument_from_va_list@U_CRT_DOUBLE@@U1@@?$standard_base@_WV?$string_output_adapter@_W@__crt_stdio_output@@@__crt_stdio_output@@IEAA_NAEAU_CRT_DOUBLE@@@Z 000000018004a8fc f i libucrt:output.obj
 0001:00049914       ??$extract_argument_from_va_list@_J_J@?$positional_parameter_base@DV?$stream_output_adapter@D@__crt_stdio_output@@@__crt_stdio_output@@IEAA_NAEA_J@Z 000000018004a914 f i libucrt:output.obj
 0001:000499d0       ??$extract_argument_from_va_list@_J_J@?$positional_parameter_base@DV?$string_output_adapter@D@__crt_stdio_output@@@__crt_stdio_output@@IEAA_NAEA_J@Z 000000018004a9d0 f i libucrt:output.obj
 0001:00049a8c       ??$extract_argument_from_va_list@_J_J@?$positional_parameter_base@_WV?$stream_output_adapter@_W@__crt_stdio_output@@@__crt_stdio_output@@IEAA_NAEA_J@Z 000000018004aa8c f i libucrt:output.obj
 0001:00049b48       ??$extract_argument_from_va_list@_J_J@?$positional_parameter_base@_WV?$string_output_adapter@_W@__crt_stdio_output@@@__crt_stdio_output@@IEAA_NAEA_J@Z 000000018004ab48 f i libucrt:output.obj
 0001:00049c04       ??$extract_argument_from_va_list@_J_J@?$standard_base@DV?$stream_output_adapter@D@__crt_stdio_output@@@__crt_stdio_output@@IEAA_NAEA_J@Z 000000018004ac04 f i libucrt:output.obj
 0001:00049c18       ??$extract_argument_from_va_list@_J_J@?$standard_base@DV?$string_output_adapter@D@__crt_stdio_output@@@__crt_stdio_output@@IEAA_NAEA_J@Z 000000018004ac18 f i libucrt:output.obj
 0001:00049c2c       ??$extract_argument_from_va_list@_J_J@?$standard_base@_WV?$stream_output_adapter@_W@__crt_stdio_output@@@__crt_stdio_output@@IEAA_NAEA_J@Z 000000018004ac2c f i libucrt:output.obj
 0001:00049c40       ??$extract_argument_from_va_list@_J_J@?$standard_base@_WV?$string_output_adapter@_W@__crt_stdio_output@@@__crt_stdio_output@@IEAA_NAEA_J@Z 000000018004ac40 f i libucrt:output.obj
 0001:00049c54       ??$extract_argument_from_va_list@_K_J@?$positional_parameter_base@DV?$stream_output_adapter@D@__crt_stdio_output@@@__crt_stdio_output@@IEAA_NAEA_J@Z 000000018004ac54 f i libucrt:output.obj
 0001:00049d10       ??$extract_argument_from_va_list@_K_J@?$positional_parameter_base@DV?$string_output_adapter@D@__crt_stdio_output@@@__crt_stdio_output@@IEAA_NAEA_J@Z 000000018004ad10 f i libucrt:output.obj
 0001:00049dcc       ??$extract_argument_from_va_list@_K_J@?$positional_parameter_base@_WV?$stream_output_adapter@_W@__crt_stdio_output@@@__crt_stdio_output@@IEAA_NAEA_J@Z 000000018004adcc f i libucrt:output.obj
 0001:00049e88       ??$extract_argument_from_va_list@_K_J@?$positional_parameter_base@_WV?$string_output_adapter@_W@__crt_stdio_output@@@__crt_stdio_output@@IEAA_NAEA_J@Z 000000018004ae88 f i libucrt:output.obj
 0001:00049f44       ??$extract_argument_from_va_list@_K_J@?$standard_base@DV?$stream_output_adapter@D@__crt_stdio_output@@@__crt_stdio_output@@IEAA_NAEA_J@Z 000000018004af44 f i libucrt:output.obj
 0001:00049f58       ??$extract_argument_from_va_list@_K_J@?$standard_base@DV?$string_output_adapter@D@__crt_stdio_output@@@__crt_stdio_output@@IEAA_NAEA_J@Z 000000018004af58 f i libucrt:output.obj
 0001:00049f6c       ??$extract_argument_from_va_list@_K_J@?$standard_base@_WV?$stream_output_adapter@_W@__crt_stdio_output@@@__crt_stdio_output@@IEAA_NAEA_J@Z 000000018004af6c f i libucrt:output.obj
 0001:00049f80       ??$extract_argument_from_va_list@_K_J@?$standard_base@_WV?$string_output_adapter@_W@__crt_stdio_output@@@__crt_stdio_output@@IEAA_NAEA_J@Z 000000018004af80 f i libucrt:output.obj
 0001:00049f94       ??$extract_argument_from_va_list@_W_W@?$positional_parameter_base@DV?$stream_output_adapter@D@__crt_stdio_output@@@__crt_stdio_output@@IEAA_NAEA_W@Z 000000018004af94 f i libucrt:output.obj
 0001:0004a050       ??$extract_argument_from_va_list@_W_W@?$positional_parameter_base@DV?$string_output_adapter@D@__crt_stdio_output@@@__crt_stdio_output@@IEAA_NAEA_W@Z 000000018004b050 f i libucrt:output.obj
 0001:0004a10c       ??$extract_argument_from_va_list@_W_W@?$positional_parameter_base@_WV?$stream_output_adapter@_W@__crt_stdio_output@@@__crt_stdio_output@@IEAA_NAEA_W@Z 000000018004b10c f i libucrt:output.obj
 0001:0004a1cc       ??$extract_argument_from_va_list@_W_W@?$positional_parameter_base@_WV?$string_output_adapter@_W@__crt_stdio_output@@@__crt_stdio_output@@IEAA_NAEA_W@Z 000000018004b1cc f i libucrt:output.obj
 0001:0004a28c       ??$extract_argument_from_va_list@_W_W@?$standard_base@DV?$stream_output_adapter@D@__crt_stdio_output@@@__crt_stdio_output@@IEAA_NAEA_W@Z 000000018004b28c f i libucrt:output.obj
 0001:0004a2a0       ??$extract_argument_from_va_list@_W_W@?$standard_base@DV?$string_output_adapter@D@__crt_stdio_output@@@__crt_stdio_output@@IEAA_NAEA_W@Z 000000018004b2a0 f i libucrt:output.obj
 0001:0004a2b4       ??$extract_argument_from_va_list@_W_W@?$standard_base@_WV?$stream_output_adapter@_W@__crt_stdio_output@@@__crt_stdio_output@@IEAA_NAEA_W@Z 000000018004b2b4 f i libucrt:output.obj
 0001:0004a2c8       ??$extract_argument_from_va_list@_W_W@?$standard_base@_WV?$string_output_adapter@_W@__crt_stdio_output@@@__crt_stdio_output@@IEAA_NAEA_W@Z 000000018004b2c8 f i libucrt:output.obj
 0001:0004a2dc       ??$get_parameter_type@D@?$positional_parameter_base@DV?$stream_output_adapter@D@__crt_stdio_output@@@__crt_stdio_output@@CA?AW4parameter_type@01@PEAD@Z 000000018004b2dc f i libucrt:output.obj
 0001:0004a2e4       ??$get_parameter_type@D@?$positional_parameter_base@DV?$string_output_adapter@D@__crt_stdio_output@@@__crt_stdio_output@@CA?AW4parameter_type@01@PEAD@Z 000000018004b2e4 f i libucrt:output.obj
 0001:0004a2ec       ??$get_parameter_type@D@?$positional_parameter_base@_WV?$stream_output_adapter@_W@__crt_stdio_output@@@__crt_stdio_output@@CA?AW4parameter_type@01@PEAD@Z 000000018004b2ec f i libucrt:output.obj
 0001:0004a2f4       ??$get_parameter_type@D@?$positional_parameter_base@_WV?$string_output_adapter@_W@__crt_stdio_output@@@__crt_stdio_output@@CA?AW4parameter_type@01@PEAD@Z 000000018004b2f4 f i libucrt:output.obj
 0001:0004a2fc       ??$get_parameter_type@Uansi_string@?1??type_case_Z@?$output_processor@DV?$stream_output_adapter@D@__crt_stdio_output@@V?$positional_parameter_base@DV?$stream_output_adapter@D@__crt_stdio_output@@@2@@__crt_stdio_output@@AEAA_NXZ@@?$positional_parameter_base@DV?$stream_output_adapter@D@__crt_stdio_output@@@__crt_stdio_output@@CA?AW4parameter_type@01@PEAUansi_string@?1??type_case_Z@?$output_processor@DV?$stream_output_adapter@D@__crt_stdio_output@@V?$positional_parameter_base@DV?$stream_output_adapter@D@__crt_stdio_output@@@2@@1@AEAA_NXZ@@Z 000000018004b2fc f i libucrt:output.obj
 0001:0004a304       ??$get_parameter_type@Uansi_string@?1??type_case_Z@?$output_processor@DV?$string_output_adapter@D@__crt_stdio_output@@V?$positional_parameter_base@DV?$string_output_adapter@D@__crt_stdio_output@@@2@@__crt_stdio_output@@AEAA_NXZ@@?$positional_parameter_base@DV?$string_output_adapter@D@__crt_stdio_output@@@__crt_stdio_output@@CA?AW4parameter_type@01@PEAUansi_string@?1??type_case_Z@?$output_processor@DV?$string_output_adapter@D@__crt_stdio_output@@V?$positional_parameter_base@DV?$string_output_adapter@D@__crt_stdio_output@@@2@@1@AEAA_NXZ@@Z 000000018004b304 f i libucrt:output.obj
 0001:0004a30c       ??$get_parameter_type@Uansi_string@?1??type_case_Z@?$output_processor@_WV?$stream_output_adapter@_W@__crt_stdio_output@@V?$positional_parameter_base@_WV?$stream_output_adapter@_W@__crt_stdio_output@@@2@@__crt_stdio_output@@AEAA_NXZ@@?$positional_parameter_base@_WV?$stream_output_adapter@_W@__crt_stdio_output@@@__crt_stdio_output@@CA?AW4parameter_type@01@PEAUansi_string@?1??type_case_Z@?$output_processor@_WV?$stream_output_adapter@_W@__crt_stdio_output@@V?$positional_parameter_base@_WV?$stream_output_adapter@_W@__crt_stdio_output@@@2@@1@AEAA_NXZ@@Z 000000018004b30c f i libucrt:output.obj
 0001:0004a314       ??$get_parameter_type@Uansi_string@?1??type_case_Z@?$output_processor@_WV?$string_output_adapter@_W@__crt_stdio_output@@V?$positional_parameter_base@_WV?$string_output_adapter@_W@__crt_stdio_output@@@2@@__crt_stdio_output@@AEAA_NXZ@@?$positional_parameter_base@_WV?$string_output_adapter@_W@__crt_stdio_output@@@__crt_stdio_output@@CA?AW4parameter_type@01@PEAUansi_string@?1??type_case_Z@?$output_processor@_WV?$string_output_adapter@_W@__crt_stdio_output@@V?$positional_parameter_base@_WV?$string_output_adapter@_W@__crt_stdio_output@@@2@@1@AEAA_NXZ@@Z 000000018004b314 f i libucrt:output.obj
 0001:0004a31c       ??$get_parameter_type@X@?$positional_parameter_base@DV?$stream_output_adapter@D@__crt_stdio_output@@@__crt_stdio_output@@CA?AW4parameter_type@01@PEAX@Z 000000018004b31c f i libucrt:output.obj
 0001:0004a324       ??$get_parameter_type@X@?$positional_parameter_base@DV?$string_output_adapter@D@__crt_stdio_output@@@__crt_stdio_output@@CA?AW4parameter_type@01@PEAX@Z 000000018004b324 f i libucrt:output.obj
 0001:0004a32c       ??$get_parameter_type@X@?$positional_parameter_base@_WV?$stream_output_adapter@_W@__crt_stdio_output@@@__crt_stdio_output@@CA?AW4parameter_type@01@PEAX@Z 000000018004b32c f i libucrt:output.obj
 0001:0004a334       ??$get_parameter_type@X@?$positional_parameter_base@_WV?$string_output_adapter@_W@__crt_stdio_output@@@__crt_stdio_output@@CA?AW4parameter_type@01@PEAX@Z 000000018004b334 f i libucrt:output.obj
 0001:0004a33c       ??$is_character_specifier@D@?$positional_parameter_base@DV?$stream_output_adapter@D@__crt_stdio_output@@@__crt_stdio_output@@CA_ND@Z 000000018004b33c f i libucrt:output.obj
 0001:0004a348       ??$is_character_specifier@D@?$positional_parameter_base@DV?$string_output_adapter@D@__crt_stdio_output@@@__crt_stdio_output@@CA_ND@Z 000000018004b348 f i libucrt:output.obj
 0001:0004a354       ??$is_character_specifier@_W@?$positional_parameter_base@_WV?$stream_output_adapter@_W@__crt_stdio_output@@@__crt_stdio_output@@CA_N_W@Z 000000018004b354 f i libucrt:output.obj
 0001:0004a364       ??$is_character_specifier@_W@?$positional_parameter_base@_WV?$string_output_adapter@_W@__crt_stdio_output@@@__crt_stdio_output@@CA_N_W@Z 000000018004b364 f i libucrt:output.obj
 0001:0004a374       ??$is_integral_specifier@D@?$positional_parameter_base@DV?$stream_output_adapter@D@__crt_stdio_output@@@__crt_stdio_output@@CA_ND@Z 000000018004b374 f i libucrt:output.obj
 0001:0004a398       ??$is_integral_specifier@D@?$positional_parameter_base@DV?$string_output_adapter@D@__crt_stdio_output@@@__crt_stdio_output@@CA_ND@Z 000000018004b398 f i libucrt:output.obj
 0001:0004a3bc       ??$is_integral_specifier@_W@?$positional_parameter_base@_WV?$stream_output_adapter@_W@__crt_stdio_output@@@__crt_stdio_output@@CA_N_W@Z 000000018004b3bc f i libucrt:output.obj
 0001:0004a3e4       ??$is_integral_specifier@_W@?$positional_parameter_base@_WV?$string_output_adapter@_W@__crt_stdio_output@@@__crt_stdio_output@@CA_N_W@Z 000000018004b3e4 f i libucrt:output.obj
 0001:0004a40c       ??$is_pointer_specifier@D@?$positional_parameter_base@DV?$stream_output_adapter@D@__crt_stdio_output@@@__crt_stdio_output@@CA_ND@Z 000000018004b40c f i libucrt:output.obj
 0001:0004a414       ??$is_pointer_specifier@D@?$positional_parameter_base@DV?$string_output_adapter@D@__crt_stdio_output@@@__crt_stdio_output@@CA_ND@Z 000000018004b414 f i libucrt:output.obj
 0001:0004a41c       ??$is_pointer_specifier@_W@?$positional_parameter_base@_WV?$stream_output_adapter@_W@__crt_stdio_output@@@__crt_stdio_output@@CA_N_W@Z 000000018004b41c f i libucrt:output.obj
 0001:0004a424       ??$is_pointer_specifier@_W@?$positional_parameter_base@_WV?$string_output_adapter@_W@__crt_stdio_output@@@__crt_stdio_output@@CA_N_W@Z 000000018004b424 f i libucrt:output.obj
 0001:0004a42c       ??$is_string_specifier@D@?$positional_parameter_base@DV?$stream_output_adapter@D@__crt_stdio_output@@@__crt_stdio_output@@CA_ND@Z 000000018004b42c f i libucrt:output.obj
 0001:0004a438       ??$is_string_specifier@D@?$positional_parameter_base@DV?$string_output_adapter@D@__crt_stdio_output@@@__crt_stdio_output@@CA_ND@Z 000000018004b438 f i libucrt:output.obj
 0001:0004a444       ??$is_string_specifier@_W@?$positional_parameter_base@_WV?$stream_output_adapter@_W@__crt_stdio_output@@@__crt_stdio_output@@CA_N_W@Z 000000018004b444 f i libucrt:output.obj
 0001:0004a454       ??$is_string_specifier@_W@?$positional_parameter_base@_WV?$string_output_adapter@_W@__crt_stdio_output@@@__crt_stdio_output@@CA_N_W@Z 000000018004b454 f i libucrt:output.obj
 0001:0004a464       ??$is_wide_character_specifier@D@__crt_stdio_output@@YA_N_KDW4length_modifier@0@@Z 000000018004b464 f i libucrt:output.obj
 0001:0004a48c       ??$is_wide_character_specifier@_W@__crt_stdio_output@@YA_N_K_WW4length_modifier@0@@Z 000000018004b48c f i libucrt:output.obj
 0001:0004a4cc       ??$peek_va_arg@C@__crt_stdio_output@@YACPEAD@Z 000000018004b4cc f i libucrt:output.obj
 0001:0004a4d0       ??$peek_va_arg@E@__crt_stdio_output@@YAEPEAD@Z 000000018004b4d0 f i libucrt:output.obj
 0001:0004a4d4       ??$peek_va_arg@F@__crt_stdio_output@@YAFPEAD@Z 000000018004b4d4 f i libucrt:output.obj
 0001:0004a4d8       ??$peek_va_arg@G@__crt_stdio_output@@YAGPEAD@Z 000000018004b4d8 f i libucrt:output.obj
 0001:0004a4dc       ??$peek_va_arg@H@__crt_stdio_output@@YAHPEAD@Z 000000018004b4dc f i libucrt:output.obj
 0001:0004a4e0       ??$peek_va_arg@I@__crt_stdio_output@@YAIPEAD@Z 000000018004b4e0 f i libucrt:output.obj
 0001:0004a4e4       ??$peek_va_arg@PEAD@__crt_stdio_output@@YAPEADPEAD@Z 000000018004b4e4 f i libucrt:output.obj
 0001:0004a4e8       ??$peek_va_arg@PEAUansi_string@?1??type_case_Z@?$output_processor@DV?$stream_output_adapter@D@__crt_stdio_output@@V?$positional_parameter_base@DV?$stream_output_adapter@D@__crt_stdio_output@@@2@@__crt_stdio_output@@AEAA_NXZ@@__crt_stdio_output@@YAPEAUansi_string@?1??type_case_Z@?$output_processor@DV?$stream_output_adapter@D@__crt_stdio_output@@V?$positional_parameter_base@DV?$stream_output_adapter@D@__crt_stdio_output@@@2@@0@AEAA_NXZ@PEAD@Z 000000018004b4e8 f i libucrt:output.obj
 0001:0004a4ec       ??$peek_va_arg@PEAUansi_string@?1??type_case_Z@?$output_processor@DV?$string_output_adapter@D@__crt_stdio_output@@V?$positional_parameter_base@DV?$string_output_adapter@D@__crt_stdio_output@@@2@@__crt_stdio_output@@AEAA_NXZ@@__crt_stdio_output@@YAPEAUansi_string@?1??type_case_Z@?$output_processor@DV?$string_output_adapter@D@__crt_stdio_output@@V?$positional_parameter_base@DV?$string_output_adapter@D@__crt_stdio_output@@@2@@0@AEAA_NXZ@PEAD@Z 000000018004b4ec f i libucrt:output.obj
 0001:0004a4f0       ??$peek_va_arg@PEAUansi_string@?1??type_case_Z@?$output_processor@_WV?$stream_output_adapter@_W@__crt_stdio_output@@V?$positional_parameter_base@_WV?$stream_output_adapter@_W@__crt_stdio_output@@@2@@__crt_stdio_output@@AEAA_NXZ@@__crt_stdio_output@@YAPEAUansi_string@?1??type_case_Z@?$output_processor@_WV?$stream_output_adapter@_W@__crt_stdio_output@@V?$positional_parameter_base@_WV?$stream_output_adapter@_W@__crt_stdio_output@@@2@@0@AEAA_NXZ@PEAD@Z 000000018004b4f0 f i libucrt:output.obj
 0001:0004a4f4       ??$peek_va_arg@PEAUansi_string@?1??type_case_Z@?$output_processor@_WV?$string_output_adapter@_W@__crt_stdio_output@@V?$positional_parameter_base@_WV?$string_output_adapter@_W@__crt_stdio_output@@@2@@__crt_stdio_output@@AEAA_NXZ@@__crt_stdio_output@@YAPEAUansi_string@?1??type_case_Z@?$output_processor@_WV?$string_output_adapter@_W@__crt_stdio_output@@V?$positional_parameter_base@_WV?$string_output_adapter@_W@__crt_stdio_output@@@2@@0@AEAA_NXZ@PEAD@Z 000000018004b4f4 f i libucrt:output.obj
 0001:0004a4f8       ??$peek_va_arg@PEAX@__crt_stdio_output@@YAPEAXPEAD@Z 000000018004b4f8 f i libucrt:output.obj
 0001:0004a4fc       ??$peek_va_arg@U_CRT_DOUBLE@@@__crt_stdio_output@@YA?AU_CRT_DOUBLE@@PEAD@Z 000000018004b4fc f i libucrt:output.obj
 0001:0004a500       ??$peek_va_arg@_J@__crt_stdio_output@@YA_JPEAD@Z 000000018004b500 f i libucrt:output.obj
 0001:0004a504       ??$peek_va_arg@_K@__crt_stdio_output@@YA_KPEAD@Z 000000018004b504 f i libucrt:output.obj
 0001:0004a508       ??$peek_va_arg@_W@__crt_stdio_output@@YA_WPEAD@Z 000000018004b508 f i libucrt:output.obj
 0001:0004a50c       ??$puttc_nolock@AEBDPEAU_iobuf@@@?$__crt_char_traits@D@@SAHAEBD$$QEAPEAU_iobuf@@@Z 000000018004b50c f i libucrt:output.obj
 0001:0004a518       ??$puttc_nolock@AEB_WPEAU_iobuf@@@?$__crt_char_traits@_W@@SAGAEB_W$$QEAPEAU_iobuf@@@Z 000000018004b518 f i libucrt:output.obj
 0001:0004a524       ??$read_va_arg@C@__crt_stdio_output@@YACAEAPEAD@Z 000000018004b524 f i libucrt:output.obj
 0001:0004a530       ??$read_va_arg@E@__crt_stdio_output@@YAEAEAPEAD@Z 000000018004b530 f i libucrt:output.obj
 0001:0004a53c       ??$read_va_arg@F@__crt_stdio_output@@YAFAEAPEAD@Z 000000018004b53c f i libucrt:output.obj
 0001:0004a548       ??$read_va_arg@G@__crt_stdio_output@@YAGAEAPEAD@Z 000000018004b548 f i libucrt:output.obj
 0001:0004a554       ??$read_va_arg@H@__crt_stdio_output@@YAHAEAPEAD@Z 000000018004b554 f i libucrt:output.obj
 0001:0004a560       ??$read_va_arg@I@__crt_stdio_output@@YAIAEAPEAD@Z 000000018004b560 f i libucrt:output.obj
 0001:0004a56c       ??$read_va_arg@PEAD@__crt_stdio_output@@YAPEADAEAPEAD@Z 000000018004b56c f i libucrt:output.obj
 0001:0004a578       ??$read_va_arg@PEAUansi_string@?1??type_case_Z@?$output_processor@DV?$stream_output_adapter@D@__crt_stdio_output@@V?$format_validation_base@DV?$stream_output_adapter@D@__crt_stdio_output@@@2@@__crt_stdio_output@@AEAA_NXZ@@__crt_stdio_output@@YAPEAUansi_string@?1??type_case_Z@?$output_processor@DV?$stream_output_adapter@D@__crt_stdio_output@@V?$format_validation_base@DV?$stream_output_adapter@D@__crt_stdio_output@@@2@@0@AEAA_NXZ@AEAPEAD@Z 000000018004b578 f i libucrt:output.obj
 0001:0004a584       ??$read_va_arg@PEAUansi_string@?1??type_case_Z@?$output_processor@DV?$stream_output_adapter@D@__crt_stdio_output@@V?$positional_parameter_base@DV?$stream_output_adapter@D@__crt_stdio_output@@@2@@__crt_stdio_output@@AEAA_NXZ@@__crt_stdio_output@@YAPEAUansi_string@?1??type_case_Z@?$output_processor@DV?$stream_output_adapter@D@__crt_stdio_output@@V?$positional_parameter_base@DV?$stream_output_adapter@D@__crt_stdio_output@@@2@@0@AEAA_NXZ@AEAPEAD@Z 000000018004b584 f i libucrt:output.obj
 0001:0004a590       ??$read_va_arg@PEAUansi_string@?1??type_case_Z@?$output_processor@DV?$stream_output_adapter@D@__crt_stdio_output@@V?$standard_base@DV?$stream_output_adapter@D@__crt_stdio_output@@@2@@__crt_stdio_output@@AEAA_NXZ@@__crt_stdio_output@@YAPEAUansi_string@?1??type_case_Z@?$output_processor@DV?$stream_output_adapter@D@__crt_stdio_output@@V?$standard_base@DV?$stream_output_adapter@D@__crt_stdio_output@@@2@@0@AEAA_NXZ@AEAPEAD@Z 000000018004b590 f i libucrt:output.obj
 0001:0004a59c       ??$read_va_arg@PEAUansi_string@?1??type_case_Z@?$output_processor@DV?$string_output_adapter@D@__crt_stdio_output@@V?$format_validation_base@DV?$string_output_adapter@D@__crt_stdio_output@@@2@@__crt_stdio_output@@AEAA_NXZ@@__crt_stdio_output@@YAPEAUansi_string@?1??type_case_Z@?$output_processor@DV?$string_output_adapter@D@__crt_stdio_output@@V?$format_validation_base@DV?$string_output_adapter@D@__crt_stdio_output@@@2@@0@AEAA_NXZ@AEAPEAD@Z 000000018004b59c f i libucrt:output.obj
 0001:0004a5a8       ??$read_va_arg@PEAUansi_string@?1??type_case_Z@?$output_processor@DV?$string_output_adapter@D@__crt_stdio_output@@V?$positional_parameter_base@DV?$string_output_adapter@D@__crt_stdio_output@@@2@@__crt_stdio_output@@AEAA_NXZ@@__crt_stdio_output@@YAPEAUansi_string@?1??type_case_Z@?$output_processor@DV?$string_output_adapter@D@__crt_stdio_output@@V?$positional_parameter_base@DV?$string_output_adapter@D@__crt_stdio_output@@@2@@0@AEAA_NXZ@AEAPEAD@Z 000000018004b5a8 f i libucrt:output.obj
 0001:0004a5b4       ??$read_va_arg@PEAUansi_string@?1??type_case_Z@?$output_processor@DV?$string_output_adapter@D@__crt_stdio_output@@V?$standard_base@DV?$string_output_adapter@D@__crt_stdio_output@@@2@@__crt_stdio_output@@AEAA_NXZ@@__crt_stdio_output@@YAPEAUansi_string@?1??type_case_Z@?$output_processor@DV?$string_output_adapter@D@__crt_stdio_output@@V?$standard_base@DV?$string_output_adapter@D@__crt_stdio_output@@@2@@0@AEAA_NXZ@AEAPEAD@Z 000000018004b5b4 f i libucrt:output.obj
 0001:0004a5c0       ??$read_va_arg@PEAUansi_string@?1??type_case_Z@?$output_processor@_WV?$stream_output_adapter@_W@__crt_stdio_output@@V?$format_validation_base@_WV?$stream_output_adapter@_W@__crt_stdio_output@@@2@@__crt_stdio_output@@AEAA_NXZ@@__crt_stdio_output@@YAPEAUansi_string@?1??type_case_Z@?$output_processor@_WV?$stream_output_adapter@_W@__crt_stdio_output@@V?$format_validation_base@_WV?$stream_output_adapter@_W@__crt_stdio_output@@@2@@0@AEAA_NXZ@AEAPEAD@Z 000000018004b5c0 f i libucrt:output.obj
 0001:0004a5cc       ??$read_va_arg@PEAUansi_string@?1??type_case_Z@?$output_processor@_WV?$stream_output_adapter@_W@__crt_stdio_output@@V?$positional_parameter_base@_WV?$stream_output_adapter@_W@__crt_stdio_output@@@2@@__crt_stdio_output@@AEAA_NXZ@@__crt_stdio_output@@YAPEAUansi_string@?1??type_case_Z@?$output_processor@_WV?$stream_output_adapter@_W@__crt_stdio_output@@V?$positional_parameter_base@_WV?$stream_output_adapter@_W@__crt_stdio_output@@@2@@0@AEAA_NXZ@AEAPEAD@Z 000000018004b5cc f i libucrt:output.obj
 0001:0004a5d8       ??$read_va_arg@PEAUansi_string@?1??type_case_Z@?$output_processor@_WV?$stream_output_adapter@_W@__crt_stdio_output@@V?$standard_base@_WV?$stream_output_adapter@_W@__crt_stdio_output@@@2@@__crt_stdio_output@@AEAA_NXZ@@__crt_stdio_output@@YAPEAUansi_string@?1??type_case_Z@?$output_processor@_WV?$stream_output_adapter@_W@__crt_stdio_output@@V?$standard_base@_WV?$stream_output_adapter@_W@__crt_stdio_output@@@2@@0@AEAA_NXZ@AEAPEAD@Z 000000018004b5d8 f i libucrt:output.obj
 0001:0004a5e4       ??$read_va_arg@PEAUansi_string@?1??type_case_Z@?$output_processor@_WV?$string_output_adapter@_W@__crt_stdio_output@@V?$format_validation_base@_WV?$string_output_adapter@_W@__crt_stdio_output@@@2@@__crt_stdio_output@@AEAA_NXZ@@__crt_stdio_output@@YAPEAUansi_string@?1??type_case_Z@?$output_processor@_WV?$string_output_adapter@_W@__crt_stdio_output@@V?$format_validation_base@_WV?$string_output_adapter@_W@__crt_stdio_output@@@2@@0@AEAA_NXZ@AEAPEAD@Z 000000018004b5e4 f i libucrt:output.obj
 0001:0004a5f0       ??$read_va_arg@PEAUansi_string@?1??type_case_Z@?$output_processor@_WV?$string_output_adapter@_W@__crt_stdio_output@@V?$positional_parameter_base@_WV?$string_output_adapter@_W@__crt_stdio_output@@@2@@__crt_stdio_output@@AEAA_NXZ@@__crt_stdio_output@@YAPEAUansi_string@?1??type_case_Z@?$output_processor@_WV?$string_output_adapter@_W@__crt_stdio_output@@V?$positional_parameter_base@_WV?$string_output_adapter@_W@__crt_stdio_output@@@2@@0@AEAA_NXZ@AEAPEAD@Z 000000018004b5f0 f i libucrt:output.obj
 0001:0004a5fc       ??$read_va_arg@PEAUansi_string@?1??type_case_Z@?$output_processor@_WV?$string_output_adapter@_W@__crt_stdio_output@@V?$standard_base@_WV?$string_output_adapter@_W@__crt_stdio_output@@@2@@__crt_stdio_output@@AEAA_NXZ@@__crt_stdio_output@@YAPEAUansi_string@?1??type_case_Z@?$output_processor@_WV?$string_output_adapter@_W@__crt_stdio_output@@V?$standard_base@_WV?$string_output_adapter@_W@__crt_stdio_output@@@2@@0@AEAA_NXZ@AEAPEAD@Z 000000018004b5fc f i libucrt:output.obj
 0001:0004a608       ??$read_va_arg@PEAX@__crt_stdio_output@@YAPEAXAEAPEAD@Z 000000018004b608 f i libucrt:output.obj
 0001:0004a614       ??$read_va_arg@U_CRT_DOUBLE@@@__crt_stdio_output@@YA?AU_CRT_DOUBLE@@AEAPEAD@Z 000000018004b614 f i libucrt:output.obj
 0001:0004a620       ??$read_va_arg@_J@__crt_stdio_output@@YA_JAEAPEAD@Z 000000018004b620 f i libucrt:output.obj
 0001:0004a62c       ??$read_va_arg@_K@__crt_stdio_output@@YA_KAEAPEAD@Z 000000018004b62c f i libucrt:output.obj
 0001:0004a638       ??$read_va_arg@_W@__crt_stdio_output@@YA_WAEAPEAD@Z 000000018004b638 f i libucrt:output.obj
 0001:0004a644       ??$scratch_count@D@formatting_buffer@__crt_stdio_output@@QEBA_KXZ 000000018004b644 f i libucrt:output.obj
 0001:0004a660       ??$scratch_data@D@formatting_buffer@__crt_stdio_output@@QEAAPEADXZ 000000018004b660 f i libucrt:output.obj
 0001:0004a684       ??$tcstol@AEAPEBDPEAPEADH@?$__crt_char_traits@D@@SAJAEAPEBD$$QEAPEAPEAD$$QEAH@Z 000000018004b684 f i libucrt:output.obj
 0001:0004a694       ??$tcstol@AEAPEB_WPEAPEA_WH@?$__crt_char_traits@_W@@SAJAEAPEB_W$$QEAPEAPEA_W$$QEAH@Z 000000018004b694 f i libucrt:output.obj
 0001:0004a6a4       ??$tcstol@PEBDPEAPEADH@?$__crt_char_traits@D@@SAJ$$QEAPEBD$$QEAPEAPEAD$$QEAH@Z 000000018004b6a4 f i libucrt:output.obj
 0001:0004a6b4       ??$tcstol@PEB_WPEAPEA_WH@?$__crt_char_traits@_W@@SAJ$$QEAPEB_W$$QEAPEAPEA_W$$QEAH@Z 000000018004b6b4 f i libucrt:output.obj
 0001:0004a6c4       ??$type_case_integer_parse_into_buffer@I@?$output_processor@DV?$stream_output_adapter@D@__crt_stdio_output@@V?$format_validation_base@DV?$stream_output_adapter@D@__crt_stdio_output@@@2@@__crt_stdio_output@@AEAAXII_N@Z 000000018004b6c4 f i libucrt:output.obj
 0001:0004a74c       ??$type_case_integer_parse_into_buffer@I@?$output_processor@DV?$stream_output_adapter@D@__crt_stdio_output@@V?$positional_parameter_base@DV?$stream_output_adapter@D@__crt_stdio_output@@@2@@__crt_stdio_output@@AEAAXII_N@Z 000000018004b74c f i libucrt:output.obj
 0001:0004a7d4       ??$type_case_integer_parse_into_buffer@I@?$output_processor@DV?$stream_output_adapter@D@__crt_stdio_output@@V?$standard_base@DV?$stream_output_adapter@D@__crt_stdio_output@@@2@@__crt_stdio_output@@AEAAXII_N@Z 000000018004b7d4 f i libucrt:output.obj
 0001:0004a85c       ??$type_case_integer_parse_into_buffer@I@?$output_processor@DV?$string_output_adapter@D@__crt_stdio_output@@V?$format_validation_base@DV?$string_output_adapter@D@__crt_stdio_output@@@2@@__crt_stdio_output@@AEAAXII_N@Z 000000018004b85c f i libucrt:output.obj
 0001:0004a8e4       ??$type_case_integer_parse_into_buffer@I@?$output_processor@DV?$string_output_adapter@D@__crt_stdio_output@@V?$positional_parameter_base@DV?$string_output_adapter@D@__crt_stdio_output@@@2@@__crt_stdio_output@@AEAAXII_N@Z 000000018004b8e4 f i libucrt:output.obj
 0001:0004a96c       ??$type_case_integer_parse_into_buffer@I@?$output_processor@DV?$string_output_adapter@D@__crt_stdio_output@@V?$standard_base@DV?$string_output_adapter@D@__crt_stdio_output@@@2@@__crt_stdio_output@@AEAAXII_N@Z 000000018004b96c f i libucrt:output.obj
 0001:0004a9f4       ??$type_case_integer_parse_into_buffer@I@?$output_processor@_WV?$stream_output_adapter@_W@__crt_stdio_output@@V?$format_validation_base@_WV?$stream_output_adapter@_W@__crt_stdio_output@@@2@@__crt_stdio_output@@AEAAXII_N@Z 000000018004b9f4 f i libucrt:output.obj
 0001:0004aa98       ??$type_case_integer_parse_into_buffer@I@?$output_processor@_WV?$stream_output_adapter@_W@__crt_stdio_output@@V?$positional_parameter_base@_WV?$stream_output_adapter@_W@__crt_stdio_output@@@2@@__crt_stdio_output@@AEAAXII_N@Z 000000018004ba98 f i libucrt:output.obj
 0001:0004ab3c       ??$type_case_integer_parse_into_buffer@I@?$output_processor@_WV?$stream_output_adapter@_W@__crt_stdio_output@@V?$standard_base@_WV?$stream_output_adapter@_W@__crt_stdio_output@@@2@@__crt_stdio_output@@AEAAXII_N@Z 000000018004bb3c f i libucrt:output.obj
 0001:0004abe0       ??$type_case_integer_parse_into_buffer@I@?$output_processor@_WV?$string_output_adapter@_W@__crt_stdio_output@@V?$format_validation_base@_WV?$string_output_adapter@_W@__crt_stdio_output@@@2@@__crt_stdio_output@@AEAAXII_N@Z 000000018004bbe0 f i libucrt:output.obj
 0001:0004ac84       ??$type_case_integer_parse_into_buffer@I@?$output_processor@_WV?$string_output_adapter@_W@__crt_stdio_output@@V?$positional_parameter_base@_WV?$string_output_adapter@_W@__crt_stdio_output@@@2@@__crt_stdio_output@@AEAAXII_N@Z 000000018004bc84 f i libucrt:output.obj
 0001:0004ad28       ??$type_case_integer_parse_into_buffer@I@?$output_processor@_WV?$string_output_adapter@_W@__crt_stdio_output@@V?$standard_base@_WV?$string_output_adapter@_W@__crt_stdio_output@@@2@@__crt_stdio_output@@AEAAXII_N@Z 000000018004bd28 f i libucrt:output.obj
 0001:0004adcc       ??$type_case_integer_parse_into_buffer@_K@?$output_processor@DV?$stream_output_adapter@D@__crt_stdio_output@@V?$format_validation_base@DV?$stream_output_adapter@D@__crt_stdio_output@@@2@@__crt_stdio_output@@AEAAX_KI_N@Z 000000018004bdcc f i libucrt:output.obj
 0001:0004ae5c       ??$type_case_integer_parse_into_buffer@_K@?$output_processor@DV?$stream_output_adapter@D@__crt_stdio_output@@V?$positional_parameter_base@DV?$stream_output_adapter@D@__crt_stdio_output@@@2@@__crt_stdio_output@@AEAAX_KI_N@Z 000000018004be5c f i libucrt:output.obj
 0001:0004aeec       ??$type_case_integer_parse_into_buffer@_K@?$output_processor@DV?$stream_output_adapter@D@__crt_stdio_output@@V?$standard_base@DV?$stream_output_adapter@D@__crt_stdio_output@@@2@@__crt_stdio_output@@AEAAX_KI_N@Z 000000018004beec f i libucrt:output.obj
 0001:0004af7c       ??$type_case_integer_parse_into_buffer@_K@?$output_processor@DV?$string_output_adapter@D@__crt_stdio_output@@V?$format_validation_base@DV?$string_output_adapter@D@__crt_stdio_output@@@2@@__crt_stdio_output@@AEAAX_KI_N@Z 000000018004bf7c f i libucrt:output.obj
 0001:0004b00c       ??$type_case_integer_parse_into_buffer@_K@?$output_processor@DV?$string_output_adapter@D@__crt_stdio_output@@V?$positional_parameter_base@DV?$string_output_adapter@D@__crt_stdio_output@@@2@@__crt_stdio_output@@AEAAX_KI_N@Z 000000018004c00c f i libucrt:output.obj
 0001:0004b09c       ??$type_case_integer_parse_into_buffer@_K@?$output_processor@DV?$string_output_adapter@D@__crt_stdio_output@@V?$standard_base@DV?$string_output_adapter@D@__crt_stdio_output@@@2@@__crt_stdio_output@@AEAAX_KI_N@Z 000000018004c09c f i libucrt:output.obj
 0001:0004b12c       ??$type_case_integer_parse_into_buffer@_K@?$output_processor@_WV?$stream_output_adapter@_W@__crt_stdio_output@@V?$format_validation_base@_WV?$stream_output_adapter@_W@__crt_stdio_output@@@2@@__crt_stdio_output@@AEAAX_KI_N@Z 000000018004c12c f i libucrt:output.obj
 0001:0004b1d0       ??$type_case_integer_parse_into_buffer@_K@?$output_processor@_WV?$stream_output_adapter@_W@__crt_stdio_output@@V?$positional_parameter_base@_WV?$stream_output_adapter@_W@__crt_stdio_output@@@2@@__crt_stdio_output@@AEAAX_KI_N@Z 000000018004c1d0 f i libucrt:output.obj
 0001:0004b274       ??$type_case_integer_parse_into_buffer@_K@?$output_processor@_WV?$stream_output_adapter@_W@__crt_stdio_output@@V?$standard_base@_WV?$stream_output_adapter@_W@__crt_stdio_output@@@2@@__crt_stdio_output@@AEAAX_KI_N@Z 000000018004c274 f i libucrt:output.obj
 0001:0004b318       ??$type_case_integer_parse_into_buffer@_K@?$output_processor@_WV?$string_output_adapter@_W@__crt_stdio_output@@V?$format_validation_base@_WV?$string_output_adapter@_W@__crt_stdio_output@@@2@@__crt_stdio_output@@AEAAX_KI_N@Z 000000018004c318 f i libucrt:output.obj
 0001:0004b3bc       ??$type_case_integer_parse_into_buffer@_K@?$output_processor@_WV?$string_output_adapter@_W@__crt_stdio_output@@V?$positional_parameter_base@_WV?$string_output_adapter@_W@__crt_stdio_output@@@2@@__crt_stdio_output@@AEAAX_KI_N@Z 000000018004c3bc f i libucrt:output.obj
 0001:0004b460       ??$type_case_integer_parse_into_buffer@_K@?$output_processor@_WV?$string_output_adapter@_W@__crt_stdio_output@@V?$standard_base@_WV?$string_output_adapter@_W@__crt_stdio_output@@@2@@__crt_stdio_output@@AEAAX_KI_N@Z 000000018004c460 f i libucrt:output.obj
 0001:0004b504       ??$write_multiple_characters@V?$stream_output_adapter@D@__crt_stdio_output@@D@__crt_stdio_output@@YAXAEBV?$stream_output_adapter@D@0@DHQEAH@Z 000000018004c504 f i libucrt:output.obj
 0001:0004b590       ??$write_multiple_characters@V?$stream_output_adapter@_W@__crt_stdio_output@@D@__crt_stdio_output@@YAXAEBV?$stream_output_adapter@_W@0@DHQEAH@Z 000000018004c590 f i libucrt:output.obj
 0001:0004b624       ??$write_multiple_characters@V?$string_output_adapter@D@__crt_stdio_output@@D@__crt_stdio_output@@YAXAEBV?$string_output_adapter@D@0@DHQEAH@Z 000000018004c624 f i libucrt:output.obj
 0001:0004b69c       ??$write_multiple_characters@V?$string_output_adapter@_W@__crt_stdio_output@@D@__crt_stdio_output@@YAXAEBV?$string_output_adapter@_W@0@DHQEAH@Z 000000018004c69c f i libucrt:output.obj
 0001:0004b87c       ??0?$common_data@D@__crt_stdio_output@@IEAA@XZ 000000018004c87c f i libucrt:output.obj
 0001:0004b8b8       ??0?$common_data@_W@__crt_stdio_output@@IEAA@XZ 000000018004c8b8 f i libucrt:output.obj
 0001:0004b8f8       ??0?$output_adapter_data@DV?$stream_output_adapter@D@__crt_stdio_output@@@__crt_stdio_output@@IEAA@AEBV?$stream_output_adapter@D@1@_KQEBDQEAU__crt_locale_pointers@@QEAD@Z 000000018004c8f8 f i libucrt:output.obj
 0001:0004b958       ??0?$output_adapter_data@DV?$string_output_adapter@D@__crt_stdio_output@@@__crt_stdio_output@@IEAA@AEBV?$string_output_adapter@D@1@_KQEBDQEAU__crt_locale_pointers@@QEAD@Z 000000018004c958 f i libucrt:output.obj
 0001:0004b9b8       ??0?$output_adapter_data@_WV?$stream_output_adapter@_W@__crt_stdio_output@@@__crt_stdio_output@@IEAA@AEBV?$stream_output_adapter@_W@1@_KQEB_WQEAU__crt_locale_pointers@@QEAD@Z 000000018004c9b8 f i libucrt:output.obj
 0001:0004ba1c       ??0?$output_adapter_data@_WV?$string_output_adapter@_W@__crt_stdio_output@@@__crt_stdio_output@@IEAA@AEBV?$string_output_adapter@_W@1@_KQEB_WQEAU__crt_locale_pointers@@QEAD@Z 000000018004ca1c f i libucrt:output.obj
 0001:0004ba80       ??0?$output_processor@DV?$stream_output_adapter@D@__crt_stdio_output@@V?$format_validation_base@DV?$stream_output_adapter@D@__crt_stdio_output@@@2@@__crt_stdio_output@@QEAA@AEBV?$stream_output_adapter@D@1@_KQEBDQEAU__crt_locale_pointers@@QEAD@Z 000000018004ca80 f i libucrt:output.obj
 0001:0004baec       ??0?$output_processor@DV?$stream_output_adapter@D@__crt_stdio_output@@V?$positional_parameter_base@DV?$stream_output_adapter@D@__crt_stdio_output@@@2@@__crt_stdio_output@@QEAA@AEBV?$stream_output_adapter@D@1@_KQEBDQEAU__crt_locale_pointers@@QEAD@Z 000000018004caec f i libucrt:output.obj
 0001:0004bb74       ??0?$output_processor@DV?$stream_output_adapter@D@__crt_stdio_output@@V?$standard_base@DV?$stream_output_adapter@D@__crt_stdio_output@@@2@@__crt_stdio_output@@QEAA@AEBV?$stream_output_adapter@D@1@_KQEBDQEAU__crt_locale_pointers@@QEAD@Z 000000018004cb74 f i libucrt:output.obj
 0001:0004bbe0       ??0?$output_processor@DV?$string_output_adapter@D@__crt_stdio_output@@V?$format_validation_base@DV?$string_output_adapter@D@__crt_stdio_output@@@2@@__crt_stdio_output@@QEAA@AEBV?$string_output_adapter@D@1@_KQEBDQEAU__crt_locale_pointers@@QEAD@Z 000000018004cbe0 f i libucrt:output.obj
 0001:0004bc4c       ??0?$output_processor@DV?$string_output_adapter@D@__crt_stdio_output@@V?$positional_parameter_base@DV?$string_output_adapter@D@__crt_stdio_output@@@2@@__crt_stdio_output@@QEAA@AEBV?$string_output_adapter@D@1@_KQEBDQEAU__crt_locale_pointers@@QEAD@Z 000000018004cc4c f i libucrt:output.obj
 0001:0004bcd4       ??0?$output_processor@DV?$string_output_adapter@D@__crt_stdio_output@@V?$standard_base@DV?$string_output_adapter@D@__crt_stdio_output@@@2@@__crt_stdio_output@@QEAA@AEBV?$string_output_adapter@D@1@_KQEBDQEAU__crt_locale_pointers@@QEAD@Z 000000018004ccd4 f i libucrt:output.obj
 0001:0004bd40       ??0?$output_processor@_WV?$stream_output_adapter@_W@__crt_stdio_output@@V?$format_validation_base@_WV?$stream_output_adapter@_W@__crt_stdio_output@@@2@@__crt_stdio_output@@QEAA@AEBV?$stream_output_adapter@_W@1@_KQEB_WQEAU__crt_locale_pointers@@QEAD@Z 000000018004cd40 f i libucrt:output.obj
 0001:0004bdb0       ??0?$output_processor@_WV?$stream_output_adapter@_W@__crt_stdio_output@@V?$positional_parameter_base@_WV?$stream_output_adapter@_W@__crt_stdio_output@@@2@@__crt_stdio_output@@QEAA@AEBV?$stream_output_adapter@_W@1@_KQEB_WQEAU__crt_locale_pointers@@QEAD@Z 000000018004cdb0 f i libucrt:output.obj
 0001:0004be3c       ??0?$output_processor@_WV?$stream_output_adapter@_W@__crt_stdio_output@@V?$standard_base@_WV?$stream_output_adapter@_W@__crt_stdio_output@@@2@@__crt_stdio_output@@QEAA@AEBV?$stream_output_adapter@_W@1@_KQEB_WQEAU__crt_locale_pointers@@QEAD@Z 000000018004ce3c f i libucrt:output.obj
 0001:0004beac       ??0?$output_processor@_WV?$string_output_adapter@_W@__crt_stdio_output@@V?$format_validation_base@_WV?$string_output_adapter@_W@__crt_stdio_output@@@2@@__crt_stdio_output@@QEAA@AEBV?$string_output_adapter@_W@1@_KQEB_WQEAU__crt_locale_pointers@@QEAD@Z 000000018004ceac f i libucrt:output.obj
 0001:0004bf1c       ??0?$output_processor@_WV?$string_output_adapter@_W@__crt_stdio_output@@V?$positional_parameter_base@_WV?$string_output_adapter@_W@__crt_stdio_output@@@2@@__crt_stdio_output@@QEAA@AEBV?$string_output_adapter@_W@1@_KQEB_WQEAU__crt_locale_pointers@@QEAD@Z 000000018004cf1c f i libucrt:output.obj
 0001:0004bfa8       ??0?$output_processor@_WV?$string_output_adapter@_W@__crt_stdio_output@@V?$standard_base@_WV?$string_output_adapter@_W@__crt_stdio_output@@@2@@__crt_stdio_output@@QEAA@AEBV?$string_output_adapter@_W@1@_KQEB_WQEAU__crt_locale_pointers@@QEAD@Z 000000018004cfa8 f i libucrt:output.obj
 0001:0004c018       ??0?$stream_output_adapter@D@__crt_stdio_output@@QEAA@QEAU_iobuf@@@Z 000000018004d018 f i libucrt:output.obj
 0001:0004c020       ??0?$stream_output_adapter@_W@__crt_stdio_output@@QEAA@QEAU_iobuf@@@Z 000000018004d020 f i libucrt:output.obj
 0001:0004c028       ??0?$string_output_adapter@D@__crt_stdio_output@@QEAA@QEAU?$string_output_adapter_context@D@1@@Z 000000018004d028 f i libucrt:output.obj
 0001:0004c030       ??0?$string_output_adapter@_W@__crt_stdio_output@@QEAA@QEAU?$string_output_adapter_context@_W@1@@Z 000000018004d030 f i libucrt:output.obj
 0001:0004c038       ??0_LocaleUpdate@@QEAA@QEAU__crt_locale_pointers@@@Z 000000018004d038 f i libucrt:output.obj
 0001:0004c0d4       ??0__acrt_stdio_temporary_buffering_guard@@QEAA@QEAU_iobuf@@@Z 000000018004d0d4 f i libucrt:output.obj
 0001:0004c0f4       ??0__crt_deferred_errno_cache@@QEAA@XZ 000000018004d0f4 f i libucrt:output.obj
 0001:0004c0fc       ??0__crt_errno_guard@@QEAA@QEAH@Z 000000018004d0fc f i libucrt:output.obj
 0001:0004c10c       ??0__crt_stdio_stream@@QEAA@QEAU_iobuf@@@Z 000000018004d10c f i libucrt:output.obj
 0001:0004c120       ??0formatting_buffer@__crt_stdio_output@@QEAA@XZ 000000018004d120 f i libucrt:output.obj
 0001:0004c134       ??1?$common_data@D@__crt_stdio_output@@QEAA@XZ 000000018004d134 f i libucrt:output.obj
 0001:0004c158       ??1?$common_data@_W@__crt_stdio_output@@QEAA@XZ 000000018004d158 f i libucrt:output.obj
 0001:0004c17c       ??1?$format_validation_base@DV?$stream_output_adapter@D@__crt_stdio_output@@@__crt_stdio_output@@QEAA@XZ 000000018004d17c f i libucrt:output.obj
 0001:0004c1a0       ??1?$format_validation_base@DV?$string_output_adapter@D@__crt_stdio_output@@@__crt_stdio_output@@QEAA@XZ 000000018004d1a0 f i libucrt:output.obj
 0001:0004c1c4       ??1?$format_validation_base@_WV?$stream_output_adapter@_W@__crt_stdio_output@@@__crt_stdio_output@@QEAA@XZ 000000018004d1c4 f i libucrt:output.obj
 0001:0004c1e8       ??1?$format_validation_base@_WV?$string_output_adapter@_W@__crt_stdio_output@@@__crt_stdio_output@@QEAA@XZ 000000018004d1e8 f i libucrt:output.obj
 0001:0004c20c       ??1?$output_adapter_data@DV?$stream_output_adapter@D@__crt_stdio_output@@@__crt_stdio_output@@QEAA@XZ 000000018004d20c f i libucrt:output.obj
 0001:0004c230       ??1?$output_adapter_data@DV?$string_output_adapter@D@__crt_stdio_output@@@__crt_stdio_output@@QEAA@XZ 000000018004d230 f i libucrt:output.obj
 0001:0004c254       ??1?$output_adapter_data@_WV?$stream_output_adapter@_W@__crt_stdio_output@@@__crt_stdio_output@@QEAA@XZ 000000018004d254 f i libucrt:output.obj
 0001:0004c278       ??1?$output_adapter_data@_WV?$string_output_adapter@_W@__crt_stdio_output@@@__crt_stdio_output@@QEAA@XZ 000000018004d278 f i libucrt:output.obj
 0001:0004c29c       ??1?$output_processor@DV?$stream_output_adapter@D@__crt_stdio_output@@V?$format_validation_base@DV?$stream_output_adapter@D@__crt_stdio_output@@@2@@__crt_stdio_output@@QEAA@XZ 000000018004d29c f i libucrt:output.obj
 0001:0004c2c0       ??1?$output_processor@DV?$stream_output_adapter@D@__crt_stdio_output@@V?$positional_parameter_base@DV?$stream_output_adapter@D@__crt_stdio_output@@@2@@__crt_stdio_output@@QEAA@XZ 000000018004d2c0 f i libucrt:output.obj
 0001:0004c2e4       ??1?$output_processor@DV?$stream_output_adapter@D@__crt_stdio_output@@V?$standard_base@DV?$stream_output_adapter@D@__crt_stdio_output@@@2@@__crt_stdio_output@@QEAA@XZ 000000018004d2e4 f i libucrt:output.obj
 0001:0004c308       ??1?$output_processor@DV?$string_output_adapter@D@__crt_stdio_output@@V?$format_validation_base@DV?$string_output_adapter@D@__crt_stdio_output@@@2@@__crt_stdio_output@@QEAA@XZ 000000018004d308 f i libucrt:output.obj
 0001:0004c32c       ??1?$output_processor@DV?$string_output_adapter@D@__crt_stdio_output@@V?$positional_parameter_base@DV?$string_output_adapter@D@__crt_stdio_output@@@2@@__crt_stdio_output@@QEAA@XZ 000000018004d32c f i libucrt:output.obj
 0001:0004c350       ??1?$output_processor@DV?$string_output_adapter@D@__crt_stdio_output@@V?$standard_base@DV?$string_output_adapter@D@__crt_stdio_output@@@2@@__crt_stdio_output@@QEAA@XZ 000000018004d350 f i libucrt:output.obj
 0001:0004c374       ??1?$output_processor@_WV?$stream_output_adapter@_W@__crt_stdio_output@@V?$format_validation_base@_WV?$stream_output_adapter@_W@__crt_stdio_output@@@2@@__crt_stdio_output@@QEAA@XZ 000000018004d374 f i libucrt:output.obj
 0001:0004c398       ??1?$output_processor@_WV?$stream_output_adapter@_W@__crt_stdio_output@@V?$positional_parameter_base@_WV?$stream_output_adapter@_W@__crt_stdio_output@@@2@@__crt_stdio_output@@QEAA@XZ 000000018004d398 f i libucrt:output.obj
 0001:0004c3bc       ??1?$output_processor@_WV?$stream_output_adapter@_W@__crt_stdio_output@@V?$standard_base@_WV?$stream_output_adapter@_W@__crt_stdio_output@@@2@@__crt_stdio_output@@QEAA@XZ 000000018004d3bc f i libucrt:output.obj
 0001:0004c3e0       ??1?$output_processor@_WV?$string_output_adapter@_W@__crt_stdio_output@@V?$format_validation_base@_WV?$string_output_adapter@_W@__crt_stdio_output@@@2@@__crt_stdio_output@@QEAA@XZ 000000018004d3e0 f i libucrt:output.obj
 0001:0004c404       ??1?$output_processor@_WV?$string_output_adapter@_W@__crt_stdio_output@@V?$positional_parameter_base@_WV?$string_output_adapter@_W@__crt_stdio_output@@@2@@__crt_stdio_output@@QEAA@XZ 000000018004d404 f i libucrt:output.obj
 0001:0004c428       ??1?$output_processor@_WV?$string_output_adapter@_W@__crt_stdio_output@@V?$standard_base@_WV?$string_output_adapter@_W@__crt_stdio_output@@@2@@__crt_stdio_output@@QEAA@XZ 000000018004d428 f i libucrt:output.obj
 0001:0004c44c       ??1?$positional_parameter_base@DV?$stream_output_adapter@D@__crt_stdio_output@@@__crt_stdio_output@@QEAA@XZ 000000018004d44c f i libucrt:output.obj
 0001:0004c470       ??1?$positional_parameter_base@DV?$string_output_adapter@D@__crt_stdio_output@@@__crt_stdio_output@@QEAA@XZ 000000018004d470 f i libucrt:output.obj
 0001:0004c494       ??1?$positional_parameter_base@_WV?$stream_output_adapter@_W@__crt_stdio_output@@@__crt_stdio_output@@QEAA@XZ 000000018004d494 f i libucrt:output.obj
 0001:0004c4b8       ??1?$positional_parameter_base@_WV?$string_output_adapter@_W@__crt_stdio_output@@@__crt_stdio_output@@QEAA@XZ 000000018004d4b8 f i libucrt:output.obj
 0001:0004c4dc       ??1?$standard_base@DV?$stream_output_adapter@D@__crt_stdio_output@@@__crt_stdio_output@@QEAA@XZ 000000018004d4dc f i libucrt:output.obj
 0001:0004c500       ??1?$standard_base@DV?$string_output_adapter@D@__crt_stdio_output@@@__crt_stdio_output@@QEAA@XZ 000000018004d500 f i libucrt:output.obj
 0001:0004c524       ??1?$standard_base@_WV?$stream_output_adapter@_W@__crt_stdio_output@@@__crt_stdio_output@@QEAA@XZ 000000018004d524 f i libucrt:output.obj
 0001:0004c548       ??1?$standard_base@_WV?$string_output_adapter@_W@__crt_stdio_output@@@__crt_stdio_output@@QEAA@XZ 000000018004d548 f i libucrt:output.obj
 0001:0004c56c       ??1_LocaleUpdate@@QEAA@XZ  000000018004d56c f i libucrt:output.obj
 0001:0004c580       ??1__acrt_stdio_temporary_buffering_guard@@QEAA@XZ 000000018004d580 f i libucrt:output.obj
 0001:0004c58c       ??1__crt_errno_guard@@QEAA@XZ 000000018004d58c f i libucrt:output.obj
 0001:0004c5a0       ??1formatting_buffer@__crt_stdio_output@@QEAA@XZ 000000018004d5a0 f i libucrt:output.obj
 0001:0004c5c4       ??4?$__crt_unique_heap_ptr@DU__crt_internal_free_policy@@@@QEAAAEAV0@$$QEAV0@@Z 000000018004d5c4 f i libucrt:output.obj
 0001:0004c5f8       ??A?$spectre_mitigated_lookup_table@Ustate_transition_pair@__crt_stdio_output@@$0IA@@__crt_stdio_output@@QEBAAEBUstate_transition_pair@1@_K@Z 000000018004d5f8 f i libucrt:output.obj
 0001:0004c600       ??C__crt_stdio_stream@@QEBAPEAU__crt_stdio_stream_data@@XZ 000000018004d600 f i libucrt:output.obj
 0001:0004cdc8       ?GetLocaleT@_LocaleUpdate@@QEAAPEAU__crt_locale_pointers@@XZ 000000018004ddc8 f i libucrt:output.obj
 0001:0004cdd0       ?adjust_hexit@?$output_processor@DV?$stream_output_adapter@D@__crt_stdio_output@@V?$format_validation_base@DV?$stream_output_adapter@D@__crt_stdio_output@@@2@@__crt_stdio_output@@CADH_N@Z 000000018004ddd0 f i libucrt:output.obj
 0001:0004cddc       ?adjust_hexit@?$output_processor@DV?$stream_output_adapter@D@__crt_stdio_output@@V?$positional_parameter_base@DV?$stream_output_adapter@D@__crt_stdio_output@@@2@@__crt_stdio_output@@CADH_N@Z 000000018004dddc f i libucrt:output.obj
 0001:0004cde8       ?adjust_hexit@?$output_processor@DV?$stream_output_adapter@D@__crt_stdio_output@@V?$standard_base@DV?$stream_output_adapter@D@__crt_stdio_output@@@2@@__crt_stdio_output@@CADH_N@Z 000000018004dde8 f i libucrt:output.obj
 0001:0004cdf4       ?adjust_hexit@?$output_processor@DV?$string_output_adapter@D@__crt_stdio_output@@V?$format_validation_base@DV?$string_output_adapter@D@__crt_stdio_output@@@2@@__crt_stdio_output@@CADH_N@Z 000000018004ddf4 f i libucrt:output.obj
 0001:0004ce00       ?adjust_hexit@?$output_processor@DV?$string_output_adapter@D@__crt_stdio_output@@V?$positional_parameter_base@DV?$string_output_adapter@D@__crt_stdio_output@@@2@@__crt_stdio_output@@CADH_N@Z 000000018004de00 f i libucrt:output.obj
 0001:0004ce0c       ?adjust_hexit@?$output_processor@DV?$string_output_adapter@D@__crt_stdio_output@@V?$standard_base@DV?$string_output_adapter@D@__crt_stdio_output@@@2@@__crt_stdio_output@@CADH_N@Z 000000018004de0c f i libucrt:output.obj
 0001:0004ce18       ?adjust_hexit@?$output_processor@_WV?$stream_output_adapter@_W@__crt_stdio_output@@V?$format_validation_base@_WV?$stream_output_adapter@_W@__crt_stdio_output@@@2@@__crt_stdio_output@@CADH_N@Z 000000018004de18 f i libucrt:output.obj
 0001:0004ce24       ?adjust_hexit@?$output_processor@_WV?$stream_output_adapter@_W@__crt_stdio_output@@V?$positional_parameter_base@_WV?$stream_output_adapter@_W@__crt_stdio_output@@@2@@__crt_stdio_output@@CADH_N@Z 000000018004de24 f i libucrt:output.obj
 0001:0004ce30       ?adjust_hexit@?$output_processor@_WV?$stream_output_adapter@_W@__crt_stdio_output@@V?$standard_base@_WV?$stream_output_adapter@_W@__crt_stdio_output@@@2@@__crt_stdio_output@@CADH_N@Z 000000018004de30 f i libucrt:output.obj
 0001:0004ce3c       ?adjust_hexit@?$output_processor@_WV?$string_output_adapter@_W@__crt_stdio_output@@V?$format_validation_base@_WV?$string_output_adapter@_W@__crt_stdio_output@@@2@@__crt_stdio_output@@CADH_N@Z 000000018004de3c f i libucrt:output.obj
 0001:0004ce48       ?adjust_hexit@?$output_processor@_WV?$string_output_adapter@_W@__crt_stdio_output@@V?$positional_parameter_base@_WV?$string_output_adapter@_W@__crt_stdio_output@@@2@@__crt_stdio_output@@CADH_N@Z 000000018004de48 f i libucrt:output.obj
 0001:0004ce54       ?adjust_hexit@?$output_processor@_WV?$string_output_adapter@_W@__crt_stdio_output@@V?$standard_base@_WV?$string_output_adapter@_W@__crt_stdio_output@@@2@@__crt_stdio_output@@CADH_N@Z 000000018004de54 f i libucrt:output.obj
 0001:0004ce60       ?advance_to_next_pass@?$positional_parameter_base@DV?$stream_output_adapter@D@__crt_stdio_output@@@__crt_stdio_output@@IEAA_NXZ 000000018004de60 f i libucrt:output.obj
 0001:0004ceb0       ?advance_to_next_pass@?$positional_parameter_base@DV?$string_output_adapter@D@__crt_stdio_output@@@__crt_stdio_output@@IEAA_NXZ 000000018004deb0 f i libucrt:output.obj
 0001:0004cf00       ?advance_to_next_pass@?$positional_parameter_base@_WV?$stream_output_adapter@_W@__crt_stdio_output@@@__crt_stdio_output@@IEAA_NXZ 000000018004df00 f i libucrt:output.obj
 0001:0004cf50       ?advance_to_next_pass@?$positional_parameter_base@_WV?$string_output_adapter@_W@__crt_stdio_output@@@__crt_stdio_output@@IEAA_NXZ 000000018004df50 f i libucrt:output.obj
 0001:0004cfa0       ?advance_to_next_pass@?$standard_base@DV?$stream_output_adapter@D@__crt_stdio_output@@@__crt_stdio_output@@IEAA_NXZ 000000018004dfa0 f i libucrt:output.obj
 0001:0004cfb4       ?advance_to_next_pass@?$standard_base@DV?$string_output_adapter@D@__crt_stdio_output@@@__crt_stdio_output@@IEAA_NXZ 000000018004dfb4 f i libucrt:output.obj
 0001:0004cfc8       ?advance_to_next_pass@?$standard_base@_WV?$stream_output_adapter@_W@__crt_stdio_output@@@__crt_stdio_output@@IEAA_NXZ 000000018004dfc8 f i libucrt:output.obj
 0001:0004cfdc       ?advance_to_next_pass@?$standard_base@_WV?$string_output_adapter@_W@__crt_stdio_output@@@__crt_stdio_output@@IEAA_NXZ 000000018004dfdc f i libucrt:output.obj
 0001:0004cff0       ?crop_zeroes@__crt_stdio_output@@YAXPEADQEAU__crt_locale_pointers@@@Z 000000018004dff0 f i libucrt:output.obj
 0001:0004d084       ?find_next_state@?$output_processor@DV?$stream_output_adapter@D@__crt_stdio_output@@V?$format_validation_base@DV?$stream_output_adapter@D@__crt_stdio_output@@@2@@__crt_stdio_output@@AEBA?AW4state@2@DW432@@Z 000000018004e084 f i libucrt:output.obj
 0001:0004d0b4       ?find_next_state@?$output_processor@DV?$stream_output_adapter@D@__crt_stdio_output@@V?$positional_parameter_base@DV?$stream_output_adapter@D@__crt_stdio_output@@@2@@__crt_stdio_output@@AEBA?AW4state@2@DW432@@Z 000000018004e0b4 f i libucrt:output.obj
 0001:0004d0e4       ?find_next_state@?$output_processor@DV?$stream_output_adapter@D@__crt_stdio_output@@V?$standard_base@DV?$stream_output_adapter@D@__crt_stdio_output@@@2@@__crt_stdio_output@@AEBA?AW4state@2@DW432@@Z 000000018004e0e4 f i libucrt:output.obj
 0001:0004d114       ?find_next_state@?$output_processor@DV?$string_output_adapter@D@__crt_stdio_output@@V?$format_validation_base@DV?$string_output_adapter@D@__crt_stdio_output@@@2@@__crt_stdio_output@@AEBA?AW4state@2@DW432@@Z 000000018004e114 f i libucrt:output.obj
 0001:0004d144       ?find_next_state@?$output_processor@DV?$string_output_adapter@D@__crt_stdio_output@@V?$positional_parameter_base@DV?$string_output_adapter@D@__crt_stdio_output@@@2@@__crt_stdio_output@@AEBA?AW4state@2@DW432@@Z 000000018004e144 f i libucrt:output.obj
 0001:0004d174       ?find_next_state@?$output_processor@DV?$string_output_adapter@D@__crt_stdio_output@@V?$standard_base@DV?$string_output_adapter@D@__crt_stdio_output@@@2@@__crt_stdio_output@@AEBA?AW4state@2@DW432@@Z 000000018004e174 f i libucrt:output.obj
 0001:0004d1a4       ?find_next_state@?$output_processor@_WV?$stream_output_adapter@_W@__crt_stdio_output@@V?$format_validation_base@_WV?$stream_output_adapter@_W@__crt_stdio_output@@@2@@__crt_stdio_output@@AEBA?AW4state@2@_WW432@@Z 000000018004e1a4 f i libucrt:output.obj
 0001:0004d1dc       ?find_next_state@?$output_processor@_WV?$stream_output_adapter@_W@__crt_stdio_output@@V?$positional_parameter_base@_WV?$stream_output_adapter@_W@__crt_stdio_output@@@2@@__crt_stdio_output@@AEBA?AW4state@2@_WW432@@Z 000000018004e1dc f i libucrt:output.obj
 0001:0004d214       ?find_next_state@?$output_processor@_WV?$stream_output_adapter@_W@__crt_stdio_output@@V?$standard_base@_WV?$stream_output_adapter@_W@__crt_stdio_output@@@2@@__crt_stdio_output@@AEBA?AW4state@2@_WW432@@Z 000000018004e214 f i libucrt:output.obj
 0001:0004d24c       ?find_next_state@?$output_processor@_WV?$string_output_adapter@_W@__crt_stdio_output@@V?$format_validation_base@_WV?$string_output_adapter@_W@__crt_stdio_output@@@2@@__crt_stdio_output@@AEBA?AW4state@2@_WW432@@Z 000000018004e24c f i libucrt:output.obj
 0001:0004d284       ?find_next_state@?$output_processor@_WV?$string_output_adapter@_W@__crt_stdio_output@@V?$positional_parameter_base@_WV?$string_output_adapter@_W@__crt_stdio_output@@@2@@__crt_stdio_output@@AEBA?AW4state@2@_WW432@@Z 000000018004e284 f i libucrt:output.obj
 0001:0004d2bc       ?find_next_state@?$output_processor@_WV?$string_output_adapter@_W@__crt_stdio_output@@V?$standard_base@_WV?$string_output_adapter@_W@__crt_stdio_output@@@2@@__crt_stdio_output@@AEBA?AW4state@2@_WW432@@Z 000000018004e2bc f i libucrt:output.obj
 0001:0004d300       ?force_decimal_point@__crt_stdio_output@@YAXPEADQEAU__crt_locale_pointers@@@Z 000000018004e300 f i libucrt:output.obj
 0001:0004d378       ?get@__crt_deferred_errno_cache@@QEAAAEAHXZ 000000018004e378 f i libucrt:output.obj
 0001:0004d398       ?get_flags@__crt_stdio_stream@@QEBAJXZ 000000018004e398 f i libucrt:output.obj
 0001:0004d3a0       ?get_parameter_type@?$positional_parameter_base@DV?$stream_output_adapter@D@__crt_stdio_output@@@__crt_stdio_output@@CA?AW4parameter_type@12@F@Z 000000018004e3a0 f i libucrt:output.obj
 0001:0004d3a8       ?get_parameter_type@?$positional_parameter_base@DV?$stream_output_adapter@D@__crt_stdio_output@@@__crt_stdio_output@@CA?AW4parameter_type@12@G@Z 000000018004e3a8 f i libucrt:output.obj
 0001:0004d3b0       ?get_parameter_type@?$positional_parameter_base@DV?$stream_output_adapter@D@__crt_stdio_output@@@__crt_stdio_output@@CA?AW4parameter_type@12@H@Z 000000018004e3b0 f i libucrt:output.obj
 0001:0004d3b8       ?get_parameter_type@?$positional_parameter_base@DV?$stream_output_adapter@D@__crt_stdio_output@@@__crt_stdio_output@@CA?AW4parameter_type@12@I@Z 000000018004e3b8 f i libucrt:output.obj
 0001:0004d3c0       ?get_parameter_type@?$positional_parameter_base@DV?$stream_output_adapter@D@__crt_stdio_output@@@__crt_stdio_output@@CA?AW4parameter_type@12@U_CRT_DOUBLE@@@Z 000000018004e3c0 f i libucrt:output.obj
 0001:0004d3c8       ?get_parameter_type@?$positional_parameter_base@DV?$stream_output_adapter@D@__crt_stdio_output@@@__crt_stdio_output@@CA?AW4parameter_type@12@_J@Z 000000018004e3c8 f i libucrt:output.obj
 0001:0004d3d0       ?get_parameter_type@?$positional_parameter_base@DV?$stream_output_adapter@D@__crt_stdio_output@@@__crt_stdio_output@@CA?AW4parameter_type@12@_K@Z 000000018004e3d0 f i libucrt:output.obj
 0001:0004d3d8       ?get_parameter_type@?$positional_parameter_base@DV?$stream_output_adapter@D@__crt_stdio_output@@@__crt_stdio_output@@CA?AW4parameter_type@12@_W@Z 000000018004e3d8 f i libucrt:output.obj
 0001:0004d3e0       ?get_parameter_type@?$positional_parameter_base@DV?$string_output_adapter@D@__crt_stdio_output@@@__crt_stdio_output@@CA?AW4parameter_type@12@F@Z 000000018004e3e0 f i libucrt:output.obj
 0001:0004d3e8       ?get_parameter_type@?$positional_parameter_base@DV?$string_output_adapter@D@__crt_stdio_output@@@__crt_stdio_output@@CA?AW4parameter_type@12@G@Z 000000018004e3e8 f i libucrt:output.obj
 0001:0004d3f0       ?get_parameter_type@?$positional_parameter_base@DV?$string_output_adapter@D@__crt_stdio_output@@@__crt_stdio_output@@CA?AW4parameter_type@12@H@Z 000000018004e3f0 f i libucrt:output.obj
 0001:0004d3f8       ?get_parameter_type@?$positional_parameter_base@DV?$string_output_adapter@D@__crt_stdio_output@@@__crt_stdio_output@@CA?AW4parameter_type@12@I@Z 000000018004e3f8 f i libucrt:output.obj
 0001:0004d400       ?get_parameter_type@?$positional_parameter_base@DV?$string_output_adapter@D@__crt_stdio_output@@@__crt_stdio_output@@CA?AW4parameter_type@12@U_CRT_DOUBLE@@@Z 000000018004e400 f i libucrt:output.obj
 0001:0004d408       ?get_parameter_type@?$positional_parameter_base@DV?$string_output_adapter@D@__crt_stdio_output@@@__crt_stdio_output@@CA?AW4parameter_type@12@_J@Z 000000018004e408 f i libucrt:output.obj
 0001:0004d410       ?get_parameter_type@?$positional_parameter_base@DV?$string_output_adapter@D@__crt_stdio_output@@@__crt_stdio_output@@CA?AW4parameter_type@12@_K@Z 000000018004e410 f i libucrt:output.obj
 0001:0004d418       ?get_parameter_type@?$positional_parameter_base@DV?$string_output_adapter@D@__crt_stdio_output@@@__crt_stdio_output@@CA?AW4parameter_type@12@_W@Z 000000018004e418 f i libucrt:output.obj
 0001:0004d420       ?get_parameter_type@?$positional_parameter_base@_WV?$stream_output_adapter@_W@__crt_stdio_output@@@__crt_stdio_output@@CA?AW4parameter_type@12@F@Z 000000018004e420 f i libucrt:output.obj
 0001:0004d428       ?get_parameter_type@?$positional_parameter_base@_WV?$stream_output_adapter@_W@__crt_stdio_output@@@__crt_stdio_output@@CA?AW4parameter_type@12@G@Z 000000018004e428 f i libucrt:output.obj
 0001:0004d430       ?get_parameter_type@?$positional_parameter_base@_WV?$stream_output_adapter@_W@__crt_stdio_output@@@__crt_stdio_output@@CA?AW4parameter_type@12@H@Z 000000018004e430 f i libucrt:output.obj
 0001:0004d438       ?get_parameter_type@?$positional_parameter_base@_WV?$stream_output_adapter@_W@__crt_stdio_output@@@__crt_stdio_output@@CA?AW4parameter_type@12@I@Z 000000018004e438 f i libucrt:output.obj
 0001:0004d440       ?get_parameter_type@?$positional_parameter_base@_WV?$stream_output_adapter@_W@__crt_stdio_output@@@__crt_stdio_output@@CA?AW4parameter_type@12@U_CRT_DOUBLE@@@Z 000000018004e440 f i libucrt:output.obj
 0001:0004d448       ?get_parameter_type@?$positional_parameter_base@_WV?$stream_output_adapter@_W@__crt_stdio_output@@@__crt_stdio_output@@CA?AW4parameter_type@12@_J@Z 000000018004e448 f i libucrt:output.obj
 0001:0004d450       ?get_parameter_type@?$positional_parameter_base@_WV?$stream_output_adapter@_W@__crt_stdio_output@@@__crt_stdio_output@@CA?AW4parameter_type@12@_K@Z 000000018004e450 f i libucrt:output.obj
 0001:0004d458       ?get_parameter_type@?$positional_parameter_base@_WV?$stream_output_adapter@_W@__crt_stdio_output@@@__crt_stdio_output@@CA?AW4parameter_type@12@_W@Z 000000018004e458 f i libucrt:output.obj
 0001:0004d460       ?get_parameter_type@?$positional_parameter_base@_WV?$string_output_adapter@_W@__crt_stdio_output@@@__crt_stdio_output@@CA?AW4parameter_type@12@F@Z 000000018004e460 f i libucrt:output.obj
 0001:0004d468       ?get_parameter_type@?$positional_parameter_base@_WV?$string_output_adapter@_W@__crt_stdio_output@@@__crt_stdio_output@@CA?AW4parameter_type@12@G@Z 000000018004e468 f i libucrt:output.obj
 0001:0004d470       ?get_parameter_type@?$positional_parameter_base@_WV?$string_output_adapter@_W@__crt_stdio_output@@@__crt_stdio_output@@CA?AW4parameter_type@12@H@Z 000000018004e470 f i libucrt:output.obj
 0001:0004d478       ?get_parameter_type@?$positional_parameter_base@_WV?$string_output_adapter@_W@__crt_stdio_output@@@__crt_stdio_output@@CA?AW4parameter_type@12@I@Z 000000018004e478 f i libucrt:output.obj
 0001:0004d480       ?get_parameter_type@?$positional_parameter_base@_WV?$string_output_adapter@_W@__crt_stdio_output@@@__crt_stdio_output@@CA?AW4parameter_type@12@U_CRT_DOUBLE@@@Z 000000018004e480 f i libucrt:output.obj
 0001:0004d488       ?get_parameter_type@?$positional_parameter_base@_WV?$string_output_adapter@_W@__crt_stdio_output@@@__crt_stdio_output@@CA?AW4parameter_type@12@_J@Z 000000018004e488 f i libucrt:output.obj
 0001:0004d490       ?get_parameter_type@?$positional_parameter_base@_WV?$string_output_adapter@_W@__crt_stdio_output@@@__crt_stdio_output@@CA?AW4parameter_type@12@_K@Z 000000018004e490 f i libucrt:output.obj
 0001:0004d498       ?get_parameter_type@?$positional_parameter_base@_WV?$string_output_adapter@_W@__crt_stdio_output@@@__crt_stdio_output@@CA?AW4parameter_type@12@_W@Z 000000018004e498 f i libucrt:output.obj
 0001:0004d4a0       ?has_flag@?$output_processor@DV?$stream_output_adapter@D@__crt_stdio_output@@V?$format_validation_base@DV?$stream_output_adapter@D@__crt_stdio_output@@@2@@__crt_stdio_output@@AEBA_NI@Z 000000018004e4a0 f i libucrt:output.obj
 0001:0004d4a8       ?has_flag@?$output_processor@DV?$stream_output_adapter@D@__crt_stdio_output@@V?$positional_parameter_base@DV?$stream_output_adapter@D@__crt_stdio_output@@@2@@__crt_stdio_output@@AEBA_NI@Z 000000018004e4a8 f i libucrt:output.obj
 0001:0004d4b0       ?has_flag@?$output_processor@DV?$stream_output_adapter@D@__crt_stdio_output@@V?$standard_base@DV?$stream_output_adapter@D@__crt_stdio_output@@@2@@__crt_stdio_output@@AEBA_NI@Z 000000018004e4b0 f i libucrt:output.obj
 0001:0004d4b8       ?has_flag@?$output_processor@DV?$string_output_adapter@D@__crt_stdio_output@@V?$format_validation_base@DV?$string_output_adapter@D@__crt_stdio_output@@@2@@__crt_stdio_output@@AEBA_NI@Z 000000018004e4b8 f i libucrt:output.obj
 0001:0004d4c0       ?has_flag@?$output_processor@DV?$string_output_adapter@D@__crt_stdio_output@@V?$positional_parameter_base@DV?$string_output_adapter@D@__crt_stdio_output@@@2@@__crt_stdio_output@@AEBA_NI@Z 000000018004e4c0 f i libucrt:output.obj
 0001:0004d4c8       ?has_flag@?$output_processor@DV?$string_output_adapter@D@__crt_stdio_output@@V?$standard_base@DV?$string_output_adapter@D@__crt_stdio_output@@@2@@__crt_stdio_output@@AEBA_NI@Z 000000018004e4c8 f i libucrt:output.obj
 0001:0004d4d0       ?has_flag@?$output_processor@_WV?$stream_output_adapter@_W@__crt_stdio_output@@V?$format_validation_base@_WV?$stream_output_adapter@_W@__crt_stdio_output@@@2@@__crt_stdio_output@@AEBA_NI@Z 000000018004e4d0 f i libucrt:output.obj
 0001:0004d4d8       ?has_flag@?$output_processor@_WV?$stream_output_adapter@_W@__crt_stdio_output@@V?$positional_parameter_base@_WV?$stream_output_adapter@_W@__crt_stdio_output@@@2@@__crt_stdio_output@@AEBA_NI@Z 000000018004e4d8 f i libucrt:output.obj
 0001:0004d4e0       ?has_flag@?$output_processor@_WV?$stream_output_adapter@_W@__crt_stdio_output@@V?$standard_base@_WV?$stream_output_adapter@_W@__crt_stdio_output@@@2@@__crt_stdio_output@@AEBA_NI@Z 000000018004e4e0 f i libucrt:output.obj
 0001:0004d4e8       ?has_flag@?$output_processor@_WV?$string_output_adapter@_W@__crt_stdio_output@@V?$format_validation_base@_WV?$string_output_adapter@_W@__crt_stdio_output@@@2@@__crt_stdio_output@@AEBA_NI@Z 000000018004e4e8 f i libucrt:output.obj
 0001:0004d4f0       ?has_flag@?$output_processor@_WV?$string_output_adapter@_W@__crt_stdio_output@@V?$positional_parameter_base@_WV?$string_output_adapter@_W@__crt_stdio_output@@@2@@__crt_stdio_output@@AEBA_NI@Z 000000018004e4f0 f i libucrt:output.obj
 0001:0004d4f8       ?has_flag@?$output_processor@_WV?$string_output_adapter@_W@__crt_stdio_output@@V?$standard_base@_WV?$string_output_adapter@_W@__crt_stdio_output@@@2@@__crt_stdio_output@@AEBA_NI@Z 000000018004e4f8 f i libucrt:output.obj
 0001:0004d500       ?is_positional_parameter_reappearance_consistent@?$positional_parameter_base@DV?$stream_output_adapter@D@__crt_stdio_output@@@__crt_stdio_output@@AEAA_NAEBUparameter_data@12@W4parameter_type@12@DW4length_modifier@2@@Z 000000018004e500 f i libucrt:output.obj
 0001:0004d6a0       ?is_positional_parameter_reappearance_consistent@?$positional_parameter_base@DV?$string_output_adapter@D@__crt_stdio_output@@@__crt_stdio_output@@AEAA_NAEBUparameter_data@12@W4parameter_type@12@DW4length_modifier@2@@Z 000000018004e6a0 f i libucrt:output.obj
 0001:0004d840       ?is_positional_parameter_reappearance_consistent@?$positional_parameter_base@_WV?$stream_output_adapter@_W@__crt_stdio_output@@@__crt_stdio_output@@AEAA_NAEBUparameter_data@12@W4parameter_type@12@_WW4length_modifier@2@@Z 000000018004e840 f i libucrt:output.obj
 0001:0004d9ac       ?is_positional_parameter_reappearance_consistent@?$positional_parameter_base@_WV?$string_output_adapter@_W@__crt_stdio_output@@@__crt_stdio_output@@AEAA_NAEBUparameter_data@12@W4parameter_type@12@_WW4length_modifier@2@@Z 000000018004e9ac f i libucrt:output.obj
 0001:0004db18       ?is_string_backed@__crt_stdio_stream@@QEBA_NXZ 000000018004eb18 f i libucrt:output.obj
 0001:0004db24       ?narrow_null_string@?$output_processor@DV?$stream_output_adapter@D@__crt_stdio_output@@V?$format_validation_base@DV?$stream_output_adapter@D@__crt_stdio_output@@@2@@__crt_stdio_output@@CAPEADXZ 000000018004eb24 f i libucrt:output.obj
 0001:0004db2c       ?narrow_null_string@?$output_processor@DV?$stream_output_adapter@D@__crt_stdio_output@@V?$positional_parameter_base@DV?$stream_output_adapter@D@__crt_stdio_output@@@2@@__crt_stdio_output@@CAPEADXZ 000000018004eb2c f i libucrt:output.obj
 0001:0004db34       ?narrow_null_string@?$output_processor@DV?$stream_output_adapter@D@__crt_stdio_output@@V?$standard_base@DV?$stream_output_adapter@D@__crt_stdio_output@@@2@@__crt_stdio_output@@CAPEADXZ 000000018004eb34 f i libucrt:output.obj
 0001:0004db3c       ?narrow_null_string@?$output_processor@DV?$string_output_adapter@D@__crt_stdio_output@@V?$format_validation_base@DV?$string_output_adapter@D@__crt_stdio_output@@@2@@__crt_stdio_output@@CAPEADXZ 000000018004eb3c f i libucrt:output.obj
 0001:0004db44       ?narrow_null_string@?$output_processor@DV?$string_output_adapter@D@__crt_stdio_output@@V?$positional_parameter_base@DV?$string_output_adapter@D@__crt_stdio_output@@@2@@__crt_stdio_output@@CAPEADXZ 000000018004eb44 f i libucrt:output.obj
 0001:0004db4c       ?narrow_null_string@?$output_processor@DV?$string_output_adapter@D@__crt_stdio_output@@V?$standard_base@DV?$string_output_adapter@D@__crt_stdio_output@@@2@@__crt_stdio_output@@CAPEADXZ 000000018004eb4c f i libucrt:output.obj
 0001:0004db54       ?narrow_null_string@?$output_processor@_WV?$stream_output_adapter@_W@__crt_stdio_output@@V?$format_validation_base@_WV?$stream_output_adapter@_W@__crt_stdio_output@@@2@@__crt_stdio_output@@CAPEADXZ 000000018004eb54 f i libucrt:output.obj
 0001:0004db5c       ?narrow_null_string@?$output_processor@_WV?$stream_output_adapter@_W@__crt_stdio_output@@V?$positional_parameter_base@_WV?$stream_output_adapter@_W@__crt_stdio_output@@@2@@__crt_stdio_output@@CAPEADXZ 000000018004eb5c f i libucrt:output.obj
 0001:0004db64       ?narrow_null_string@?$output_processor@_WV?$stream_output_adapter@_W@__crt_stdio_output@@V?$standard_base@_WV?$stream_output_adapter@_W@__crt_stdio_output@@@2@@__crt_stdio_output@@CAPEADXZ 000000018004eb64 f i libucrt:output.obj
 0001:0004db6c       ?narrow_null_string@?$output_processor@_WV?$string_output_adapter@_W@__crt_stdio_output@@V?$format_validation_base@_WV?$string_output_adapter@_W@__crt_stdio_output@@@2@@__crt_stdio_output@@CAPEADXZ 000000018004eb6c f i libucrt:output.obj
 0001:0004db74       ?narrow_null_string@?$output_processor@_WV?$string_output_adapter@_W@__crt_stdio_output@@V?$positional_parameter_base@_WV?$string_output_adapter@_W@__crt_stdio_output@@@2@@__crt_stdio_output@@CAPEADXZ 000000018004eb74 f i libucrt:output.obj
 0001:0004db7c       ?narrow_null_string@?$output_processor@_WV?$string_output_adapter@_W@__crt_stdio_output@@V?$standard_base@_WV?$string_output_adapter@_W@__crt_stdio_output@@@2@@__crt_stdio_output@@CAPEADXZ 000000018004eb7c f i libucrt:output.obj
 0001:0004db84       ?parse_int_from_format_string@?$output_processor@DV?$stream_output_adapter@D@__crt_stdio_output@@V?$format_validation_base@DV?$stream_output_adapter@D@__crt_stdio_output@@@2@@__crt_stdio_output@@AEAA_NQEAH@Z 000000018004eb84 f i libucrt:output.obj
 0001:0004dc28       ?parse_int_from_format_string@?$output_processor@DV?$stream_output_adapter@D@__crt_stdio_output@@V?$positional_parameter_base@DV?$stream_output_adapter@D@__crt_stdio_output@@@2@@__crt_stdio_output@@AEAA_NQEAH@Z 000000018004ec28 f i libucrt:output.obj
 0001:0004dccc       ?parse_int_from_format_string@?$output_processor@DV?$stream_output_adapter@D@__crt_stdio_output@@V?$standard_base@DV?$stream_output_adapter@D@__crt_stdio_output@@@2@@__crt_stdio_output@@AEAA_NQEAH@Z 000000018004eccc f i libucrt:output.obj
 0001:0004dd70       ?parse_int_from_format_string@?$output_processor@DV?$string_output_adapter@D@__crt_stdio_output@@V?$format_validation_base@DV?$string_output_adapter@D@__crt_stdio_output@@@2@@__crt_stdio_output@@AEAA_NQEAH@Z 000000018004ed70 f i libucrt:output.obj
 0001:0004de14       ?parse_int_from_format_string@?$output_processor@DV?$string_output_adapter@D@__crt_stdio_output@@V?$positional_parameter_base@DV?$string_output_adapter@D@__crt_stdio_output@@@2@@__crt_stdio_output@@AEAA_NQEAH@Z 000000018004ee14 f i libucrt:output.obj
 0001:0004deb8       ?parse_int_from_format_string@?$output_processor@DV?$string_output_adapter@D@__crt_stdio_output@@V?$standard_base@DV?$string_output_adapter@D@__crt_stdio_output@@@2@@__crt_stdio_output@@AEAA_NQEAH@Z 000000018004eeb8 f i libucrt:output.obj
 0001:0004df5c       ?parse_int_from_format_string@?$output_processor@_WV?$stream_output_adapter@_W@__crt_stdio_output@@V?$format_validation_base@_WV?$stream_output_adapter@_W@__crt_stdio_output@@@2@@__crt_stdio_output@@AEAA_NQEAH@Z 000000018004ef5c f i libucrt:output.obj
 0001:0004e000       ?parse_int_from_format_string@?$output_processor@_WV?$stream_output_adapter@_W@__crt_stdio_output@@V?$positional_parameter_base@_WV?$stream_output_adapter@_W@__crt_stdio_output@@@2@@__crt_stdio_output@@AEAA_NQEAH@Z 000000018004f000 f i libucrt:output.obj
 0001:0004e0a4       ?parse_int_from_format_string@?$output_processor@_WV?$stream_output_adapter@_W@__crt_stdio_output@@V?$standard_base@_WV?$stream_output_adapter@_W@__crt_stdio_output@@@2@@__crt_stdio_output@@AEAA_NQEAH@Z 000000018004f0a4 f i libucrt:output.obj
 0001:0004e148       ?parse_int_from_format_string@?$output_processor@_WV?$string_output_adapter@_W@__crt_stdio_output@@V?$format_validation_base@_WV?$string_output_adapter@_W@__crt_stdio_output@@@2@@__crt_stdio_output@@AEAA_NQEAH@Z 000000018004f148 f i libucrt:output.obj
 0001:0004e1ec       ?parse_int_from_format_string@?$output_processor@_WV?$string_output_adapter@_W@__crt_stdio_output@@V?$positional_parameter_base@_WV?$string_output_adapter@_W@__crt_stdio_output@@@2@@__crt_stdio_output@@AEAA_NQEAH@Z 000000018004f1ec f i libucrt:output.obj
 0001:0004e290       ?parse_int_from_format_string@?$output_processor@_WV?$string_output_adapter@_W@__crt_stdio_output@@V?$standard_base@_WV?$string_output_adapter@_W@__crt_stdio_output@@@2@@__crt_stdio_output@@AEAA_NQEAH@Z 000000018004f290 f i libucrt:output.obj
 0001:0004e334       ?process@?$output_processor@DV?$stream_output_adapter@D@__crt_stdio_output@@V?$format_validation_base@DV?$stream_output_adapter@D@__crt_stdio_output@@@2@@__crt_stdio_output@@QEAAHXZ 000000018004f334 f i libucrt:output.obj
 0001:0004e558       ?process@?$output_processor@DV?$stream_output_adapter@D@__crt_stdio_output@@V?$positional_parameter_base@DV?$stream_output_adapter@D@__crt_stdio_output@@@2@@__crt_stdio_output@@QEAAHXZ 000000018004f558 f i libucrt:output.obj
 0001:0004e7fc       ?process@?$output_processor@DV?$stream_output_adapter@D@__crt_stdio_output@@V?$standard_base@DV?$stream_output_adapter@D@__crt_stdio_output@@@2@@__crt_stdio_output@@QEAAHXZ 000000018004f7fc f i libucrt:output.obj
 0001:0004ea10       ?process@?$output_processor@DV?$string_output_adapter@D@__crt_stdio_output@@V?$format_validation_base@DV?$string_output_adapter@D@__crt_stdio_output@@@2@@__crt_stdio_output@@QEAAHXZ 000000018004fa10 f i libucrt:output.obj
 0001:0004ec24       ?process@?$output_processor@DV?$string_output_adapter@D@__crt_stdio_output@@V?$positional_parameter_base@DV?$string_output_adapter@D@__crt_stdio_output@@@2@@__crt_stdio_output@@QEAAHXZ 000000018004fc24 f i libucrt:output.obj
 0001:0004eeb8       ?process@?$output_processor@DV?$string_output_adapter@D@__crt_stdio_output@@V?$standard_base@DV?$string_output_adapter@D@__crt_stdio_output@@@2@@__crt_stdio_output@@QEAAHXZ 000000018004feb8 f i libucrt:output.obj
 0001:0004f0c0       ?process@?$output_processor@_WV?$stream_output_adapter@_W@__crt_stdio_output@@V?$format_validation_base@_WV?$stream_output_adapter@_W@__crt_stdio_output@@@2@@__crt_stdio_output@@QEAAHXZ 00000001800500c0 f i libucrt:output.obj
 0001:0004f344       ?process@?$output_processor@_WV?$stream_output_adapter@_W@__crt_stdio_output@@V?$positional_parameter_base@_WV?$stream_output_adapter@_W@__crt_stdio_output@@@2@@__crt_stdio_output@@QEAAHXZ 0000000180050344 f i libucrt:output.obj
 0001:0004f600       ?process@?$output_processor@_WV?$stream_output_adapter@_W@__crt_stdio_output@@V?$standard_base@_WV?$stream_output_adapter@_W@__crt_stdio_output@@@2@@__crt_stdio_output@@QEAAHXZ 0000000180050600 f i libucrt:output.obj
 0001:0004f878       ?process@?$output_processor@_WV?$string_output_adapter@_W@__crt_stdio_output@@V?$format_validation_base@_WV?$string_output_adapter@_W@__crt_stdio_output@@@2@@__crt_stdio_output@@QEAAHXZ 0000000180050878 f i libucrt:output.obj
 0001:0004faf0       ?process@?$output_processor@_WV?$string_output_adapter@_W@__crt_stdio_output@@V?$positional_parameter_base@_WV?$string_output_adapter@_W@__crt_stdio_output@@@2@@__crt_stdio_output@@QEAAHXZ 0000000180050af0 f i libucrt:output.obj
 0001:0004fdac       ?process@?$output_processor@_WV?$string_output_adapter@_W@__crt_stdio_output@@V?$standard_base@_WV?$string_output_adapter@_W@__crt_stdio_output@@@2@@__crt_stdio_output@@QEAAHXZ 0000000180050dac f i libucrt:output.obj
 0001:00050018       ?public_stream@__crt_stdio_stream@@QEBAPEAU_iobuf@@XZ 0000000180051018 f i libucrt:output.obj
 0001:0005001c       ?set_flag@?$output_processor@DV?$stream_output_adapter@D@__crt_stdio_output@@V?$format_validation_base@DV?$stream_output_adapter@D@__crt_stdio_output@@@2@@__crt_stdio_output@@AEAAXI@Z 000000018005101c f i libucrt:output.obj
 0001:00050020       ?set_flag@?$output_processor@DV?$stream_output_adapter@D@__crt_stdio_output@@V?$positional_parameter_base@DV?$stream_output_adapter@D@__crt_stdio_output@@@2@@__crt_stdio_output@@AEAAXI@Z 0000000180051020 f i libucrt:output.obj
 0001:00050024       ?set_flag@?$output_processor@DV?$stream_output_adapter@D@__crt_stdio_output@@V?$standard_base@DV?$stream_output_adapter@D@__crt_stdio_output@@@2@@__crt_stdio_output@@AEAAXI@Z 0000000180051024 f i libucrt:output.obj
 0001:00050028       ?set_flag@?$output_processor@DV?$string_output_adapter@D@__crt_stdio_output@@V?$format_validation_base@DV?$string_output_adapter@D@__crt_stdio_output@@@2@@__crt_stdio_output@@AEAAXI@Z 0000000180051028 f i libucrt:output.obj
 0001:0005002c       ?set_flag@?$output_processor@DV?$string_output_adapter@D@__crt_stdio_output@@V?$positional_parameter_base@DV?$string_output_adapter@D@__crt_stdio_output@@@2@@__crt_stdio_output@@AEAAXI@Z 000000018005102c f i libucrt:output.obj
 0001:00050030       ?set_flag@?$output_processor@DV?$string_output_adapter@D@__crt_stdio_output@@V?$standard_base@DV?$string_output_adapter@D@__crt_stdio_output@@@2@@__crt_stdio_output@@AEAAXI@Z 0000000180051030 f i libucrt:output.obj
 0001:00050034       ?set_flag@?$output_processor@_WV?$stream_output_adapter@_W@__crt_stdio_output@@V?$format_validation_base@_WV?$stream_output_adapter@_W@__crt_stdio_output@@@2@@__crt_stdio_output@@AEAAXI@Z 0000000180051034 f i libucrt:output.obj
 0001:00050038       ?set_flag@?$output_processor@_WV?$stream_output_adapter@_W@__crt_stdio_output@@V?$positional_parameter_base@_WV?$stream_output_adapter@_W@__crt_stdio_output@@@2@@__crt_stdio_output@@AEAAXI@Z 0000000180051038 f i libucrt:output.obj
 0001:0005003c       ?set_flag@?$output_processor@_WV?$stream_output_adapter@_W@__crt_stdio_output@@V?$standard_base@_WV?$stream_output_adapter@_W@__crt_stdio_output@@@2@@__crt_stdio_output@@AEAAXI@Z 000000018005103c f i libucrt:output.obj
 0001:00050040       ?set_flag@?$output_processor@_WV?$string_output_adapter@_W@__crt_stdio_output@@V?$format_validation_base@_WV?$string_output_adapter@_W@__crt_stdio_output@@@2@@__crt_stdio_output@@AEAAXI@Z 0000000180051040 f i libucrt:output.obj
 0001:00050044       ?set_flag@?$output_processor@_WV?$string_output_adapter@_W@__crt_stdio_output@@V?$positional_parameter_base@_WV?$string_output_adapter@_W@__crt_stdio_output@@@2@@__crt_stdio_output@@AEAAXI@Z 0000000180051044 f i libucrt:output.obj
 0001:00050048       ?set_flag@?$output_processor@_WV?$string_output_adapter@_W@__crt_stdio_output@@V?$standard_base@_WV?$string_output_adapter@_W@__crt_stdio_output@@@2@@__crt_stdio_output@@AEAAXI@Z 0000000180051048 f i libucrt:output.obj
 0001:0005004c       ?should_format@?$positional_parameter_base@DV?$stream_output_adapter@D@__crt_stdio_output@@@__crt_stdio_output@@IEAA_NXZ 000000018005104c f i libucrt:output.obj
 0001:00050064       ?should_format@?$positional_parameter_base@DV?$string_output_adapter@D@__crt_stdio_output@@@__crt_stdio_output@@IEAA_NXZ 0000000180051064 f i libucrt:output.obj
 0001:0005007c       ?should_format@?$positional_parameter_base@_WV?$stream_output_adapter@_W@__crt_stdio_output@@@__crt_stdio_output@@IEAA_NXZ 000000018005107c f i libucrt:output.obj
 0001:00050094       ?should_format@?$positional_parameter_base@_WV?$string_output_adapter@_W@__crt_stdio_output@@@__crt_stdio_output@@IEAA_NXZ 0000000180051094 f i libucrt:output.obj
 0001:000500ac       ?should_format@?$standard_base@DV?$stream_output_adapter@D@__crt_stdio_output@@@__crt_stdio_output@@IEAA_NXZ 00000001800510ac f i libucrt:output.obj
 0001:000500b0       ?should_format@?$standard_base@DV?$string_output_adapter@D@__crt_stdio_output@@@__crt_stdio_output@@IEAA_NXZ 00000001800510b0 f i libucrt:output.obj
 0001:000500b4       ?should_format@?$standard_base@_WV?$stream_output_adapter@_W@__crt_stdio_output@@@__crt_stdio_output@@IEAA_NXZ 00000001800510b4 f i libucrt:output.obj
 0001:000500b8       ?should_format@?$standard_base@_WV?$string_output_adapter@_W@__crt_stdio_output@@@__crt_stdio_output@@IEAA_NXZ 00000001800510b8 f i libucrt:output.obj
 0001:000500bc       ?should_skip_normal_state_processing@?$positional_parameter_base@DV?$stream_output_adapter@D@__crt_stdio_output@@@__crt_stdio_output@@IEAA_NXZ 00000001800510bc f i libucrt:output.obj
 0001:000500e4       ?should_skip_normal_state_processing@?$positional_parameter_base@DV?$string_output_adapter@D@__crt_stdio_output@@@__crt_stdio_output@@IEAA_NXZ 00000001800510e4 f i libucrt:output.obj
 0001:0005010c       ?should_skip_normal_state_processing@?$positional_parameter_base@_WV?$stream_output_adapter@_W@__crt_stdio_output@@@__crt_stdio_output@@IEAA_NXZ 000000018005110c f i libucrt:output.obj
 0001:00050134       ?should_skip_normal_state_processing@?$positional_parameter_base@_WV?$string_output_adapter@_W@__crt_stdio_output@@@__crt_stdio_output@@IEAA_NXZ 0000000180051134 f i libucrt:output.obj
 0001:0005015c       ?should_skip_normal_state_processing@?$standard_base@DV?$stream_output_adapter@D@__crt_stdio_output@@@__crt_stdio_output@@IEAA_NXZ 000000018005115c f i libucrt:output.obj
 0001:00050160       ?should_skip_normal_state_processing@?$standard_base@DV?$string_output_adapter@D@__crt_stdio_output@@@__crt_stdio_output@@IEAA_NXZ 0000000180051160 f i libucrt:output.obj
 0001:00050164       ?should_skip_normal_state_processing@?$standard_base@_WV?$stream_output_adapter@_W@__crt_stdio_output@@@__crt_stdio_output@@IEAA_NXZ 0000000180051164 f i libucrt:output.obj
 0001:00050168       ?should_skip_normal_state_processing@?$standard_base@_WV?$string_output_adapter@_W@__crt_stdio_output@@@__crt_stdio_output@@IEAA_NXZ 0000000180051168 f i libucrt:output.obj
 0001:0005016c       ?should_skip_type_state_output@?$positional_parameter_base@DV?$stream_output_adapter@D@__crt_stdio_output@@@__crt_stdio_output@@IEBA_NXZ 000000018005116c f i libucrt:output.obj
 0001:00050188       ?should_skip_type_state_output@?$positional_parameter_base@DV?$string_output_adapter@D@__crt_stdio_output@@@__crt_stdio_output@@IEBA_NXZ 0000000180051188 f i libucrt:output.obj
 0001:000501a4       ?should_skip_type_state_output@?$positional_parameter_base@_WV?$stream_output_adapter@_W@__crt_stdio_output@@@__crt_stdio_output@@IEBA_NXZ 00000001800511a4 f i libucrt:output.obj
 0001:000501c0       ?should_skip_type_state_output@?$positional_parameter_base@_WV?$string_output_adapter@_W@__crt_stdio_output@@@__crt_stdio_output@@IEBA_NXZ 00000001800511c0 f i libucrt:output.obj
 0001:000501dc       ?should_skip_type_state_output@?$standard_base@DV?$stream_output_adapter@D@__crt_stdio_output@@@__crt_stdio_output@@IEBA_NXZ 00000001800511dc f i libucrt:output.obj
 0001:000501e0       ?should_skip_type_state_output@?$standard_base@DV?$string_output_adapter@D@__crt_stdio_output@@@__crt_stdio_output@@IEBA_NXZ 00000001800511e0 f i libucrt:output.obj
 0001:000501e4       ?should_skip_type_state_output@?$standard_base@_WV?$stream_output_adapter@_W@__crt_stdio_output@@@__crt_stdio_output@@IEBA_NXZ 00000001800511e4 f i libucrt:output.obj
 0001:000501e8       ?should_skip_type_state_output@?$standard_base@_WV?$string_output_adapter@_W@__crt_stdio_output@@@__crt_stdio_output@@IEBA_NXZ 00000001800511e8 f i libucrt:output.obj
 0001:000501ec       ?state_case_dot@?$output_processor@DV?$stream_output_adapter@D@__crt_stdio_output@@V?$format_validation_base@DV?$stream_output_adapter@D@__crt_stdio_output@@@2@@__crt_stdio_output@@AEAA_NXZ 00000001800511ec f i libucrt:output.obj
 0001:000501f4       ?state_case_dot@?$output_processor@DV?$stream_output_adapter@D@__crt_stdio_output@@V?$positional_parameter_base@DV?$stream_output_adapter@D@__crt_stdio_output@@@2@@__crt_stdio_output@@AEAA_NXZ 00000001800511f4 f i libucrt:output.obj
 0001:000501fc       ?state_case_dot@?$output_processor@DV?$stream_output_adapter@D@__crt_stdio_output@@V?$standard_base@DV?$stream_output_adapter@D@__crt_stdio_output@@@2@@__crt_stdio_output@@AEAA_NXZ 00000001800511fc f i libucrt:output.obj
 0001:00050204       ?state_case_dot@?$output_processor@DV?$string_output_adapter@D@__crt_stdio_output@@V?$format_validation_base@DV?$string_output_adapter@D@__crt_stdio_output@@@2@@__crt_stdio_output@@AEAA_NXZ 0000000180051204 f i libucrt:output.obj
 0001:0005020c       ?state_case_dot@?$output_processor@DV?$string_output_adapter@D@__crt_stdio_output@@V?$positional_parameter_base@DV?$string_output_adapter@D@__crt_stdio_output@@@2@@__crt_stdio_output@@AEAA_NXZ 000000018005120c f i libucrt:output.obj
 0001:00050214       ?state_case_dot@?$output_processor@DV?$string_output_adapter@D@__crt_stdio_output@@V?$standard_base@DV?$string_output_adapter@D@__crt_stdio_output@@@2@@__crt_stdio_output@@AEAA_NXZ 0000000180051214 f i libucrt:output.obj
 0001:0005021c       ?state_case_dot@?$output_processor@_WV?$stream_output_adapter@_W@__crt_stdio_output@@V?$format_validation_base@_WV?$stream_output_adapter@_W@__crt_stdio_output@@@2@@__crt_stdio_output@@AEAA_NXZ 000000018005121c f i libucrt:output.obj
 0001:00050224       ?state_case_dot@?$output_processor@_WV?$stream_output_adapter@_W@__crt_stdio_output@@V?$positional_parameter_base@_WV?$stream_output_adapter@_W@__crt_stdio_output@@@2@@__crt_stdio_output@@AEAA_NXZ 0000000180051224 f i libucrt:output.obj
 0001:0005022c       ?state_case_dot@?$output_processor@_WV?$stream_output_adapter@_W@__crt_stdio_output@@V?$standard_base@_WV?$stream_output_adapter@_W@__crt_stdio_output@@@2@@__crt_stdio_output@@AEAA_NXZ 000000018005122c f i libucrt:output.obj
 0001:00050234       ?state_case_dot@?$output_processor@_WV?$string_output_adapter@_W@__crt_stdio_output@@V?$format_validation_base@_WV?$string_output_adapter@_W@__crt_stdio_output@@@2@@__crt_stdio_output@@AEAA_NXZ 0000000180051234 f i libucrt:output.obj
 0001:0005023c       ?state_case_dot@?$output_processor@_WV?$string_output_adapter@_W@__crt_stdio_output@@V?$positional_parameter_base@_WV?$string_output_adapter@_W@__crt_stdio_output@@@2@@__crt_stdio_output@@AEAA_NXZ 000000018005123c f i libucrt:output.obj
 0001:00050244       ?state_case_dot@?$output_processor@_WV?$string_output_adapter@_W@__crt_stdio_output@@V?$standard_base@_WV?$string_output_adapter@_W@__crt_stdio_output@@@2@@__crt_stdio_output@@AEAA_NXZ 0000000180051244 f i libucrt:output.obj
 0001:0005024c       ?state_case_flag@?$output_processor@DV?$stream_output_adapter@D@__crt_stdio_output@@V?$format_validation_base@DV?$stream_output_adapter@D@__crt_stdio_output@@@2@@__crt_stdio_output@@AEAA_NXZ 000000018005124c f i libucrt:output.obj
 0001:00050284       ?state_case_flag@?$output_processor@DV?$stream_output_adapter@D@__crt_stdio_output@@V?$positional_parameter_base@DV?$stream_output_adapter@D@__crt_stdio_output@@@2@@__crt_stdio_output@@AEAA_NXZ 0000000180051284 f i libucrt:output.obj
 0001:000502bc       ?state_case_flag@?$output_processor@DV?$stream_output_adapter@D@__crt_stdio_output@@V?$standard_base@DV?$stream_output_adapter@D@__crt_stdio_output@@@2@@__crt_stdio_output@@AEAA_NXZ 00000001800512bc f i libucrt:output.obj
 0001:000502f4       ?state_case_flag@?$output_processor@DV?$string_output_adapter@D@__crt_stdio_output@@V?$format_validation_base@DV?$string_output_adapter@D@__crt_stdio_output@@@2@@__crt_stdio_output@@AEAA_NXZ 00000001800512f4 f i libucrt:output.obj
 0001:0005032c       ?state_case_flag@?$output_processor@DV?$string_output_adapter@D@__crt_stdio_output@@V?$positional_parameter_base@DV?$string_output_adapter@D@__crt_stdio_output@@@2@@__crt_stdio_output@@AEAA_NXZ 000000018005132c f i libucrt:output.obj
 0001:00050364       ?state_case_flag@?$output_processor@DV?$string_output_adapter@D@__crt_stdio_output@@V?$standard_base@DV?$string_output_adapter@D@__crt_stdio_output@@@2@@__crt_stdio_output@@AEAA_NXZ 0000000180051364 f i libucrt:output.obj
 0001:0005039c       ?state_case_flag@?$output_processor@_WV?$stream_output_adapter@_W@__crt_stdio_output@@V?$format_validation_base@_WV?$stream_output_adapter@_W@__crt_stdio_output@@@2@@__crt_stdio_output@@AEAA_NXZ 000000018005139c f i libucrt:output.obj
 0001:000503e0       ?state_case_flag@?$output_processor@_WV?$stream_output_adapter@_W@__crt_stdio_output@@V?$positional_parameter_base@_WV?$stream_output_adapter@_W@__crt_stdio_output@@@2@@__crt_stdio_output@@AEAA_NXZ 00000001800513e0 f i libucrt:output.obj
 0001:00050424       ?state_case_flag@?$output_processor@_WV?$stream_output_adapter@_W@__crt_stdio_output@@V?$standard_base@_WV?$stream_output_adapter@_W@__crt_stdio_output@@@2@@__crt_stdio_output@@AEAA_NXZ 0000000180051424 f i libucrt:output.obj
 0001:00050468       ?state_case_flag@?$output_processor@_WV?$string_output_adapter@_W@__crt_stdio_output@@V?$format_validation_base@_WV?$string_output_adapter@_W@__crt_stdio_output@@@2@@__crt_stdio_output@@AEAA_NXZ 0000000180051468 f i libucrt:output.obj
 0001:000504ac       ?state_case_flag@?$output_processor@_WV?$string_output_adapter@_W@__crt_stdio_output@@V?$positional_parameter_base@_WV?$string_output_adapter@_W@__crt_stdio_output@@@2@@__crt_stdio_output@@AEAA_NXZ 00000001800514ac f i libucrt:output.obj
 0001:000504f0       ?state_case_flag@?$output_processor@_WV?$string_output_adapter@_W@__crt_stdio_output@@V?$standard_base@_WV?$string_output_adapter@_W@__crt_stdio_output@@@2@@__crt_stdio_output@@AEAA_NXZ 00000001800514f0 f i libucrt:output.obj
 0001:00050534       ?state_case_normal@?$output_processor@DV?$stream_output_adapter@D@__crt_stdio_output@@V?$format_validation_base@DV?$stream_output_adapter@D@__crt_stdio_output@@@2@@__crt_stdio_output@@AEAA_NXZ 0000000180051534 f i libucrt:output.obj
 0001:000505a4       ?state_case_normal@?$output_processor@DV?$stream_output_adapter@D@__crt_stdio_output@@V?$positional_parameter_base@DV?$stream_output_adapter@D@__crt_stdio_output@@@2@@__crt_stdio_output@@AEAA_NXZ 00000001800515a4 f i libucrt:output.obj
 0001:00050638       ?state_case_normal@?$output_processor@DV?$stream_output_adapter@D@__crt_stdio_output@@V?$standard_base@DV?$stream_output_adapter@D@__crt_stdio_output@@@2@@__crt_stdio_output@@AEAA_NXZ 0000000180051638 f i libucrt:output.obj
 0001:000506a8       ?state_case_normal@?$output_processor@DV?$string_output_adapter@D@__crt_stdio_output@@V?$format_validation_base@DV?$string_output_adapter@D@__crt_stdio_output@@@2@@__crt_stdio_output@@AEAA_NXZ 00000001800516a8 f i libucrt:output.obj
 0001:0005071c       ?state_case_normal@?$output_processor@DV?$string_output_adapter@D@__crt_stdio_output@@V?$positional_parameter_base@DV?$string_output_adapter@D@__crt_stdio_output@@@2@@__crt_stdio_output@@AEAA_NXZ 000000018005171c f i libucrt:output.obj
 0001:000507b4       ?state_case_normal@?$output_processor@DV?$string_output_adapter@D@__crt_stdio_output@@V?$standard_base@DV?$string_output_adapter@D@__crt_stdio_output@@@2@@__crt_stdio_output@@AEAA_NXZ 00000001800517b4 f i libucrt:output.obj
 0001:00050828       ?state_case_normal@?$output_processor@_WV?$stream_output_adapter@_W@__crt_stdio_output@@V?$format_validation_base@_WV?$stream_output_adapter@_W@__crt_stdio_output@@@2@@__crt_stdio_output@@AEAA_NXZ 0000000180051828 f i libucrt:output.obj
 0001:00050880       ?state_case_normal@?$output_processor@_WV?$stream_output_adapter@_W@__crt_stdio_output@@V?$positional_parameter_base@_WV?$stream_output_adapter@_W@__crt_stdio_output@@@2@@__crt_stdio_output@@AEAA_NXZ 0000000180051880 f i libucrt:output.obj
 0001:000508fc       ?state_case_normal@?$output_processor@_WV?$stream_output_adapter@_W@__crt_stdio_output@@V?$standard_base@_WV?$stream_output_adapter@_W@__crt_stdio_output@@@2@@__crt_stdio_output@@AEAA_NXZ 00000001800518fc f i libucrt:output.obj
 0001:00050954       ?state_case_normal@?$output_processor@_WV?$string_output_adapter@_W@__crt_stdio_output@@V?$format_validation_base@_WV?$string_output_adapter@_W@__crt_stdio_output@@@2@@__crt_stdio_output@@AEAA_NXZ 0000000180051954 f i libucrt:output.obj
 0001:000509a8       ?state_case_normal@?$output_processor@_WV?$string_output_adapter@_W@__crt_stdio_output@@V?$positional_parameter_base@_WV?$string_output_adapter@_W@__crt_stdio_output@@@2@@__crt_stdio_output@@AEAA_NXZ 00000001800519a8 f i libucrt:output.obj
 0001:00050a20       ?state_case_normal@?$output_processor@_WV?$string_output_adapter@_W@__crt_stdio_output@@V?$standard_base@_WV?$string_output_adapter@_W@__crt_stdio_output@@@2@@__crt_stdio_output@@AEAA_NXZ 0000000180051a20 f i libucrt:output.obj
 0001:00050a74       ?state_case_normal_common@?$output_processor@DV?$stream_output_adapter@D@__crt_stdio_output@@V?$format_validation_base@DV?$stream_output_adapter@D@__crt_stdio_output@@@2@@__crt_stdio_output@@AEAA_NXZ 0000000180051a74 f i libucrt:output.obj
 0001:00050ad0       ?state_case_normal_common@?$output_processor@DV?$stream_output_adapter@D@__crt_stdio_output@@V?$positional_parameter_base@DV?$stream_output_adapter@D@__crt_stdio_output@@@2@@__crt_stdio_output@@AEAA_NXZ 0000000180051ad0 f i libucrt:output.obj
 0001:00050b2c       ?state_case_normal_common@?$output_processor@DV?$stream_output_adapter@D@__crt_stdio_output@@V?$standard_base@DV?$stream_output_adapter@D@__crt_stdio_output@@@2@@__crt_stdio_output@@AEAA_NXZ 0000000180051b2c f i libucrt:output.obj
 0001:00050b88       ?state_case_normal_common@?$output_processor@DV?$string_output_adapter@D@__crt_stdio_output@@V?$format_validation_base@DV?$string_output_adapter@D@__crt_stdio_output@@@2@@__crt_stdio_output@@AEAA_NXZ 0000000180051b88 f i libucrt:output.obj
 0001:00050be8       ?state_case_normal_common@?$output_processor@DV?$string_output_adapter@D@__crt_stdio_output@@V?$positional_parameter_base@DV?$string_output_adapter@D@__crt_stdio_output@@@2@@__crt_stdio_output@@AEAA_NXZ 0000000180051be8 f i libucrt:output.obj
 0001:00050c48       ?state_case_normal_common@?$output_processor@DV?$string_output_adapter@D@__crt_stdio_output@@V?$standard_base@DV?$string_output_adapter@D@__crt_stdio_output@@@2@@__crt_stdio_output@@AEAA_NXZ 0000000180051c48 f i libucrt:output.obj
 0001:00050ca8       ?state_case_normal_common@?$output_processor@_WV?$stream_output_adapter@_W@__crt_stdio_output@@V?$format_validation_base@_WV?$stream_output_adapter@_W@__crt_stdio_output@@@2@@__crt_stdio_output@@AEAA_NXZ 0000000180051ca8 f i libucrt:output.obj
 0001:00050d00       ?state_case_normal_common@?$output_processor@_WV?$stream_output_adapter@_W@__crt_stdio_output@@V?$positional_parameter_base@_WV?$stream_output_adapter@_W@__crt_stdio_output@@@2@@__crt_stdio_output@@AEAA_NXZ 0000000180051d00 f i libucrt:output.obj
 0001:00050d58       ?state_case_normal_common@?$output_processor@_WV?$stream_output_adapter@_W@__crt_stdio_output@@V?$standard_base@_WV?$stream_output_adapter@_W@__crt_stdio_output@@@2@@__crt_stdio_output@@AEAA_NXZ 0000000180051d58 f i libucrt:output.obj
 0001:00050db0       ?state_case_normal_common@?$output_processor@_WV?$string_output_adapter@_W@__crt_stdio_output@@V?$format_validation_base@_WV?$string_output_adapter@_W@__crt_stdio_output@@@2@@__crt_stdio_output@@AEAA_NXZ 0000000180051db0 f i libucrt:output.obj
 0001:00050e04       ?state_case_normal_common@?$output_processor@_WV?$string_output_adapter@_W@__crt_stdio_output@@V?$positional_parameter_base@_WV?$string_output_adapter@_W@__crt_stdio_output@@@2@@__crt_stdio_output@@AEAA_NXZ 0000000180051e04 f i libucrt:output.obj
 0001:00050e58       ?state_case_normal_common@?$output_processor@_WV?$string_output_adapter@_W@__crt_stdio_output@@V?$standard_base@_WV?$string_output_adapter@_W@__crt_stdio_output@@@2@@__crt_stdio_output@@AEAA_NXZ 0000000180051e58 f i libucrt:output.obj
 0001:00050eac       ?state_case_normal_tchar@?$output_processor@DV?$stream_output_adapter@D@__crt_stdio_output@@V?$format_validation_base@DV?$stream_output_adapter@D@__crt_stdio_output@@@2@@__crt_stdio_output@@AEAA_ND@Z 0000000180051eac f i libucrt:output.obj
 0001:00050f50       ?state_case_normal_tchar@?$output_processor@DV?$stream_output_adapter@D@__crt_stdio_output@@V?$positional_parameter_base@DV?$stream_output_adapter@D@__crt_stdio_output@@@2@@__crt_stdio_output@@AEAA_ND@Z 0000000180051f50 f i libucrt:output.obj
 0001:00050ff4       ?state_case_normal_tchar@?$output_processor@DV?$stream_output_adapter@D@__crt_stdio_output@@V?$standard_base@DV?$stream_output_adapter@D@__crt_stdio_output@@@2@@__crt_stdio_output@@AEAA_ND@Z 0000000180051ff4 f i libucrt:output.obj
 0001:00051098       ?state_case_normal_tchar@?$output_processor@DV?$string_output_adapter@D@__crt_stdio_output@@V?$format_validation_base@DV?$string_output_adapter@D@__crt_stdio_output@@@2@@__crt_stdio_output@@AEAA_ND@Z 0000000180052098 f i libucrt:output.obj
 0001:00051140       ?state_case_normal_tchar@?$output_processor@DV?$string_output_adapter@D@__crt_stdio_output@@V?$positional_parameter_base@DV?$string_output_adapter@D@__crt_stdio_output@@@2@@__crt_stdio_output@@AEAA_ND@Z 0000000180052140 f i libucrt:output.obj
 0001:000511e8       ?state_case_normal_tchar@?$output_processor@DV?$string_output_adapter@D@__crt_stdio_output@@V?$standard_base@DV?$string_output_adapter@D@__crt_stdio_output@@@2@@__crt_stdio_output@@AEAA_ND@Z 00000001800521e8 f i libucrt:output.obj
 0001:00051290       ?state_case_normal_tchar@?$output_processor@_WV?$stream_output_adapter@_W@__crt_stdio_output@@V?$format_validation_base@_WV?$stream_output_adapter@_W@__crt_stdio_output@@@2@@__crt_stdio_output@@AEAA_N_W@Z 0000000180052290 f i libucrt:output.obj
 0001:00051298       ?state_case_normal_tchar@?$output_processor@_WV?$stream_output_adapter@_W@__crt_stdio_output@@V?$positional_parameter_base@_WV?$stream_output_adapter@_W@__crt_stdio_output@@@2@@__crt_stdio_output@@AEAA_N_W@Z 0000000180052298 f i libucrt:output.obj
 0001:000512a0       ?state_case_normal_tchar@?$output_processor@_WV?$stream_output_adapter@_W@__crt_stdio_output@@V?$standard_base@_WV?$stream_output_adapter@_W@__crt_stdio_output@@@2@@__crt_stdio_output@@AEAA_N_W@Z 00000001800522a0 f i libucrt:output.obj
 0001:000512a8       ?state_case_normal_tchar@?$output_processor@_WV?$string_output_adapter@_W@__crt_stdio_output@@V?$format_validation_base@_WV?$string_output_adapter@_W@__crt_stdio_output@@@2@@__crt_stdio_output@@AEAA_N_W@Z 00000001800522a8 f i libucrt:output.obj
 0001:000512b0       ?state_case_normal_tchar@?$output_processor@_WV?$string_output_adapter@_W@__crt_stdio_output@@V?$positional_parameter_base@_WV?$string_output_adapter@_W@__crt_stdio_output@@@2@@__crt_stdio_output@@AEAA_N_W@Z 00000001800522b0 f i libucrt:output.obj
 0001:000512b8       ?state_case_normal_tchar@?$output_processor@_WV?$string_output_adapter@_W@__crt_stdio_output@@V?$standard_base@_WV?$string_output_adapter@_W@__crt_stdio_output@@@2@@__crt_stdio_output@@AEAA_N_W@Z 00000001800522b8 f i libucrt:output.obj
 0001:000512c0       ?state_case_percent@?$output_processor@DV?$stream_output_adapter@D@__crt_stdio_output@@V?$format_validation_base@DV?$stream_output_adapter@D@__crt_stdio_output@@@2@@__crt_stdio_output@@AEAA_NXZ 00000001800522c0 f i libucrt:output.obj
 0001:000512d8       ?state_case_percent@?$output_processor@DV?$stream_output_adapter@D@__crt_stdio_output@@V?$positional_parameter_base@DV?$stream_output_adapter@D@__crt_stdio_output@@@2@@__crt_stdio_output@@AEAA_NXZ 00000001800522d8 f i libucrt:output.obj
 0001:000512f0       ?state_case_percent@?$output_processor@DV?$stream_output_adapter@D@__crt_stdio_output@@V?$standard_base@DV?$stream_output_adapter@D@__crt_stdio_output@@@2@@__crt_stdio_output@@AEAA_NXZ 00000001800522f0 f i libucrt:output.obj
 0001:00051308       ?state_case_percent@?$output_processor@DV?$string_output_adapter@D@__crt_stdio_output@@V?$format_validation_base@DV?$string_output_adapter@D@__crt_stdio_output@@@2@@__crt_stdio_output@@AEAA_NXZ 0000000180052308 f i libucrt:output.obj
 0001:00051320       ?state_case_percent@?$output_processor@DV?$string_output_adapter@D@__crt_stdio_output@@V?$positional_parameter_base@DV?$string_output_adapter@D@__crt_stdio_output@@@2@@__crt_stdio_output@@AEAA_NXZ 0000000180052320 f i libucrt:output.obj
 0001:00051338       ?state_case_percent@?$output_processor@DV?$string_output_adapter@D@__crt_stdio_output@@V?$standard_base@DV?$string_output_adapter@D@__crt_stdio_output@@@2@@__crt_stdio_output@@AEAA_NXZ 0000000180052338 f i libucrt:output.obj
 0001:00051350       ?state_case_percent@?$output_processor@_WV?$stream_output_adapter@_W@__crt_stdio_output@@V?$format_validation_base@_WV?$stream_output_adapter@_W@__crt_stdio_output@@@2@@__crt_stdio_output@@AEAA_NXZ 0000000180052350 f i libucrt:output.obj
 0001:00051368       ?state_case_percent@?$output_processor@_WV?$stream_output_adapter@_W@__crt_stdio_output@@V?$positional_parameter_base@_WV?$stream_output_adapter@_W@__crt_stdio_output@@@2@@__crt_stdio_output@@AEAA_NXZ 0000000180052368 f i libucrt:output.obj
 0001:00051380       ?state_case_percent@?$output_processor@_WV?$stream_output_adapter@_W@__crt_stdio_output@@V?$standard_base@_WV?$stream_output_adapter@_W@__crt_stdio_output@@@2@@__crt_stdio_output@@AEAA_NXZ 0000000180052380 f i libucrt:output.obj
 0001:00051398       ?state_case_percent@?$output_processor@_WV?$string_output_adapter@_W@__crt_stdio_output@@V?$format_validation_base@_WV?$string_output_adapter@_W@__crt_stdio_output@@@2@@__crt_stdio_output@@AEAA_NXZ 0000000180052398 f i libucrt:output.obj
 0001:000513b0       ?state_case_percent@?$output_processor@_WV?$string_output_adapter@_W@__crt_stdio_output@@V?$positional_parameter_base@_WV?$string_output_adapter@_W@__crt_stdio_output@@@2@@__crt_stdio_output@@AEAA_NXZ 00000001800523b0 f i libucrt:output.obj
 0001:000513c8       ?state_case_percent@?$output_processor@_WV?$string_output_adapter@_W@__crt_stdio_output@@V?$standard_base@_WV?$string_output_adapter@_W@__crt_stdio_output@@@2@@__crt_stdio_output@@AEAA_NXZ 00000001800523c8 f i libucrt:output.obj
 0001:000513e0       ?state_case_precision@?$output_processor@DV?$stream_output_adapter@D@__crt_stdio_output@@V?$format_validation_base@DV?$stream_output_adapter@D@__crt_stdio_output@@@2@@__crt_stdio_output@@AEAA_NXZ 00000001800523e0 f i libucrt:output.obj
 0001:00051408       ?state_case_precision@?$output_processor@DV?$stream_output_adapter@D@__crt_stdio_output@@V?$positional_parameter_base@DV?$stream_output_adapter@D@__crt_stdio_output@@@2@@__crt_stdio_output@@AEAA_NXZ 0000000180052408 f i libucrt:output.obj
 0001:00051454       ?state_case_precision@?$output_processor@DV?$stream_output_adapter@D@__crt_stdio_output@@V?$standard_base@DV?$stream_output_adapter@D@__crt_stdio_output@@@2@@__crt_stdio_output@@AEAA_NXZ 0000000180052454 f i libucrt:output.obj
 0001:0005147c       ?state_case_precision@?$output_processor@DV?$string_output_adapter@D@__crt_stdio_output@@V?$format_validation_base@DV?$string_output_adapter@D@__crt_stdio_output@@@2@@__crt_stdio_output@@AEAA_NXZ 000000018005247c f i libucrt:output.obj
 0001:000514a4       ?state_case_precision@?$output_processor@DV?$string_output_adapter@D@__crt_stdio_output@@V?$positional_parameter_base@DV?$string_output_adapter@D@__crt_stdio_output@@@2@@__crt_stdio_output@@AEAA_NXZ 00000001800524a4 f i libucrt:output.obj
 0001:000514f0       ?state_case_precision@?$output_processor@DV?$string_output_adapter@D@__crt_stdio_output@@V?$standard_base@DV?$string_output_adapter@D@__crt_stdio_output@@@2@@__crt_stdio_output@@AEAA_NXZ 00000001800524f0 f i libucrt:output.obj
 0001:00051518       ?state_case_precision@?$output_processor@_WV?$stream_output_adapter@_W@__crt_stdio_output@@V?$format_validation_base@_WV?$stream_output_adapter@_W@__crt_stdio_output@@@2@@__crt_stdio_output@@AEAA_NXZ 0000000180052518 f i libucrt:output.obj
 0001:00051540       ?state_case_precision@?$output_processor@_WV?$stream_output_adapter@_W@__crt_stdio_output@@V?$positional_parameter_base@_WV?$stream_output_adapter@_W@__crt_stdio_output@@@2@@__crt_stdio_output@@AEAA_NXZ 0000000180052540 f i libucrt:output.obj
 0001:0005158c       ?state_case_precision@?$output_processor@_WV?$stream_output_adapter@_W@__crt_stdio_output@@V?$standard_base@_WV?$stream_output_adapter@_W@__crt_stdio_output@@@2@@__crt_stdio_output@@AEAA_NXZ 000000018005258c f i libucrt:output.obj
 0001:000515b4       ?state_case_precision@?$output_processor@_WV?$string_output_adapter@_W@__crt_stdio_output@@V?$format_validation_base@_WV?$string_output_adapter@_W@__crt_stdio_output@@@2@@__crt_stdio_output@@AEAA_NXZ 00000001800525b4 f i libucrt:output.obj
 0001:000515dc       ?state_case_precision@?$output_processor@_WV?$string_output_adapter@_W@__crt_stdio_output@@V?$positional_parameter_base@_WV?$string_output_adapter@_W@__crt_stdio_output@@@2@@__crt_stdio_output@@AEAA_NXZ 00000001800525dc f i libucrt:output.obj
 0001:00051628       ?state_case_precision@?$output_processor@_WV?$string_output_adapter@_W@__crt_stdio_output@@V?$standard_base@_WV?$string_output_adapter@_W@__crt_stdio_output@@@2@@__crt_stdio_output@@AEAA_NXZ 0000000180052628 f i libucrt:output.obj
 0001:00051650       ?state_case_size@?$output_processor@DV?$stream_output_adapter@D@__crt_stdio_output@@V?$format_validation_base@DV?$stream_output_adapter@D@__crt_stdio_output@@@2@@__crt_stdio_output@@AEAA_NXZ 0000000180052650 f i libucrt:output.obj
 0001:000517c0       ?state_case_size@?$output_processor@DV?$stream_output_adapter@D@__crt_stdio_output@@V?$positional_parameter_base@DV?$stream_output_adapter@D@__crt_stdio_output@@@2@@__crt_stdio_output@@AEAA_NXZ 00000001800527c0 f i libucrt:output.obj
 0001:00051930       ?state_case_size@?$output_processor@DV?$stream_output_adapter@D@__crt_stdio_output@@V?$standard_base@DV?$stream_output_adapter@D@__crt_stdio_output@@@2@@__crt_stdio_output@@AEAA_NXZ 0000000180052930 f i libucrt:output.obj
 0001:00051aa0       ?state_case_size@?$output_processor@DV?$string_output_adapter@D@__crt_stdio_output@@V?$format_validation_base@DV?$string_output_adapter@D@__crt_stdio_output@@@2@@__crt_stdio_output@@AEAA_NXZ 0000000180052aa0 f i libucrt:output.obj
 0001:00051c10       ?state_case_size@?$output_processor@DV?$string_output_adapter@D@__crt_stdio_output@@V?$positional_parameter_base@DV?$string_output_adapter@D@__crt_stdio_output@@@2@@__crt_stdio_output@@AEAA_NXZ 0000000180052c10 f i libucrt:output.obj
 0001:00051d80       ?state_case_size@?$output_processor@DV?$string_output_adapter@D@__crt_stdio_output@@V?$standard_base@DV?$string_output_adapter@D@__crt_stdio_output@@@2@@__crt_stdio_output@@AEAA_NXZ 0000000180052d80 f i libucrt:output.obj
 0001:00051ef0       ?state_case_size@?$output_processor@_WV?$stream_output_adapter@_W@__crt_stdio_output@@V?$format_validation_base@_WV?$stream_output_adapter@_W@__crt_stdio_output@@@2@@__crt_stdio_output@@AEAA_NXZ 0000000180052ef0 f i libucrt:output.obj
 0001:00052084       ?state_case_size@?$output_processor@_WV?$stream_output_adapter@_W@__crt_stdio_output@@V?$positional_parameter_base@_WV?$stream_output_adapter@_W@__crt_stdio_output@@@2@@__crt_stdio_output@@AEAA_NXZ 0000000180053084 f i libucrt:output.obj
 0001:00052218       ?state_case_size@?$output_processor@_WV?$stream_output_adapter@_W@__crt_stdio_output@@V?$standard_base@_WV?$stream_output_adapter@_W@__crt_stdio_output@@@2@@__crt_stdio_output@@AEAA_NXZ 0000000180053218 f i libucrt:output.obj
 0001:000523ac       ?state_case_size@?$output_processor@_WV?$string_output_adapter@_W@__crt_stdio_output@@V?$format_validation_base@_WV?$string_output_adapter@_W@__crt_stdio_output@@@2@@__crt_stdio_output@@AEAA_NXZ 00000001800533ac f i libucrt:output.obj
 0001:00052540       ?state_case_size@?$output_processor@_WV?$string_output_adapter@_W@__crt_stdio_output@@V?$positional_parameter_base@_WV?$string_output_adapter@_W@__crt_stdio_output@@@2@@__crt_stdio_output@@AEAA_NXZ 0000000180053540 f i libucrt:output.obj
 0001:000526d4       ?state_case_size@?$output_processor@_WV?$string_output_adapter@_W@__crt_stdio_output@@V?$standard_base@_WV?$string_output_adapter@_W@__crt_stdio_output@@@2@@__crt_stdio_output@@AEAA_NXZ 00000001800536d4 f i libucrt:output.obj
 0001:00052868       ?state_case_type@?$output_processor@DV?$stream_output_adapter@D@__crt_stdio_output@@V?$format_validation_base@DV?$stream_output_adapter@D@__crt_stdio_output@@@2@@__crt_stdio_output@@AEAA_NXZ 0000000180053868 f i libucrt:output.obj
 0001:00052aec       ?state_case_type@?$output_processor@DV?$stream_output_adapter@D@__crt_stdio_output@@V?$positional_parameter_base@DV?$stream_output_adapter@D@__crt_stdio_output@@@2@@__crt_stdio_output@@AEAA_NXZ 0000000180053aec f i libucrt:output.obj
 0001:00052d88       ?state_case_type@?$output_processor@DV?$stream_output_adapter@D@__crt_stdio_output@@V?$standard_base@DV?$stream_output_adapter@D@__crt_stdio_output@@@2@@__crt_stdio_output@@AEAA_NXZ 0000000180053d88 f i libucrt:output.obj
 0001:0005300c       ?state_case_type@?$output_processor@DV?$string_output_adapter@D@__crt_stdio_output@@V?$format_validation_base@DV?$string_output_adapter@D@__crt_stdio_output@@@2@@__crt_stdio_output@@AEAA_NXZ 000000018005400c f i libucrt:output.obj
 0001:00053274       ?state_case_type@?$output_processor@DV?$string_output_adapter@D@__crt_stdio_output@@V?$positional_parameter_base@DV?$string_output_adapter@D@__crt_stdio_output@@@2@@__crt_stdio_output@@AEAA_NXZ 0000000180054274 f i libucrt:output.obj
 0001:000534f0       ?state_case_type@?$output_processor@DV?$string_output_adapter@D@__crt_stdio_output@@V?$standard_base@DV?$string_output_adapter@D@__crt_stdio_output@@@2@@__crt_stdio_output@@AEAA_NXZ 00000001800544f0 f i libucrt:output.obj
 0001:00053758       ?state_case_type@?$output_processor@_WV?$stream_output_adapter@_W@__crt_stdio_output@@V?$format_validation_base@_WV?$stream_output_adapter@_W@__crt_stdio_output@@@2@@__crt_stdio_output@@AEAA_NXZ 0000000180054758 f i libucrt:output.obj
 0001:00053a38       ?state_case_type@?$output_processor@_WV?$stream_output_adapter@_W@__crt_stdio_output@@V?$positional_parameter_base@_WV?$stream_output_adapter@_W@__crt_stdio_output@@@2@@__crt_stdio_output@@AEAA_NXZ 0000000180054a38 f i libucrt:output.obj
 0001:00053d2c       ?state_case_type@?$output_processor@_WV?$stream_output_adapter@_W@__crt_stdio_output@@V?$standard_base@_WV?$stream_output_adapter@_W@__crt_stdio_output@@@2@@__crt_stdio_output@@AEAA_NXZ 0000000180054d2c f i libucrt:output.obj
 0001:0005400c       ?state_case_type@?$output_processor@_WV?$string_output_adapter@_W@__crt_stdio_output@@V?$format_validation_base@_WV?$string_output_adapter@_W@__crt_stdio_output@@@2@@__crt_stdio_output@@AEAA_NXZ 000000018005500c f i libucrt:output.obj
 0001:000542d8       ?state_case_type@?$output_processor@_WV?$string_output_adapter@_W@__crt_stdio_output@@V?$positional_parameter_base@_WV?$string_output_adapter@_W@__crt_stdio_output@@@2@@__crt_stdio_output@@AEAA_NXZ 00000001800552d8 f i libucrt:output.obj
 0001:000545b8       ?state_case_type@?$output_processor@_WV?$string_output_adapter@_W@__crt_stdio_output@@V?$standard_base@_WV?$string_output_adapter@_W@__crt_stdio_output@@@2@@__crt_stdio_output@@AEAA_NXZ 00000001800555b8 f i libucrt:output.obj
 0001:00054884       ?state_case_width@?$output_processor@DV?$stream_output_adapter@D@__crt_stdio_output@@V?$format_validation_base@DV?$stream_output_adapter@D@__crt_stdio_output@@@2@@__crt_stdio_output@@AEAA_NXZ 0000000180055884 f i libucrt:output.obj
 0001:000548b8       ?state_case_width@?$output_processor@DV?$stream_output_adapter@D@__crt_stdio_output@@V?$positional_parameter_base@DV?$stream_output_adapter@D@__crt_stdio_output@@@2@@__crt_stdio_output@@AEAA_NXZ 00000001800558b8 f i libucrt:output.obj
 0001:00054908       ?state_case_width@?$output_processor@DV?$stream_output_adapter@D@__crt_stdio_output@@V?$standard_base@DV?$stream_output_adapter@D@__crt_stdio_output@@@2@@__crt_stdio_output@@AEAA_NXZ 0000000180055908 f i libucrt:output.obj
 0001:0005493c       ?state_case_width@?$output_processor@DV?$string_output_adapter@D@__crt_stdio_output@@V?$format_validation_base@DV?$string_output_adapter@D@__crt_stdio_output@@@2@@__crt_stdio_output@@AEAA_NXZ 000000018005593c f i libucrt:output.obj
 0001:00054970       ?state_case_width@?$output_processor@DV?$string_output_adapter@D@__crt_stdio_output@@V?$positional_parameter_base@DV?$string_output_adapter@D@__crt_stdio_output@@@2@@__crt_stdio_output@@AEAA_NXZ 0000000180055970 f i libucrt:output.obj
 0001:000549c0       ?state_case_width@?$output_processor@DV?$string_output_adapter@D@__crt_stdio_output@@V?$standard_base@DV?$string_output_adapter@D@__crt_stdio_output@@@2@@__crt_stdio_output@@AEAA_NXZ 00000001800559c0 f i libucrt:output.obj
 0001:000549f4       ?state_case_width@?$output_processor@_WV?$stream_output_adapter@_W@__crt_stdio_output@@V?$format_validation_base@_WV?$stream_output_adapter@_W@__crt_stdio_output@@@2@@__crt_stdio_output@@AEAA_NXZ 00000001800559f4 f i libucrt:output.obj
 0001:00054a28       ?state_case_width@?$output_processor@_WV?$stream_output_adapter@_W@__crt_stdio_output@@V?$positional_parameter_base@_WV?$stream_output_adapter@_W@__crt_stdio_output@@@2@@__crt_stdio_output@@AEAA_NXZ 0000000180055a28 f i libucrt:output.obj
 0001:00054a7c       ?state_case_width@?$output_processor@_WV?$stream_output_adapter@_W@__crt_stdio_output@@V?$standard_base@_WV?$stream_output_adapter@_W@__crt_stdio_output@@@2@@__crt_stdio_output@@AEAA_NXZ 0000000180055a7c f i libucrt:output.obj
 0001:00054ab0       ?state_case_width@?$output_processor@_WV?$string_output_adapter@_W@__crt_stdio_output@@V?$format_validation_base@_WV?$string_output_adapter@_W@__crt_stdio_output@@@2@@__crt_stdio_output@@AEAA_NXZ 0000000180055ab0 f i libucrt:output.obj
 0001:00054ae4       ?state_case_width@?$output_processor@_WV?$string_output_adapter@_W@__crt_stdio_output@@V?$positional_parameter_base@_WV?$string_output_adapter@_W@__crt_stdio_output@@@2@@__crt_stdio_output@@AEAA_NXZ 0000000180055ae4 f i libucrt:output.obj
 0001:00054b38       ?state_case_width@?$output_processor@_WV?$string_output_adapter@_W@__crt_stdio_output@@V?$standard_base@_WV?$string_output_adapter@_W@__crt_stdio_output@@@2@@__crt_stdio_output@@AEAA_NXZ 0000000180055b38 f i libucrt:output.obj
 0001:00054b6c       ?state_count@?$format_validation_base@DV?$stream_output_adapter@D@__crt_stdio_output@@@__crt_stdio_output@@KAIXZ 0000000180055b6c f i libucrt:output.obj
 0001:00054b74       ?state_count@?$format_validation_base@DV?$string_output_adapter@D@__crt_stdio_output@@@__crt_stdio_output@@KAIXZ 0000000180055b74 f i libucrt:output.obj
 0001:00054b7c       ?state_count@?$format_validation_base@_WV?$stream_output_adapter@_W@__crt_stdio_output@@@__crt_stdio_output@@KAIXZ 0000000180055b7c f i libucrt:output.obj
 0001:00054b84       ?state_count@?$format_validation_base@_WV?$string_output_adapter@_W@__crt_stdio_output@@@__crt_stdio_output@@KAIXZ 0000000180055b84 f i libucrt:output.obj
 0001:00054b8c       ?state_count@?$standard_base@DV?$stream_output_adapter@D@__crt_stdio_output@@@__crt_stdio_output@@KAIXZ 0000000180055b8c f i libucrt:output.obj
 0001:00054b94       ?state_count@?$standard_base@DV?$string_output_adapter@D@__crt_stdio_output@@@__crt_stdio_output@@KAIXZ 0000000180055b94 f i libucrt:output.obj
 0001:00054b9c       ?state_count@?$standard_base@_WV?$stream_output_adapter@_W@__crt_stdio_output@@@__crt_stdio_output@@KAIXZ 0000000180055b9c f i libucrt:output.obj
 0001:00054ba4       ?state_count@?$standard_base@_WV?$string_output_adapter@_W@__crt_stdio_output@@@__crt_stdio_output@@KAIXZ 0000000180055ba4 f i libucrt:output.obj
 0001:00054bac       ?state_transition_table@?$format_validation_base@DV?$stream_output_adapter@D@__crt_stdio_output@@@__crt_stdio_output@@KAAEBV?$spectre_mitigated_lookup_table@Ustate_transition_pair@__crt_stdio_output@@$0IA@@2@XZ 0000000180055bac f i libucrt:output.obj
 0001:00054bb4       ?state_transition_table@?$format_validation_base@DV?$string_output_adapter@D@__crt_stdio_output@@@__crt_stdio_output@@KAAEBV?$spectre_mitigated_lookup_table@Ustate_transition_pair@__crt_stdio_output@@$0IA@@2@XZ 0000000180055bb4 f i libucrt:output.obj
 0001:00054bbc       ?state_transition_table@?$format_validation_base@_WV?$stream_output_adapter@_W@__crt_stdio_output@@@__crt_stdio_output@@KAAEBV?$spectre_mitigated_lookup_table@Ustate_transition_pair@__crt_stdio_output@@$0IA@@2@XZ 0000000180055bbc f i libucrt:output.obj
 0001:00054bc4       ?state_transition_table@?$format_validation_base@_WV?$string_output_adapter@_W@__crt_stdio_output@@@__crt_stdio_output@@KAAEBV?$spectre_mitigated_lookup_table@Ustate_transition_pair@__crt_stdio_output@@$0IA@@2@XZ 0000000180055bc4 f i libucrt:output.obj
 0001:00054bcc       ?state_transition_table@?$standard_base@DV?$stream_output_adapter@D@__crt_stdio_output@@@__crt_stdio_output@@KAAEBV?$spectre_mitigated_lookup_table@Ustate_transition_pair@__crt_stdio_output@@$0IA@@2@XZ 0000000180055bcc f i libucrt:output.obj
 0001:00054bd4       ?state_transition_table@?$standard_base@DV?$string_output_adapter@D@__crt_stdio_output@@@__crt_stdio_output@@KAAEBV?$spectre_mitigated_lookup_table@Ustate_transition_pair@__crt_stdio_output@@$0IA@@2@XZ 0000000180055bd4 f i libucrt:output.obj
 0001:00054bdc       ?state_transition_table@?$standard_base@_WV?$stream_output_adapter@_W@__crt_stdio_output@@@__crt_stdio_output@@KAAEBV?$spectre_mitigated_lookup_table@Ustate_transition_pair@__crt_stdio_output@@$0IA@@2@XZ 0000000180055bdc f i libucrt:output.obj
 0001:00054be4       ?state_transition_table@?$standard_base@_WV?$string_output_adapter@_W@__crt_stdio_output@@@__crt_stdio_output@@KAAEBV?$spectre_mitigated_lookup_table@Ustate_transition_pair@__crt_stdio_output@@$0IA@@2@XZ 0000000180055be4 f i libucrt:output.obj
 0001:00054bec       ?tchar_string@?$common_data@D@__crt_stdio_output@@IEAAAEAPEADD@Z 0000000180055bec f i libucrt:output.obj
 0001:00054bf4       ?tchar_string@?$common_data@D@__crt_stdio_output@@IEAAAEAPEADXZ 0000000180055bf4 f i libucrt:output.obj
 0001:00054bfc       ?tchar_string@?$common_data@_W@__crt_stdio_output@@IEAAAEAPEA_WXZ 0000000180055bfc f i libucrt:output.obj
 0001:00054c04       ?tchar_string@?$common_data@_W@__crt_stdio_output@@IEAAAEAPEA_W_W@Z 0000000180055c04 f i libucrt:output.obj
 0001:00054c10       ?to_integer_size@__crt_stdio_output@@YA_KW4length_modifier@1@@Z 0000000180055c10 f i libucrt:output.obj
 0001:00054c78       ?type_case_X@?$output_processor@DV?$stream_output_adapter@D@__crt_stdio_output@@V?$format_validation_base@DV?$stream_output_adapter@D@__crt_stdio_output@@@2@@__crt_stdio_output@@AEAA_NXZ 0000000180055c78 f i libucrt:output.obj
 0001:00054c88       ?type_case_X@?$output_processor@DV?$stream_output_adapter@D@__crt_stdio_output@@V?$positional_parameter_base@DV?$stream_output_adapter@D@__crt_stdio_output@@@2@@__crt_stdio_output@@AEAA_NXZ 0000000180055c88 f i libucrt:output.obj
 0001:00054c98       ?type_case_X@?$output_processor@DV?$stream_output_adapter@D@__crt_stdio_output@@V?$standard_base@DV?$stream_output_adapter@D@__crt_stdio_output@@@2@@__crt_stdio_output@@AEAA_NXZ 0000000180055c98 f i libucrt:output.obj
 0001:00054ca8       ?type_case_X@?$output_processor@DV?$string_output_adapter@D@__crt_stdio_output@@V?$format_validation_base@DV?$string_output_adapter@D@__crt_stdio_output@@@2@@__crt_stdio_output@@AEAA_NXZ 0000000180055ca8 f i libucrt:output.obj
 0001:00054cb8       ?type_case_X@?$output_processor@DV?$string_output_adapter@D@__crt_stdio_output@@V?$positional_parameter_base@DV?$string_output_adapter@D@__crt_stdio_output@@@2@@__crt_stdio_output@@AEAA_NXZ 0000000180055cb8 f i libucrt:output.obj
 0001:00054cc8       ?type_case_X@?$output_processor@DV?$string_output_adapter@D@__crt_stdio_output@@V?$standard_base@DV?$string_output_adapter@D@__crt_stdio_output@@@2@@__crt_stdio_output@@AEAA_NXZ 0000000180055cc8 f i libucrt:output.obj
 0001:00054cd8       ?type_case_X@?$output_processor@_WV?$stream_output_adapter@_W@__crt_stdio_output@@V?$format_validation_base@_WV?$stream_output_adapter@_W@__crt_stdio_output@@@2@@__crt_stdio_output@@AEAA_NXZ 0000000180055cd8 f i libucrt:output.obj
 0001:00054ce8       ?type_case_X@?$output_processor@_WV?$stream_output_adapter@_W@__crt_stdio_output@@V?$positional_parameter_base@_WV?$stream_output_adapter@_W@__crt_stdio_output@@@2@@__crt_stdio_output@@AEAA_NXZ 0000000180055ce8 f i libucrt:output.obj
 0001:00054cf8       ?type_case_X@?$output_processor@_WV?$stream_output_adapter@_W@__crt_stdio_output@@V?$standard_base@_WV?$stream_output_adapter@_W@__crt_stdio_output@@@2@@__crt_stdio_output@@AEAA_NXZ 0000000180055cf8 f i libucrt:output.obj
 0001:00054d08       ?type_case_X@?$output_processor@_WV?$string_output_adapter@_W@__crt_stdio_output@@V?$format_validation_base@_WV?$string_output_adapter@_W@__crt_stdio_output@@@2@@__crt_stdio_output@@AEAA_NXZ 0000000180055d08 f i libucrt:output.obj
 0001:00054d18       ?type_case_X@?$output_processor@_WV?$string_output_adapter@_W@__crt_stdio_output@@V?$positional_parameter_base@_WV?$string_output_adapter@_W@__crt_stdio_output@@@2@@__crt_stdio_output@@AEAA_NXZ 0000000180055d18 f i libucrt:output.obj
 0001:00054d28       ?type_case_X@?$output_processor@_WV?$string_output_adapter@_W@__crt_stdio_output@@V?$standard_base@_WV?$string_output_adapter@_W@__crt_stdio_output@@@2@@__crt_stdio_output@@AEAA_NXZ 0000000180055d28 f i libucrt:output.obj
 0001:00054d38       ?type_case_Z@?$output_processor@DV?$stream_output_adapter@D@__crt_stdio_output@@V?$format_validation_base@DV?$stream_output_adapter@D@__crt_stdio_output@@@2@@__crt_stdio_output@@AEAA_NXZ 0000000180055d38 f i libucrt:output.obj
 0001:00054dac       ?type_case_Z@?$output_processor@DV?$stream_output_adapter@D@__crt_stdio_output@@V?$positional_parameter_base@DV?$stream_output_adapter@D@__crt_stdio_output@@@2@@__crt_stdio_output@@AEAA_NXZ 0000000180055dac f i libucrt:output.obj
 0001:00054e4c       ?type_case_Z@?$output_processor@DV?$stream_output_adapter@D@__crt_stdio_output@@V?$standard_base@DV?$stream_output_adapter@D@__crt_stdio_output@@@2@@__crt_stdio_output@@AEAA_NXZ 0000000180055e4c f i libucrt:output.obj
 0001:00054ec0       ?type_case_Z@?$output_processor@DV?$string_output_adapter@D@__crt_stdio_output@@V?$format_validation_base@DV?$string_output_adapter@D@__crt_stdio_output@@@2@@__crt_stdio_output@@AEAA_NXZ 0000000180055ec0 f i libucrt:output.obj
 0001:00054f34       ?type_case_Z@?$output_processor@DV?$string_output_adapter@D@__crt_stdio_output@@V?$positional_parameter_base@DV?$string_output_adapter@D@__crt_stdio_output@@@2@@__crt_stdio_output@@AEAA_NXZ 0000000180055f34 f i libucrt:output.obj
 0001:00054fd4       ?type_case_Z@?$output_processor@DV?$string_output_adapter@D@__crt_stdio_output@@V?$standard_base@DV?$string_output_adapter@D@__crt_stdio_output@@@2@@__crt_stdio_output@@AEAA_NXZ 0000000180055fd4 f i libucrt:output.obj
 0001:00055048       ?type_case_Z@?$output_processor@_WV?$stream_output_adapter@_W@__crt_stdio_output@@V?$format_validation_base@_WV?$stream_output_adapter@_W@__crt_stdio_output@@@2@@__crt_stdio_output@@AEAA_NXZ 0000000180056048 f i libucrt:output.obj
 0001:000550c4       ?type_case_Z@?$output_processor@_WV?$stream_output_adapter@_W@__crt_stdio_output@@V?$positional_parameter_base@_WV?$stream_output_adapter@_W@__crt_stdio_output@@@2@@__crt_stdio_output@@AEAA_NXZ 00000001800560c4 f i libucrt:output.obj
 0001:0005515c       ?type_case_Z@?$output_processor@_WV?$stream_output_adapter@_W@__crt_stdio_output@@V?$standard_base@_WV?$stream_output_adapter@_W@__crt_stdio_output@@@2@@__crt_stdio_output@@AEAA_NXZ 000000018005615c f i libucrt:output.obj
 0001:000551d8       ?type_case_Z@?$output_processor@_WV?$string_output_adapter@_W@__crt_stdio_output@@V?$format_validation_base@_WV?$string_output_adapter@_W@__crt_stdio_output@@@2@@__crt_stdio_output@@AEAA_NXZ 00000001800561d8 f i libucrt:output.obj
 0001:00055254       ?type_case_Z@?$output_processor@_WV?$string_output_adapter@_W@__crt_stdio_output@@V?$positional_parameter_base@_WV?$string_output_adapter@_W@__crt_stdio_output@@@2@@__crt_stdio_output@@AEAA_NXZ 0000000180056254 f i libucrt:output.obj
 0001:000552ec       ?type_case_Z@?$output_processor@_WV?$string_output_adapter@_W@__crt_stdio_output@@V?$standard_base@_WV?$string_output_adapter@_W@__crt_stdio_output@@@2@@__crt_stdio_output@@AEAA_NXZ 00000001800562ec f i libucrt:output.obj
 0001:00055368       ?type_case_a@?$output_processor@DV?$stream_output_adapter@D@__crt_stdio_output@@V?$format_validation_base@DV?$stream_output_adapter@D@__crt_stdio_output@@@2@@__crt_stdio_output@@AEAA_NXZ 0000000180056368 f i libucrt:output.obj
 0001:00055524       ?type_case_a@?$output_processor@DV?$stream_output_adapter@D@__crt_stdio_output@@V?$positional_parameter_base@DV?$stream_output_adapter@D@__crt_stdio_output@@@2@@__crt_stdio_output@@AEAA_NXZ 0000000180056524 f i libucrt:output.obj
 0001:0005571c       ?type_case_a@?$output_processor@DV?$stream_output_adapter@D@__crt_stdio_output@@V?$standard_base@DV?$stream_output_adapter@D@__crt_stdio_output@@@2@@__crt_stdio_output@@AEAA_NXZ 000000018005671c f i libucrt:output.obj
 0001:000558d8       ?type_case_a@?$output_processor@DV?$string_output_adapter@D@__crt_stdio_output@@V?$format_validation_base@DV?$string_output_adapter@D@__crt_stdio_output@@@2@@__crt_stdio_output@@AEAA_NXZ 00000001800568d8 f i libucrt:output.obj
 0001:00055a94       ?type_case_a@?$output_processor@DV?$string_output_adapter@D@__crt_stdio_output@@V?$positional_parameter_base@DV?$string_output_adapter@D@__crt_stdio_output@@@2@@__crt_stdio_output@@AEAA_NXZ 0000000180056a94 f i libucrt:output.obj
 0001:00055c8c       ?type_case_a@?$output_processor@DV?$string_output_adapter@D@__crt_stdio_output@@V?$standard_base@DV?$string_output_adapter@D@__crt_stdio_output@@@2@@__crt_stdio_output@@AEAA_NXZ 0000000180056c8c f i libucrt:output.obj
 0001:00055e48       ?type_case_a@?$output_processor@_WV?$stream_output_adapter@_W@__crt_stdio_output@@V?$format_validation_base@_WV?$stream_output_adapter@_W@__crt_stdio_output@@@2@@__crt_stdio_output@@AEAA_NXZ 0000000180056e48 f i libucrt:output.obj
 0001:00056028       ?type_case_a@?$output_processor@_WV?$stream_output_adapter@_W@__crt_stdio_output@@V?$positional_parameter_base@_WV?$stream_output_adapter@_W@__crt_stdio_output@@@2@@__crt_stdio_output@@AEAA_NXZ 0000000180057028 f i libucrt:output.obj
 0001:00056244       ?type_case_a@?$output_processor@_WV?$stream_output_adapter@_W@__crt_stdio_output@@V?$standard_base@_WV?$stream_output_adapter@_W@__crt_stdio_output@@@2@@__crt_stdio_output@@AEAA_NXZ 0000000180057244 f i libucrt:output.obj
 0001:00056424       ?type_case_a@?$output_processor@_WV?$string_output_adapter@_W@__crt_stdio_output@@V?$format_validation_base@_WV?$string_output_adapter@_W@__crt_stdio_output@@@2@@__crt_stdio_output@@AEAA_NXZ 0000000180057424 f i libucrt:output.obj
 0001:00056604       ?type_case_a@?$output_processor@_WV?$string_output_adapter@_W@__crt_stdio_output@@V?$positional_parameter_base@_WV?$string_output_adapter@_W@__crt_stdio_output@@@2@@__crt_stdio_output@@AEAA_NXZ 0000000180057604 f i libucrt:output.obj
 0001:00056820       ?type_case_a@?$output_processor@_WV?$string_output_adapter@_W@__crt_stdio_output@@V?$standard_base@_WV?$string_output_adapter@_W@__crt_stdio_output@@@2@@__crt_stdio_output@@AEAA_NXZ 0000000180057820 f i libucrt:output.obj
 0001:00056a00       ?type_case_c@?$output_processor@DV?$stream_output_adapter@D@__crt_stdio_output@@V?$format_validation_base@DV?$stream_output_adapter@D@__crt_stdio_output@@@2@@__crt_stdio_output@@AEAA_NXZ 0000000180057a00 f i libucrt:output.obj
 0001:00056a08       ?type_case_c@?$output_processor@DV?$stream_output_adapter@D@__crt_stdio_output@@V?$positional_parameter_base@DV?$stream_output_adapter@D@__crt_stdio_output@@@2@@__crt_stdio_output@@AEAA_NXZ 0000000180057a08 f i libucrt:output.obj
 0001:00056a10       ?type_case_c@?$output_processor@DV?$stream_output_adapter@D@__crt_stdio_output@@V?$standard_base@DV?$stream_output_adapter@D@__crt_stdio_output@@@2@@__crt_stdio_output@@AEAA_NXZ 0000000180057a10 f i libucrt:output.obj
 0001:00056a18       ?type_case_c@?$output_processor@DV?$string_output_adapter@D@__crt_stdio_output@@V?$format_validation_base@DV?$string_output_adapter@D@__crt_stdio_output@@@2@@__crt_stdio_output@@AEAA_NXZ 0000000180057a18 f i libucrt:output.obj
 0001:00056a20       ?type_case_c@?$output_processor@DV?$string_output_adapter@D@__crt_stdio_output@@V?$positional_parameter_base@DV?$string_output_adapter@D@__crt_stdio_output@@@2@@__crt_stdio_output@@AEAA_NXZ 0000000180057a20 f i libucrt:output.obj
 0001:00056a28       ?type_case_c@?$output_processor@DV?$string_output_adapter@D@__crt_stdio_output@@V?$standard_base@DV?$string_output_adapter@D@__crt_stdio_output@@@2@@__crt_stdio_output@@AEAA_NXZ 0000000180057a28 f i libucrt:output.obj
 0001:00056a30       ?type_case_c@?$output_processor@_WV?$stream_output_adapter@_W@__crt_stdio_output@@V?$format_validation_base@_WV?$stream_output_adapter@_W@__crt_stdio_output@@@2@@__crt_stdio_output@@AEAA_NXZ 0000000180057a30 f i libucrt:output.obj
 0001:00056a38       ?type_case_c@?$output_processor@_WV?$stream_output_adapter@_W@__crt_stdio_output@@V?$positional_parameter_base@_WV?$stream_output_adapter@_W@__crt_stdio_output@@@2@@__crt_stdio_output@@AEAA_NXZ 0000000180057a38 f i libucrt:output.obj
 0001:00056a40       ?type_case_c@?$output_processor@_WV?$stream_output_adapter@_W@__crt_stdio_output@@V?$standard_base@_WV?$stream_output_adapter@_W@__crt_stdio_output@@@2@@__crt_stdio_output@@AEAA_NXZ 0000000180057a40 f i libucrt:output.obj
 0001:00056a48       ?type_case_c@?$output_processor@_WV?$string_output_adapter@_W@__crt_stdio_output@@V?$format_validation_base@_WV?$string_output_adapter@_W@__crt_stdio_output@@@2@@__crt_stdio_output@@AEAA_NXZ 0000000180057a48 f i libucrt:output.obj
 0001:00056a50       ?type_case_c@?$output_processor@_WV?$string_output_adapter@_W@__crt_stdio_output@@V?$positional_parameter_base@_WV?$string_output_adapter@_W@__crt_stdio_output@@@2@@__crt_stdio_output@@AEAA_NXZ 0000000180057a50 f i libucrt:output.obj
 0001:00056a58       ?type_case_c@?$output_processor@_WV?$string_output_adapter@_W@__crt_stdio_output@@V?$standard_base@_WV?$string_output_adapter@_W@__crt_stdio_output@@@2@@__crt_stdio_output@@AEAA_NXZ 0000000180057a58 f i libucrt:output.obj
 0001:00056a60       ?type_case_c_tchar@?$output_processor@DV?$stream_output_adapter@D@__crt_stdio_output@@V?$format_validation_base@DV?$stream_output_adapter@D@__crt_stdio_output@@@2@@__crt_stdio_output@@AEAA_ND@Z 0000000180057a60 f i libucrt:output.obj
 0001:00056b28       ?type_case_c_tchar@?$output_processor@DV?$stream_output_adapter@D@__crt_stdio_output@@V?$positional_parameter_base@DV?$stream_output_adapter@D@__crt_stdio_output@@@2@@__crt_stdio_output@@AEAA_ND@Z 0000000180057b28 f i libucrt:output.obj
 0001:00056c34       ?type_case_c_tchar@?$output_processor@DV?$stream_output_adapter@D@__crt_stdio_output@@V?$standard_base@DV?$stream_output_adapter@D@__crt_stdio_output@@@2@@__crt_stdio_output@@AEAA_ND@Z 0000000180057c34 f i libucrt:output.obj
 0001:00056cfc       ?type_case_c_tchar@?$output_processor@DV?$string_output_adapter@D@__crt_stdio_output@@V?$format_validation_base@DV?$string_output_adapter@D@__crt_stdio_output@@@2@@__crt_stdio_output@@AEAA_ND@Z 0000000180057cfc f i libucrt:output.obj
 0001:00056dc4       ?type_case_c_tchar@?$output_processor@DV?$string_output_adapter@D@__crt_stdio_output@@V?$positional_parameter_base@DV?$string_output_adapter@D@__crt_stdio_output@@@2@@__crt_stdio_output@@AEAA_ND@Z 0000000180057dc4 f i libucrt:output.obj
 0001:00056ed0       ?type_case_c_tchar@?$output_processor@DV?$string_output_adapter@D@__crt_stdio_output@@V?$standard_base@DV?$string_output_adapter@D@__crt_stdio_output@@@2@@__crt_stdio_output@@AEAA_ND@Z 0000000180057ed0 f i libucrt:output.obj
 0001:00056f98       ?type_case_c_tchar@?$output_processor@_WV?$stream_output_adapter@_W@__crt_stdio_output@@V?$format_validation_base@_WV?$stream_output_adapter@_W@__crt_stdio_output@@@2@@__crt_stdio_output@@AEAA_N_W@Z 0000000180057f98 f i libucrt:output.obj
 0001:00057040       ?type_case_c_tchar@?$output_processor@_WV?$stream_output_adapter@_W@__crt_stdio_output@@V?$positional_parameter_base@_WV?$stream_output_adapter@_W@__crt_stdio_output@@@2@@__crt_stdio_output@@AEAA_N_W@Z 0000000180058040 f i libucrt:output.obj
 0001:0005710c       ?type_case_c_tchar@?$output_processor@_WV?$stream_output_adapter@_W@__crt_stdio_output@@V?$standard_base@_WV?$stream_output_adapter@_W@__crt_stdio_output@@@2@@__crt_stdio_output@@AEAA_N_W@Z 000000018005810c f i libucrt:output.obj
 0001:000571b4       ?type_case_c_tchar@?$output_processor@_WV?$string_output_adapter@_W@__crt_stdio_output@@V?$format_validation_base@_WV?$string_output_adapter@_W@__crt_stdio_output@@@2@@__crt_stdio_output@@AEAA_N_W@Z 00000001800581b4 f i libucrt:output.obj
 0001:0005725c       ?type_case_c_tchar@?$output_processor@_WV?$string_output_adapter@_W@__crt_stdio_output@@V?$positional_parameter_base@_WV?$string_output_adapter@_W@__crt_stdio_output@@@2@@__crt_stdio_output@@AEAA_N_W@Z 000000018005825c f i libucrt:output.obj
 0001:00057328       ?type_case_c_tchar@?$output_processor@_WV?$string_output_adapter@_W@__crt_stdio_output@@V?$standard_base@_WV?$string_output_adapter@_W@__crt_stdio_output@@@2@@__crt_stdio_output@@AEAA_N_W@Z 0000000180058328 f i libucrt:output.obj
 0001:000573d0       ?type_case_d@?$output_processor@DV?$stream_output_adapter@D@__crt_stdio_output@@V?$format_validation_base@DV?$stream_output_adapter@D@__crt_stdio_output@@@2@@__crt_stdio_output@@AEAA_NXZ 00000001800583d0 f i libucrt:output.obj
 0001:000573e0       ?type_case_d@?$output_processor@DV?$stream_output_adapter@D@__crt_stdio_output@@V?$positional_parameter_base@DV?$stream_output_adapter@D@__crt_stdio_output@@@2@@__crt_stdio_output@@AEAA_NXZ 00000001800583e0 f i libucrt:output.obj
 0001:000573f0       ?type_case_d@?$output_processor@DV?$stream_output_adapter@D@__crt_stdio_output@@V?$standard_base@DV?$stream_output_adapter@D@__crt_stdio_output@@@2@@__crt_stdio_output@@AEAA_NXZ 00000001800583f0 f i libucrt:output.obj
 0001:00057400       ?type_case_d@?$output_processor@DV?$string_output_adapter@D@__crt_stdio_output@@V?$format_validation_base@DV?$string_output_adapter@D@__crt_stdio_output@@@2@@__crt_stdio_output@@AEAA_NXZ 0000000180058400 f i libucrt:output.obj
 0001:00057410       ?type_case_d@?$output_processor@DV?$string_output_adapter@D@__crt_stdio_output@@V?$positional_parameter_base@DV?$string_output_adapter@D@__crt_stdio_output@@@2@@__crt_stdio_output@@AEAA_NXZ 0000000180058410 f i libucrt:output.obj
 0001:00057420       ?type_case_d@?$output_processor@DV?$string_output_adapter@D@__crt_stdio_output@@V?$standard_base@DV?$string_output_adapter@D@__crt_stdio_output@@@2@@__crt_stdio_output@@AEAA_NXZ 0000000180058420 f i libucrt:output.obj
 0001:00057430       ?type_case_d@?$output_processor@_WV?$stream_output_adapter@_W@__crt_stdio_output@@V?$format_validation_base@_WV?$stream_output_adapter@_W@__crt_stdio_output@@@2@@__crt_stdio_output@@AEAA_NXZ 0000000180058430 f i libucrt:output.obj
 0001:00057440       ?type_case_d@?$output_processor@_WV?$stream_output_adapter@_W@__crt_stdio_output@@V?$positional_parameter_base@_WV?$stream_output_adapter@_W@__crt_stdio_output@@@2@@__crt_stdio_output@@AEAA_NXZ 0000000180058440 f i libucrt:output.obj
 0001:00057450       ?type_case_d@?$output_processor@_WV?$stream_output_adapter@_W@__crt_stdio_output@@V?$standard_base@_WV?$stream_output_adapter@_W@__crt_stdio_output@@@2@@__crt_stdio_output@@AEAA_NXZ 0000000180058450 f i libucrt:output.obj
 0001:00057460       ?type_case_d@?$output_processor@_WV?$string_output_adapter@_W@__crt_stdio_output@@V?$format_validation_base@_WV?$string_output_adapter@_W@__crt_stdio_output@@@2@@__crt_stdio_output@@AEAA_NXZ 0000000180058460 f i libucrt:output.obj
 0001:00057470       ?type_case_d@?$output_processor@_WV?$string_output_adapter@_W@__crt_stdio_output@@V?$positional_parameter_base@_WV?$string_output_adapter@_W@__crt_stdio_output@@@2@@__crt_stdio_output@@AEAA_NXZ 0000000180058470 f i libucrt:output.obj
 0001:00057480       ?type_case_d@?$output_processor@_WV?$string_output_adapter@_W@__crt_stdio_output@@V?$standard_base@_WV?$string_output_adapter@_W@__crt_stdio_output@@@2@@__crt_stdio_output@@AEAA_NXZ 0000000180058480 f i libucrt:output.obj
 0001:00057490       ?type_case_integer@?$output_processor@DV?$stream_output_adapter@D@__crt_stdio_output@@V?$format_validation_base@DV?$stream_output_adapter@D@__crt_stdio_output@@@2@@__crt_stdio_output@@AEAA_NI_N@Z 0000000180058490 f i libucrt:output.obj
 0001:00057610       ?type_case_integer@?$output_processor@DV?$stream_output_adapter@D@__crt_stdio_output@@V?$positional_parameter_base@DV?$stream_output_adapter@D@__crt_stdio_output@@@2@@__crt_stdio_output@@AEAA_NI_N@Z 0000000180058610 f i libucrt:output.obj
 0001:000577b8       ?type_case_integer@?$output_processor@DV?$stream_output_adapter@D@__crt_stdio_output@@V?$standard_base@DV?$stream_output_adapter@D@__crt_stdio_output@@@2@@__crt_stdio_output@@AEAA_NI_N@Z 00000001800587b8 f i libucrt:output.obj
 0001:00057938       ?type_case_integer@?$output_processor@DV?$string_output_adapter@D@__crt_stdio_output@@V?$format_validation_base@DV?$string_output_adapter@D@__crt_stdio_output@@@2@@__crt_stdio_output@@AEAA_NI_N@Z 0000000180058938 f i libucrt:output.obj
 0001:00057ab8       ?type_case_integer@?$output_processor@DV?$string_output_adapter@D@__crt_stdio_output@@V?$positional_parameter_base@DV?$string_output_adapter@D@__crt_stdio_output@@@2@@__crt_stdio_output@@AEAA_NI_N@Z 0000000180058ab8 f i libucrt:output.obj
 0001:00057c60       ?type_case_integer@?$output_processor@DV?$string_output_adapter@D@__crt_stdio_output@@V?$standard_base@DV?$string_output_adapter@D@__crt_stdio_output@@@2@@__crt_stdio_output@@AEAA_NI_N@Z 0000000180058c60 f i libucrt:output.obj
 0001:00057de0       ?type_case_integer@?$output_processor@_WV?$stream_output_adapter@_W@__crt_stdio_output@@V?$format_validation_base@_WV?$stream_output_adapter@_W@__crt_stdio_output@@@2@@__crt_stdio_output@@AEAA_NI_N@Z 0000000180058de0 f i libucrt:output.obj
 0001:00057f68       ?type_case_integer@?$output_processor@_WV?$stream_output_adapter@_W@__crt_stdio_output@@V?$positional_parameter_base@_WV?$stream_output_adapter@_W@__crt_stdio_output@@@2@@__crt_stdio_output@@AEAA_NI_N@Z 0000000180058f68 f i libucrt:output.obj
 0001:00058118       ?type_case_integer@?$output_processor@_WV?$stream_output_adapter@_W@__crt_stdio_output@@V?$standard_base@_WV?$stream_output_adapter@_W@__crt_stdio_output@@@2@@__crt_stdio_output@@AEAA_NI_N@Z 0000000180059118 f i libucrt:output.obj
 0001:000582a0       ?type_case_integer@?$output_processor@_WV?$string_output_adapter@_W@__crt_stdio_output@@V?$format_validation_base@_WV?$string_output_adapter@_W@__crt_stdio_output@@@2@@__crt_stdio_output@@AEAA_NI_N@Z 00000001800592a0 f i libucrt:output.obj
 0001:00058428       ?type_case_integer@?$output_processor@_WV?$string_output_adapter@_W@__crt_stdio_output@@V?$positional_parameter_base@_WV?$string_output_adapter@_W@__crt_stdio_output@@@2@@__crt_stdio_output@@AEAA_NI_N@Z 0000000180059428 f i libucrt:output.obj
 0001:000585d8       ?type_case_integer@?$output_processor@_WV?$string_output_adapter@_W@__crt_stdio_output@@V?$standard_base@_WV?$string_output_adapter@_W@__crt_stdio_output@@@2@@__crt_stdio_output@@AEAA_NI_N@Z 00000001800595d8 f i libucrt:output.obj
 0001:00058760       ?type_case_n@?$output_processor@DV?$stream_output_adapter@D@__crt_stdio_output@@V?$format_validation_base@DV?$stream_output_adapter@D@__crt_stdio_output@@@2@@__crt_stdio_output@@AEAA_NXZ 0000000180059760 f i libucrt:output.obj
 0001:000587e8       ?type_case_n@?$output_processor@DV?$stream_output_adapter@D@__crt_stdio_output@@V?$positional_parameter_base@DV?$stream_output_adapter@D@__crt_stdio_output@@@2@@__crt_stdio_output@@AEAA_NXZ 00000001800597e8 f i libucrt:output.obj
 0001:00058898       ?type_case_n@?$output_processor@DV?$stream_output_adapter@D@__crt_stdio_output@@V?$standard_base@DV?$stream_output_adapter@D@__crt_stdio_output@@@2@@__crt_stdio_output@@AEAA_NXZ 0000000180059898 f i libucrt:output.obj
 0001:00058920       ?type_case_n@?$output_processor@DV?$string_output_adapter@D@__crt_stdio_output@@V?$format_validation_base@DV?$string_output_adapter@D@__crt_stdio_output@@@2@@__crt_stdio_output@@AEAA_NXZ 0000000180059920 f i libucrt:output.obj
 0001:000589a8       ?type_case_n@?$output_processor@DV?$string_output_adapter@D@__crt_stdio_output@@V?$positional_parameter_base@DV?$string_output_adapter@D@__crt_stdio_output@@@2@@__crt_stdio_output@@AEAA_NXZ 00000001800599a8 f i libucrt:output.obj
 0001:00058a58       ?type_case_n@?$output_processor@DV?$string_output_adapter@D@__crt_stdio_output@@V?$standard_base@DV?$string_output_adapter@D@__crt_stdio_output@@@2@@__crt_stdio_output@@AEAA_NXZ 0000000180059a58 f i libucrt:output.obj
 0001:00058ae0       ?type_case_n@?$output_processor@_WV?$stream_output_adapter@_W@__crt_stdio_output@@V?$format_validation_base@_WV?$stream_output_adapter@_W@__crt_stdio_output@@@2@@__crt_stdio_output@@AEAA_NXZ 0000000180059ae0 f i libucrt:output.obj
 0001:00058b68       ?type_case_n@?$output_processor@_WV?$stream_output_adapter@_W@__crt_stdio_output@@V?$positional_parameter_base@_WV?$stream_output_adapter@_W@__crt_stdio_output@@@2@@__crt_stdio_output@@AEAA_NXZ 0000000180059b68 f i libucrt:output.obj
 0001:00058c18       ?type_case_n@?$output_processor@_WV?$stream_output_adapter@_W@__crt_stdio_output@@V?$standard_base@_WV?$stream_output_adapter@_W@__crt_stdio_output@@@2@@__crt_stdio_output@@AEAA_NXZ 0000000180059c18 f i libucrt:output.obj
 0001:00058ca0       ?type_case_n@?$output_processor@_WV?$string_output_adapter@_W@__crt_stdio_output@@V?$format_validation_base@_WV?$string_output_adapter@_W@__crt_stdio_output@@@2@@__crt_stdio_output@@AEAA_NXZ 0000000180059ca0 f i libucrt:output.obj
 0001:00058d28       ?type_case_n@?$output_processor@_WV?$string_output_adapter@_W@__crt_stdio_output@@V?$positional_parameter_base@_WV?$string_output_adapter@_W@__crt_stdio_output@@@2@@__crt_stdio_output@@AEAA_NXZ 0000000180059d28 f i libucrt:output.obj
 0001:00058dd8       ?type_case_n@?$output_processor@_WV?$string_output_adapter@_W@__crt_stdio_output@@V?$standard_base@_WV?$string_output_adapter@_W@__crt_stdio_output@@@2@@__crt_stdio_output@@AEAA_NXZ 0000000180059dd8 f i libucrt:output.obj
 0001:00058e60       ?type_case_o@?$output_processor@DV?$stream_output_adapter@D@__crt_stdio_output@@V?$format_validation_base@DV?$stream_output_adapter@D@__crt_stdio_output@@@2@@__crt_stdio_output@@AEAA_NXZ 0000000180059e60 f i libucrt:output.obj
 0001:00058e80       ?type_case_o@?$output_processor@DV?$stream_output_adapter@D@__crt_stdio_output@@V?$positional_parameter_base@DV?$stream_output_adapter@D@__crt_stdio_output@@@2@@__crt_stdio_output@@AEAA_NXZ 0000000180059e80 f i libucrt:output.obj
 0001:00058ea0       ?type_case_o@?$output_processor@DV?$stream_output_adapter@D@__crt_stdio_output@@V?$standard_base@DV?$stream_output_adapter@D@__crt_stdio_output@@@2@@__crt_stdio_output@@AEAA_NXZ 0000000180059ea0 f i libucrt:output.obj
 0001:00058ec0       ?type_case_o@?$output_processor@DV?$string_output_adapter@D@__crt_stdio_output@@V?$format_validation_base@DV?$string_output_adapter@D@__crt_stdio_output@@@2@@__crt_stdio_output@@AEAA_NXZ 0000000180059ec0 f i libucrt:output.obj
 0001:00058ee0       ?type_case_o@?$output_processor@DV?$string_output_adapter@D@__crt_stdio_output@@V?$positional_parameter_base@DV?$string_output_adapter@D@__crt_stdio_output@@@2@@__crt_stdio_output@@AEAA_NXZ 0000000180059ee0 f i libucrt:output.obj
 0001:00058f00       ?type_case_o@?$output_processor@DV?$string_output_adapter@D@__crt_stdio_output@@V?$standard_base@DV?$string_output_adapter@D@__crt_stdio_output@@@2@@__crt_stdio_output@@AEAA_NXZ 0000000180059f00 f i libucrt:output.obj
 0001:00058f20       ?type_case_o@?$output_processor@_WV?$stream_output_adapter@_W@__crt_stdio_output@@V?$format_validation_base@_WV?$stream_output_adapter@_W@__crt_stdio_output@@@2@@__crt_stdio_output@@AEAA_NXZ 0000000180059f20 f i libucrt:output.obj
 0001:00058f40       ?type_case_o@?$output_processor@_WV?$stream_output_adapter@_W@__crt_stdio_output@@V?$positional_parameter_base@_WV?$stream_output_adapter@_W@__crt_stdio_output@@@2@@__crt_stdio_output@@AEAA_NXZ 0000000180059f40 f i libucrt:output.obj
 0001:00058f60       ?type_case_o@?$output_processor@_WV?$stream_output_adapter@_W@__crt_stdio_output@@V?$standard_base@_WV?$stream_output_adapter@_W@__crt_stdio_output@@@2@@__crt_stdio_output@@AEAA_NXZ 0000000180059f60 f i libucrt:output.obj
 0001:00058f80       ?type_case_o@?$output_processor@_WV?$string_output_adapter@_W@__crt_stdio_output@@V?$format_validation_base@_WV?$string_output_adapter@_W@__crt_stdio_output@@@2@@__crt_stdio_output@@AEAA_NXZ 0000000180059f80 f i libucrt:output.obj
 0001:00058fa0       ?type_case_o@?$output_processor@_WV?$string_output_adapter@_W@__crt_stdio_output@@V?$positional_parameter_base@_WV?$string_output_adapter@_W@__crt_stdio_output@@@2@@__crt_stdio_output@@AEAA_NXZ 0000000180059fa0 f i libucrt:output.obj
 0001:00058fc0       ?type_case_o@?$output_processor@_WV?$string_output_adapter@_W@__crt_stdio_output@@V?$standard_base@_WV?$string_output_adapter@_W@__crt_stdio_output@@@2@@__crt_stdio_output@@AEAA_NXZ 0000000180059fc0 f i libucrt:output.obj
 0001:00058fe0       ?type_case_p@?$output_processor@DV?$stream_output_adapter@D@__crt_stdio_output@@V?$format_validation_base@DV?$stream_output_adapter@D@__crt_stdio_output@@@2@@__crt_stdio_output@@AEAA_NXZ 0000000180059fe0 f i libucrt:output.obj
 0001:00058ff8       ?type_case_p@?$output_processor@DV?$stream_output_adapter@D@__crt_stdio_output@@V?$positional_parameter_base@DV?$stream_output_adapter@D@__crt_stdio_output@@@2@@__crt_stdio_output@@AEAA_NXZ 0000000180059ff8 f i libucrt:output.obj
 0001:00059010       ?type_case_p@?$output_processor@DV?$stream_output_adapter@D@__crt_stdio_output@@V?$standard_base@DV?$stream_output_adapter@D@__crt_stdio_output@@@2@@__crt_stdio_output@@AEAA_NXZ 000000018005a010 f i libucrt:output.obj
 0001:00059028       ?type_case_p@?$output_processor@DV?$string_output_adapter@D@__crt_stdio_output@@V?$format_validation_base@DV?$string_output_adapter@D@__crt_stdio_output@@@2@@__crt_stdio_output@@AEAA_NXZ 000000018005a028 f i libucrt:output.obj
 0001:00059040       ?type_case_p@?$output_processor@DV?$string_output_adapter@D@__crt_stdio_output@@V?$positional_parameter_base@DV?$string_output_adapter@D@__crt_stdio_output@@@2@@__crt_stdio_output@@AEAA_NXZ 000000018005a040 f i libucrt:output.obj
 0001:00059058       ?type_case_p@?$output_processor@DV?$string_output_adapter@D@__crt_stdio_output@@V?$standard_base@DV?$string_output_adapter@D@__crt_stdio_output@@@2@@__crt_stdio_output@@AEAA_NXZ 000000018005a058 f i libucrt:output.obj
 0001:00059070       ?type_case_p@?$output_processor@_WV?$stream_output_adapter@_W@__crt_stdio_output@@V?$format_validation_base@_WV?$stream_output_adapter@_W@__crt_stdio_output@@@2@@__crt_stdio_output@@AEAA_NXZ 000000018005a070 f i libucrt:output.obj
 0001:00059088       ?type_case_p@?$output_processor@_WV?$stream_output_adapter@_W@__crt_stdio_output@@V?$positional_parameter_base@_WV?$stream_output_adapter@_W@__crt_stdio_output@@@2@@__crt_stdio_output@@AEAA_NXZ 000000018005a088 f i libucrt:output.obj
 0001:000590a0       ?type_case_p@?$output_processor@_WV?$stream_output_adapter@_W@__crt_stdio_output@@V?$standard_base@_WV?$stream_output_adapter@_W@__crt_stdio_output@@@2@@__crt_stdio_output@@AEAA_NXZ 000000018005a0a0 f i libucrt:output.obj
 0001:000590b8       ?type_case_p@?$output_processor@_WV?$string_output_adapter@_W@__crt_stdio_output@@V?$format_validation_base@_WV?$string_output_adapter@_W@__crt_stdio_output@@@2@@__crt_stdio_output@@AEAA_NXZ 000000018005a0b8 f i libucrt:output.obj
 0001:000590d0       ?type_case_p@?$output_processor@_WV?$string_output_adapter@_W@__crt_stdio_output@@V?$positional_parameter_base@_WV?$string_output_adapter@_W@__crt_stdio_output@@@2@@__crt_stdio_output@@AEAA_NXZ 000000018005a0d0 f i libucrt:output.obj
 0001:000590e8       ?type_case_p@?$output_processor@_WV?$string_output_adapter@_W@__crt_stdio_output@@V?$standard_base@_WV?$string_output_adapter@_W@__crt_stdio_output@@@2@@__crt_stdio_output@@AEAA_NXZ 000000018005a0e8 f i libucrt:output.obj
 0001:00059100       ?type_case_s@?$output_processor@DV?$stream_output_adapter@D@__crt_stdio_output@@V?$format_validation_base@DV?$stream_output_adapter@D@__crt_stdio_output@@@2@@__crt_stdio_output@@AEAA_NXZ 000000018005a100 f i libucrt:output.obj
 0001:00059198       ?type_case_s@?$output_processor@DV?$stream_output_adapter@D@__crt_stdio_output@@V?$positional_parameter_base@DV?$stream_output_adapter@D@__crt_stdio_output@@@2@@__crt_stdio_output@@AEAA_NXZ 000000018005a198 f i libucrt:output.obj
 0001:00059250       ?type_case_s@?$output_processor@DV?$stream_output_adapter@D@__crt_stdio_output@@V?$standard_base@DV?$stream_output_adapter@D@__crt_stdio_output@@@2@@__crt_stdio_output@@AEAA_NXZ 000000018005a250 f i libucrt:output.obj
 0001:000592e8       ?type_case_s@?$output_processor@DV?$string_output_adapter@D@__crt_stdio_output@@V?$format_validation_base@DV?$string_output_adapter@D@__crt_stdio_output@@@2@@__crt_stdio_output@@AEAA_NXZ 000000018005a2e8 f i libucrt:output.obj
 0001:00059380       ?type_case_s@?$output_processor@DV?$string_output_adapter@D@__crt_stdio_output@@V?$positional_parameter_base@DV?$string_output_adapter@D@__crt_stdio_output@@@2@@__crt_stdio_output@@AEAA_NXZ 000000018005a380 f i libucrt:output.obj
 0001:00059438       ?type_case_s@?$output_processor@DV?$string_output_adapter@D@__crt_stdio_output@@V?$standard_base@DV?$string_output_adapter@D@__crt_stdio_output@@@2@@__crt_stdio_output@@AEAA_NXZ 000000018005a438 f i libucrt:output.obj
 0001:000594d0       ?type_case_s@?$output_processor@_WV?$stream_output_adapter@_W@__crt_stdio_output@@V?$format_validation_base@_WV?$stream_output_adapter@_W@__crt_stdio_output@@@2@@__crt_stdio_output@@AEAA_NXZ 000000018005a4d0 f i libucrt:output.obj
 0001:00059598       ?type_case_s@?$output_processor@_WV?$stream_output_adapter@_W@__crt_stdio_output@@V?$positional_parameter_base@_WV?$stream_output_adapter@_W@__crt_stdio_output@@@2@@__crt_stdio_output@@AEAA_NXZ 000000018005a598 f i libucrt:output.obj
 0001:00059684       ?type_case_s@?$output_processor@_WV?$stream_output_adapter@_W@__crt_stdio_output@@V?$standard_base@_WV?$stream_output_adapter@_W@__crt_stdio_output@@@2@@__crt_stdio_output@@AEAA_NXZ 000000018005a684 f i libucrt:output.obj
 0001:0005974c       ?type_case_s@?$output_processor@_WV?$string_output_adapter@_W@__crt_stdio_output@@V?$format_validation_base@_WV?$string_output_adapter@_W@__crt_stdio_output@@@2@@__crt_stdio_output@@AEAA_NXZ 000000018005a74c f i libucrt:output.obj
 0001:00059814       ?type_case_s@?$output_processor@_WV?$string_output_adapter@_W@__crt_stdio_output@@V?$positional_parameter_base@_WV?$string_output_adapter@_W@__crt_stdio_output@@@2@@__crt_stdio_output@@AEAA_NXZ 000000018005a814 f i libucrt:output.obj
 0001:00059900       ?type_case_s@?$output_processor@_WV?$string_output_adapter@_W@__crt_stdio_output@@V?$standard_base@_WV?$string_output_adapter@_W@__crt_stdio_output@@@2@@__crt_stdio_output@@AEAA_NXZ 000000018005a900 f i libucrt:output.obj
 0001:000599c8       ?type_case_s_compute_narrow_string_length@?$output_processor@DV?$stream_output_adapter@D@__crt_stdio_output@@V?$format_validation_base@DV?$stream_output_adapter@D@__crt_stdio_output@@@2@@__crt_stdio_output@@AEBAHHD@Z 000000018005a9c8 f i libucrt:output.obj
 0001:000599d4       ?type_case_s_compute_narrow_string_length@?$output_processor@DV?$stream_output_adapter@D@__crt_stdio_output@@V?$positional_parameter_base@DV?$stream_output_adapter@D@__crt_stdio_output@@@2@@__crt_stdio_output@@AEBAHHD@Z 000000018005a9d4 f i libucrt:output.obj
 0001:000599e0       ?type_case_s_compute_narrow_string_length@?$output_processor@DV?$stream_output_adapter@D@__crt_stdio_output@@V?$standard_base@DV?$stream_output_adapter@D@__crt_stdio_output@@@2@@__crt_stdio_output@@AEBAHHD@Z 000000018005a9e0 f i libucrt:output.obj
 0001:000599ec       ?type_case_s_compute_narrow_string_length@?$output_processor@DV?$string_output_adapter@D@__crt_stdio_output@@V?$format_validation_base@DV?$string_output_adapter@D@__crt_stdio_output@@@2@@__crt_stdio_output@@AEBAHHD@Z 000000018005a9ec f i libucrt:output.obj
 0001:000599f8       ?type_case_s_compute_narrow_string_length@?$output_processor@DV?$string_output_adapter@D@__crt_stdio_output@@V?$positional_parameter_base@DV?$string_output_adapter@D@__crt_stdio_output@@@2@@__crt_stdio_output@@AEBAHHD@Z 000000018005a9f8 f i libucrt:output.obj
 0001:00059a04       ?type_case_s_compute_narrow_string_length@?$output_processor@DV?$string_output_adapter@D@__crt_stdio_output@@V?$standard_base@DV?$string_output_adapter@D@__crt_stdio_output@@@2@@__crt_stdio_output@@AEBAHHD@Z 000000018005aa04 f i libucrt:output.obj
 0001:00059a10       ?type_case_s_compute_narrow_string_length@?$output_processor@_WV?$stream_output_adapter@_W@__crt_stdio_output@@V?$format_validation_base@_WV?$stream_output_adapter@_W@__crt_stdio_output@@@2@@__crt_stdio_output@@AEBAHH_W@Z 000000018005aa10 f i libucrt:output.obj
 0001:00059a64       ?type_case_s_compute_narrow_string_length@?$output_processor@_WV?$stream_output_adapter@_W@__crt_stdio_output@@V?$positional_parameter_base@_WV?$stream_output_adapter@_W@__crt_stdio_output@@@2@@__crt_stdio_output@@AEBAHH_W@Z 000000018005aa64 f i libucrt:output.obj
 0001:00059ab8       ?type_case_s_compute_narrow_string_length@?$output_processor@_WV?$stream_output_adapter@_W@__crt_stdio_output@@V?$standard_base@_WV?$stream_output_adapter@_W@__crt_stdio_output@@@2@@__crt_stdio_output@@AEBAHH_W@Z 000000018005aab8 f i libucrt:output.obj
 0001:00059b0c       ?type_case_s_compute_narrow_string_length@?$output_processor@_WV?$string_output_adapter@_W@__crt_stdio_output@@V?$format_validation_base@_WV?$string_output_adapter@_W@__crt_stdio_output@@@2@@__crt_stdio_output@@AEBAHH_W@Z 000000018005ab0c f i libucrt:output.obj
 0001:00059b60       ?type_case_s_compute_narrow_string_length@?$output_processor@_WV?$string_output_adapter@_W@__crt_stdio_output@@V?$positional_parameter_base@_WV?$string_output_adapter@_W@__crt_stdio_output@@@2@@__crt_stdio_output@@AEBAHH_W@Z 000000018005ab60 f i libucrt:output.obj
 0001:00059bb4       ?type_case_s_compute_narrow_string_length@?$output_processor@_WV?$string_output_adapter@_W@__crt_stdio_output@@V?$standard_base@_WV?$string_output_adapter@_W@__crt_stdio_output@@@2@@__crt_stdio_output@@AEBAHH_W@Z 000000018005abb4 f i libucrt:output.obj
 0001:00059c08       ?type_case_u@?$output_processor@DV?$stream_output_adapter@D@__crt_stdio_output@@V?$format_validation_base@DV?$stream_output_adapter@D@__crt_stdio_output@@@2@@__crt_stdio_output@@AEAA_NXZ 000000018005ac08 f i libucrt:output.obj
 0001:00059c14       ?type_case_u@?$output_processor@DV?$stream_output_adapter@D@__crt_stdio_output@@V?$positional_parameter_base@DV?$stream_output_adapter@D@__crt_stdio_output@@@2@@__crt_stdio_output@@AEAA_NXZ 000000018005ac14 f i libucrt:output.obj
 0001:00059c20       ?type_case_u@?$output_processor@DV?$stream_output_adapter@D@__crt_stdio_output@@V?$standard_base@DV?$stream_output_adapter@D@__crt_stdio_output@@@2@@__crt_stdio_output@@AEAA_NXZ 000000018005ac20 f i libucrt:output.obj
 0001:00059c2c       ?type_case_u@?$output_processor@DV?$string_output_adapter@D@__crt_stdio_output@@V?$format_validation_base@DV?$string_output_adapter@D@__crt_stdio_output@@@2@@__crt_stdio_output@@AEAA_NXZ 000000018005ac2c f i libucrt:output.obj
 0001:00059c38       ?type_case_u@?$output_processor@DV?$string_output_adapter@D@__crt_stdio_output@@V?$positional_parameter_base@DV?$string_output_adapter@D@__crt_stdio_output@@@2@@__crt_stdio_output@@AEAA_NXZ 000000018005ac38 f i libucrt:output.obj
 0001:00059c44       ?type_case_u@?$output_processor@DV?$string_output_adapter@D@__crt_stdio_output@@V?$standard_base@DV?$string_output_adapter@D@__crt_stdio_output@@@2@@__crt_stdio_output@@AEAA_NXZ 000000018005ac44 f i libucrt:output.obj
 0001:00059c50       ?type_case_u@?$output_processor@_WV?$stream_output_adapter@_W@__crt_stdio_output@@V?$format_validation_base@_WV?$stream_output_adapter@_W@__crt_stdio_output@@@2@@__crt_stdio_output@@AEAA_NXZ 000000018005ac50 f i libucrt:output.obj
 0001:00059c5c       ?type_case_u@?$output_processor@_WV?$stream_output_adapter@_W@__crt_stdio_output@@V?$positional_parameter_base@_WV?$stream_output_adapter@_W@__crt_stdio_output@@@2@@__crt_stdio_output@@AEAA_NXZ 000000018005ac5c f i libucrt:output.obj
 0001:00059c68       ?type_case_u@?$output_processor@_WV?$stream_output_adapter@_W@__crt_stdio_output@@V?$standard_base@_WV?$stream_output_adapter@_W@__crt_stdio_output@@@2@@__crt_stdio_output@@AEAA_NXZ 000000018005ac68 f i libucrt:output.obj
 0001:00059c74       ?type_case_u@?$output_processor@_WV?$string_output_adapter@_W@__crt_stdio_output@@V?$format_validation_base@_WV?$string_output_adapter@_W@__crt_stdio_output@@@2@@__crt_stdio_output@@AEAA_NXZ 000000018005ac74 f i libucrt:output.obj
 0001:00059c80       ?type_case_u@?$output_processor@_WV?$string_output_adapter@_W@__crt_stdio_output@@V?$positional_parameter_base@_WV?$string_output_adapter@_W@__crt_stdio_output@@@2@@__crt_stdio_output@@AEAA_NXZ 000000018005ac80 f i libucrt:output.obj
 0001:00059c8c       ?type_case_u@?$output_processor@_WV?$string_output_adapter@_W@__crt_stdio_output@@V?$standard_base@_WV?$string_output_adapter@_W@__crt_stdio_output@@@2@@__crt_stdio_output@@AEAA_NXZ 000000018005ac8c f i libucrt:output.obj
 0001:00059c98       ?type_case_x@?$output_processor@DV?$stream_output_adapter@D@__crt_stdio_output@@V?$format_validation_base@DV?$stream_output_adapter@D@__crt_stdio_output@@@2@@__crt_stdio_output@@AEAA_NXZ 000000018005ac98 f i libucrt:output.obj
 0001:00059ca4       ?type_case_x@?$output_processor@DV?$stream_output_adapter@D@__crt_stdio_output@@V?$positional_parameter_base@DV?$stream_output_adapter@D@__crt_stdio_output@@@2@@__crt_stdio_output@@AEAA_NXZ 000000018005aca4 f i libucrt:output.obj
 0001:00059cb0       ?type_case_x@?$output_processor@DV?$stream_output_adapter@D@__crt_stdio_output@@V?$standard_base@DV?$stream_output_adapter@D@__crt_stdio_output@@@2@@__crt_stdio_output@@AEAA_NXZ 000000018005acb0 f i libucrt:output.obj
 0001:00059cbc       ?type_case_x@?$output_processor@DV?$string_output_adapter@D@__crt_stdio_output@@V?$format_validation_base@DV?$string_output_adapter@D@__crt_stdio_output@@@2@@__crt_stdio_output@@AEAA_NXZ 000000018005acbc f i libucrt:output.obj
 0001:00059cc8       ?type_case_x@?$output_processor@DV?$string_output_adapter@D@__crt_stdio_output@@V?$positional_parameter_base@DV?$string_output_adapter@D@__crt_stdio_output@@@2@@__crt_stdio_output@@AEAA_NXZ 000000018005acc8 f i libucrt:output.obj
 0001:00059cd4       ?type_case_x@?$output_processor@DV?$string_output_adapter@D@__crt_stdio_output@@V?$standard_base@DV?$string_output_adapter@D@__crt_stdio_output@@@2@@__crt_stdio_output@@AEAA_NXZ 000000018005acd4 f i libucrt:output.obj
 0001:00059ce0       ?type_case_x@?$output_processor@_WV?$stream_output_adapter@_W@__crt_stdio_output@@V?$format_validation_base@_WV?$stream_output_adapter@_W@__crt_stdio_output@@@2@@__crt_stdio_output@@AEAA_NXZ 000000018005ace0 f i libucrt:output.obj
 0001:00059cec       ?type_case_x@?$output_processor@_WV?$stream_output_adapter@_W@__crt_stdio_output@@V?$positional_parameter_base@_WV?$stream_output_adapter@_W@__crt_stdio_output@@@2@@__crt_stdio_output@@AEAA_NXZ 000000018005acec f i libucrt:output.obj
 0001:00059cf8       ?type_case_x@?$output_processor@_WV?$stream_output_adapter@_W@__crt_stdio_output@@V?$standard_base@_WV?$stream_output_adapter@_W@__crt_stdio_output@@@2@@__crt_stdio_output@@AEAA_NXZ 000000018005acf8 f i libucrt:output.obj
 0001:00059d04       ?type_case_x@?$output_processor@_WV?$string_output_adapter@_W@__crt_stdio_output@@V?$format_validation_base@_WV?$string_output_adapter@_W@__crt_stdio_output@@@2@@__crt_stdio_output@@AEAA_NXZ 000000018005ad04 f i libucrt:output.obj
 0001:00059d10       ?type_case_x@?$output_processor@_WV?$string_output_adapter@_W@__crt_stdio_output@@V?$positional_parameter_base@_WV?$string_output_adapter@_W@__crt_stdio_output@@@2@@__crt_stdio_output@@AEAA_NXZ 000000018005ad10 f i libucrt:output.obj
 0001:00059d1c       ?type_case_x@?$output_processor@_WV?$string_output_adapter@_W@__crt_stdio_output@@V?$standard_base@_WV?$string_output_adapter@_W@__crt_stdio_output@@@2@@__crt_stdio_output@@AEAA_NXZ 000000018005ad1c f i libucrt:output.obj
 0001:00059d28       ?unset_flag@?$output_processor@DV?$stream_output_adapter@D@__crt_stdio_output@@V?$format_validation_base@DV?$stream_output_adapter@D@__crt_stdio_output@@@2@@__crt_stdio_output@@AEAAXI@Z 000000018005ad28 f i libucrt:output.obj
 0001:00059d30       ?unset_flag@?$output_processor@DV?$stream_output_adapter@D@__crt_stdio_output@@V?$positional_parameter_base@DV?$stream_output_adapter@D@__crt_stdio_output@@@2@@__crt_stdio_output@@AEAAXI@Z 000000018005ad30 f i libucrt:output.obj
 0001:00059d38       ?unset_flag@?$output_processor@DV?$stream_output_adapter@D@__crt_stdio_output@@V?$standard_base@DV?$stream_output_adapter@D@__crt_stdio_output@@@2@@__crt_stdio_output@@AEAAXI@Z 000000018005ad38 f i libucrt:output.obj
 0001:00059d40       ?unset_flag@?$output_processor@DV?$string_output_adapter@D@__crt_stdio_output@@V?$format_validation_base@DV?$string_output_adapter@D@__crt_stdio_output@@@2@@__crt_stdio_output@@AEAAXI@Z 000000018005ad40 f i libucrt:output.obj
 0001:00059d48       ?unset_flag@?$output_processor@DV?$string_output_adapter@D@__crt_stdio_output@@V?$positional_parameter_base@DV?$string_output_adapter@D@__crt_stdio_output@@@2@@__crt_stdio_output@@AEAAXI@Z 000000018005ad48 f i libucrt:output.obj
 0001:00059d50       ?unset_flag@?$output_processor@DV?$string_output_adapter@D@__crt_stdio_output@@V?$standard_base@DV?$string_output_adapter@D@__crt_stdio_output@@@2@@__crt_stdio_output@@AEAAXI@Z 000000018005ad50 f i libucrt:output.obj
 0001:00059d58       ?unset_flag@?$output_processor@_WV?$stream_output_adapter@_W@__crt_stdio_output@@V?$format_validation_base@_WV?$stream_output_adapter@_W@__crt_stdio_output@@@2@@__crt_stdio_output@@AEAAXI@Z 000000018005ad58 f i libucrt:output.obj
 0001:00059d60       ?unset_flag@?$output_processor@_WV?$stream_output_adapter@_W@__crt_stdio_output@@V?$positional_parameter_base@_WV?$stream_output_adapter@_W@__crt_stdio_output@@@2@@__crt_stdio_output@@AEAAXI@Z 000000018005ad60 f i libucrt:output.obj
 0001:00059d68       ?unset_flag@?$output_processor@_WV?$stream_output_adapter@_W@__crt_stdio_output@@V?$standard_base@_WV?$stream_output_adapter@_W@__crt_stdio_output@@@2@@__crt_stdio_output@@AEAAXI@Z 000000018005ad68 f i libucrt:output.obj
 0001:00059d70       ?unset_flag@?$output_processor@_WV?$string_output_adapter@_W@__crt_stdio_output@@V?$format_validation_base@_WV?$string_output_adapter@_W@__crt_stdio_output@@@2@@__crt_stdio_output@@AEAAXI@Z 000000018005ad70 f i libucrt:output.obj
 0001:00059d78       ?unset_flag@?$output_processor@_WV?$string_output_adapter@_W@__crt_stdio_output@@V?$positional_parameter_base@_WV?$string_output_adapter@_W@__crt_stdio_output@@@2@@__crt_stdio_output@@AEAAXI@Z 000000018005ad78 f i libucrt:output.obj
 0001:00059d80       ?unset_flag@?$output_processor@_WV?$string_output_adapter@_W@__crt_stdio_output@@V?$standard_base@_WV?$string_output_adapter@_W@__crt_stdio_output@@@2@@__crt_stdio_output@@AEAAXI@Z 000000018005ad80 f i libucrt:output.obj
 0001:00059d88       ?update_field_width@?$positional_parameter_base@DV?$stream_output_adapter@D@__crt_stdio_output@@@__crt_stdio_output@@IEAA_NXZ 000000018005ad88 f i libucrt:output.obj
 0001:00059ea0       ?update_field_width@?$positional_parameter_base@DV?$string_output_adapter@D@__crt_stdio_output@@@__crt_stdio_output@@IEAA_NXZ 000000018005aea0 f i libucrt:output.obj
 0001:00059fb8       ?update_field_width@?$positional_parameter_base@_WV?$stream_output_adapter@_W@__crt_stdio_output@@@__crt_stdio_output@@IEAA_NXZ 000000018005afb8 f i libucrt:output.obj
 0001:0005a0d0       ?update_field_width@?$positional_parameter_base@_WV?$string_output_adapter@_W@__crt_stdio_output@@@__crt_stdio_output@@IEAA_NXZ 000000018005b0d0 f i libucrt:output.obj
 0001:0005a1e8       ?update_field_width@?$standard_base@DV?$stream_output_adapter@D@__crt_stdio_output@@@__crt_stdio_output@@IEAA_NXZ 000000018005b1e8 f i libucrt:output.obj
 0001:0005a1fc       ?update_field_width@?$standard_base@DV?$string_output_adapter@D@__crt_stdio_output@@@__crt_stdio_output@@IEAA_NXZ 000000018005b1fc f i libucrt:output.obj
 0001:0005a210       ?update_field_width@?$standard_base@_WV?$stream_output_adapter@_W@__crt_stdio_output@@@__crt_stdio_output@@IEAA_NXZ 000000018005b210 f i libucrt:output.obj
 0001:0005a224       ?update_field_width@?$standard_base@_WV?$string_output_adapter@_W@__crt_stdio_output@@@__crt_stdio_output@@IEAA_NXZ 000000018005b224 f i libucrt:output.obj
 0001:0005a238       ?update_precision@?$positional_parameter_base@DV?$stream_output_adapter@D@__crt_stdio_output@@@__crt_stdio_output@@IEAA_NXZ 000000018005b238 f i libucrt:output.obj
 0001:0005a350       ?update_precision@?$positional_parameter_base@DV?$string_output_adapter@D@__crt_stdio_output@@@__crt_stdio_output@@IEAA_NXZ 000000018005b350 f i libucrt:output.obj
 0001:0005a468       ?update_precision@?$positional_parameter_base@_WV?$stream_output_adapter@_W@__crt_stdio_output@@@__crt_stdio_output@@IEAA_NXZ 000000018005b468 f i libucrt:output.obj
 0001:0005a580       ?update_precision@?$positional_parameter_base@_WV?$string_output_adapter@_W@__crt_stdio_output@@@__crt_stdio_output@@IEAA_NXZ 000000018005b580 f i libucrt:output.obj
 0001:0005a698       ?update_precision@?$standard_base@DV?$stream_output_adapter@D@__crt_stdio_output@@@__crt_stdio_output@@IEAA_NXZ 000000018005b698 f i libucrt:output.obj
 0001:0005a6ac       ?update_precision@?$standard_base@DV?$string_output_adapter@D@__crt_stdio_output@@@__crt_stdio_output@@IEAA_NXZ 000000018005b6ac f i libucrt:output.obj
 0001:0005a6c0       ?update_precision@?$standard_base@_WV?$stream_output_adapter@_W@__crt_stdio_output@@@__crt_stdio_output@@IEAA_NXZ 000000018005b6c0 f i libucrt:output.obj
 0001:0005a6d4       ?update_precision@?$standard_base@_WV?$string_output_adapter@_W@__crt_stdio_output@@@__crt_stdio_output@@IEAA_NXZ 000000018005b6d4 f i libucrt:output.obj
 0001:0005a6e8       ?valid@__crt_stdio_stream@@QEBA_NXZ 000000018005b6e8 f i libucrt:output.obj
 0001:0005a6f0       ?validate@?$stream_output_adapter@D@__crt_stdio_output@@QEBA_NXZ 000000018005b6f0 f i libucrt:output.obj
 0001:0005a71c       ?validate@?$stream_output_adapter@_W@__crt_stdio_output@@QEBA_NXZ 000000018005b71c f i libucrt:output.obj
 0001:0005a744       ?validate@?$string_output_adapter@D@__crt_stdio_output@@QEBA_NXZ 000000018005b744 f i libucrt:output.obj
 0001:0005a76c       ?validate@?$string_output_adapter@_W@__crt_stdio_output@@QEBA_NXZ 000000018005b76c f i libucrt:output.obj
 0001:0005a794       ?validate_and_store_parameter_data@?$positional_parameter_base@DV?$stream_output_adapter@D@__crt_stdio_output@@@__crt_stdio_output@@AEAA_NAEAUparameter_data@12@W4parameter_type@12@DW4length_modifier@2@@Z 000000018005b794 f i libucrt:output.obj
 0001:0005a7d4       ?validate_and_store_parameter_data@?$positional_parameter_base@DV?$string_output_adapter@D@__crt_stdio_output@@@__crt_stdio_output@@AEAA_NAEAUparameter_data@12@W4parameter_type@12@DW4length_modifier@2@@Z 000000018005b7d4 f i libucrt:output.obj
 0001:0005a814       ?validate_and_store_parameter_data@?$positional_parameter_base@_WV?$stream_output_adapter@_W@__crt_stdio_output@@@__crt_stdio_output@@AEAA_NAEAUparameter_data@12@W4parameter_type@12@_WW4length_modifier@2@@Z 000000018005b814 f i libucrt:output.obj
 0001:0005a854       ?validate_and_store_parameter_data@?$positional_parameter_base@_WV?$string_output_adapter@_W@__crt_stdio_output@@@__crt_stdio_output@@AEAA_NAEAUparameter_data@12@W4parameter_type@12@_WW4length_modifier@2@@Z 000000018005b854 f i libucrt:output.obj
 0001:0005a894       ?validate_and_update_state_at_beginning_of_format_character@?$positional_parameter_base@DV?$stream_output_adapter@D@__crt_stdio_output@@@__crt_stdio_output@@IEAA_NXZ 000000018005b894 f i libucrt:output.obj
 0001:0005a9a0       ?validate_and_update_state_at_beginning_of_format_character@?$positional_parameter_base@DV?$string_output_adapter@D@__crt_stdio_output@@@__crt_stdio_output@@IEAA_NXZ 000000018005b9a0 f i libucrt:output.obj
 0001:0005aaac       ?validate_and_update_state_at_beginning_of_format_character@?$positional_parameter_base@_WV?$stream_output_adapter@_W@__crt_stdio_output@@@__crt_stdio_output@@IEAA_NXZ 000000018005baac f i libucrt:output.obj
 0001:0005abc0       ?validate_and_update_state_at_beginning_of_format_character@?$positional_parameter_base@_WV?$string_output_adapter@_W@__crt_stdio_output@@@__crt_stdio_output@@IEAA_NXZ 000000018005bbc0 f i libucrt:output.obj
 0001:0005acd4       ?validate_and_update_state_at_beginning_of_format_character@?$standard_base@DV?$stream_output_adapter@D@__crt_stdio_output@@@__crt_stdio_output@@IEAA_NXZ 000000018005bcd4 f i libucrt:output.obj
 0001:0005acd8       ?validate_and_update_state_at_beginning_of_format_character@?$standard_base@DV?$string_output_adapter@D@__crt_stdio_output@@@__crt_stdio_output@@IEAA_NXZ 000000018005bcd8 f i libucrt:output.obj
 0001:0005acdc       ?validate_and_update_state_at_beginning_of_format_character@?$standard_base@_WV?$stream_output_adapter@_W@__crt_stdio_output@@@__crt_stdio_output@@IEAA_NXZ 000000018005bcdc f i libucrt:output.obj
 0001:0005ace0       ?validate_and_update_state_at_beginning_of_format_character@?$standard_base@_WV?$string_output_adapter@_W@__crt_stdio_output@@@__crt_stdio_output@@IEAA_NXZ 000000018005bce0 f i libucrt:output.obj
 0001:0005ace4       ?validate_and_update_state_at_end_of_format_string@?$format_validation_base@DV?$stream_output_adapter@D@__crt_stdio_output@@@__crt_stdio_output@@IEBA_NXZ 000000018005bce4 f i libucrt:output.obj
 0001:0005ad10       ?validate_and_update_state_at_end_of_format_string@?$format_validation_base@DV?$string_output_adapter@D@__crt_stdio_output@@@__crt_stdio_output@@IEBA_NXZ 000000018005bd10 f i libucrt:output.obj
 0001:0005ad3c       ?validate_and_update_state_at_end_of_format_string@?$format_validation_base@_WV?$stream_output_adapter@_W@__crt_stdio_output@@@__crt_stdio_output@@IEBA_NXZ 000000018005bd3c f i libucrt:output.obj
 0001:0005ad68       ?validate_and_update_state_at_end_of_format_string@?$format_validation_base@_WV?$string_output_adapter@_W@__crt_stdio_output@@@__crt_stdio_output@@IEBA_NXZ 000000018005bd68 f i libucrt:output.obj
 0001:0005ad94       ?validate_and_update_state_at_end_of_format_string@?$positional_parameter_base@DV?$stream_output_adapter@D@__crt_stdio_output@@@__crt_stdio_output@@IEAA_NXZ 000000018005bd94 f i libucrt:output.obj
 0001:0005ae30       ?validate_and_update_state_at_end_of_format_string@?$positional_parameter_base@DV?$string_output_adapter@D@__crt_stdio_output@@@__crt_stdio_output@@IEAA_NXZ 000000018005be30 f i libucrt:output.obj
 0001:0005aecc       ?validate_and_update_state_at_end_of_format_string@?$positional_parameter_base@_WV?$stream_output_adapter@_W@__crt_stdio_output@@@__crt_stdio_output@@IEAA_NXZ 000000018005becc f i libucrt:output.obj
 0001:0005af68       ?validate_and_update_state_at_end_of_format_string@?$positional_parameter_base@_WV?$string_output_adapter@_W@__crt_stdio_output@@@__crt_stdio_output@@IEAA_NXZ 000000018005bf68 f i libucrt:output.obj
 0001:0005b004       ?validate_and_update_state_at_end_of_format_string@?$standard_base@DV?$stream_output_adapter@D@__crt_stdio_output@@@__crt_stdio_output@@IEBA_NXZ 000000018005c004 f i libucrt:output.obj
 0001:0005b008       ?validate_and_update_state_at_end_of_format_string@?$standard_base@DV?$string_output_adapter@D@__crt_stdio_output@@@__crt_stdio_output@@IEBA_NXZ 000000018005c008 f i libucrt:output.obj
 0001:0005b00c       ?validate_and_update_state_at_end_of_format_string@?$standard_base@_WV?$stream_output_adapter@_W@__crt_stdio_output@@@__crt_stdio_output@@IEBA_NXZ 000000018005c00c f i libucrt:output.obj
 0001:0005b010       ?validate_and_update_state_at_end_of_format_string@?$standard_base@_WV?$string_output_adapter@_W@__crt_stdio_output@@@__crt_stdio_output@@IEBA_NXZ 000000018005c010 f i libucrt:output.obj
 0001:0005b014       ?validate_state_for_type_case_a@?$positional_parameter_base@DV?$stream_output_adapter@D@__crt_stdio_output@@@__crt_stdio_output@@IEAA_NXZ 000000018005c014 f i libucrt:output.obj
 0001:0005b0b0       ?validate_state_for_type_case_a@?$positional_parameter_base@DV?$string_output_adapter@D@__crt_stdio_output@@@__crt_stdio_output@@IEAA_NXZ 000000018005c0b0 f i libucrt:output.obj
 0001:0005b14c       ?validate_state_for_type_case_a@?$positional_parameter_base@_WV?$stream_output_adapter@_W@__crt_stdio_output@@@__crt_stdio_output@@IEAA_NXZ 000000018005c14c f i libucrt:output.obj
 0001:0005b1ec       ?validate_state_for_type_case_a@?$positional_parameter_base@_WV?$string_output_adapter@_W@__crt_stdio_output@@@__crt_stdio_output@@IEAA_NXZ 000000018005c1ec f i libucrt:output.obj
 0001:0005b28c       ?validate_state_for_type_case_a@?$standard_base@DV?$stream_output_adapter@D@__crt_stdio_output@@@__crt_stdio_output@@IEBA_NXZ 000000018005c28c f i libucrt:output.obj
 0001:0005b290       ?validate_state_for_type_case_a@?$standard_base@DV?$string_output_adapter@D@__crt_stdio_output@@@__crt_stdio_output@@IEBA_NXZ 000000018005c290 f i libucrt:output.obj
 0001:0005b294       ?validate_state_for_type_case_a@?$standard_base@_WV?$stream_output_adapter@_W@__crt_stdio_output@@@__crt_stdio_output@@IEBA_NXZ 000000018005c294 f i libucrt:output.obj
 0001:0005b298       ?validate_state_for_type_case_a@?$standard_base@_WV?$string_output_adapter@_W@__crt_stdio_output@@@__crt_stdio_output@@IEBA_NXZ 000000018005c298 f i libucrt:output.obj
 0001:0005b29c       ?validate_stream_is_ansi_if_required@?$__acrt_stdio_char_traits@D@@SA_NQEAU_iobuf@@@Z 000000018005c29c f i libucrt:output.obj
 0001:0005b338       ?validate_stream_is_ansi_if_required@?$__acrt_stdio_char_traits@_W@@SA_NQEAU_iobuf@@@Z 000000018005c338 f i libucrt:output.obj
 0001:0005b33c       ?wide_null_string@?$output_processor@DV?$stream_output_adapter@D@__crt_stdio_output@@V?$format_validation_base@DV?$stream_output_adapter@D@__crt_stdio_output@@@2@@__crt_stdio_output@@CAPEA_WXZ 000000018005c33c f i libucrt:output.obj
 0001:0005b344       ?wide_null_string@?$output_processor@DV?$stream_output_adapter@D@__crt_stdio_output@@V?$positional_parameter_base@DV?$stream_output_adapter@D@__crt_stdio_output@@@2@@__crt_stdio_output@@CAPEA_WXZ 000000018005c344 f i libucrt:output.obj
 0001:0005b34c       ?wide_null_string@?$output_processor@DV?$stream_output_adapter@D@__crt_stdio_output@@V?$standard_base@DV?$stream_output_adapter@D@__crt_stdio_output@@@2@@__crt_stdio_output@@CAPEA_WXZ 000000018005c34c f i libucrt:output.obj
 0001:0005b354       ?wide_null_string@?$output_processor@DV?$string_output_adapter@D@__crt_stdio_output@@V?$format_validation_base@DV?$string_output_adapter@D@__crt_stdio_output@@@2@@__crt_stdio_output@@CAPEA_WXZ 000000018005c354 f i libucrt:output.obj
 0001:0005b35c       ?wide_null_string@?$output_processor@DV?$string_output_adapter@D@__crt_stdio_output@@V?$positional_parameter_base@DV?$string_output_adapter@D@__crt_stdio_output@@@2@@__crt_stdio_output@@CAPEA_WXZ 000000018005c35c f i libucrt:output.obj
 0001:0005b364       ?wide_null_string@?$output_processor@DV?$string_output_adapter@D@__crt_stdio_output@@V?$standard_base@DV?$string_output_adapter@D@__crt_stdio_output@@@2@@__crt_stdio_output@@CAPEA_WXZ 000000018005c364 f i libucrt:output.obj
 0001:0005b36c       ?wide_null_string@?$output_processor@_WV?$stream_output_adapter@_W@__crt_stdio_output@@V?$format_validation_base@_WV?$stream_output_adapter@_W@__crt_stdio_output@@@2@@__crt_stdio_output@@CAPEA_WXZ 000000018005c36c f i libucrt:output.obj
 0001:0005b374       ?wide_null_string@?$output_processor@_WV?$stream_output_adapter@_W@__crt_stdio_output@@V?$positional_parameter_base@_WV?$stream_output_adapter@_W@__crt_stdio_output@@@2@@__crt_stdio_output@@CAPEA_WXZ 000000018005c374 f i libucrt:output.obj
 0001:0005b37c       ?wide_null_string@?$output_processor@_WV?$stream_output_adapter@_W@__crt_stdio_output@@V?$standard_base@_WV?$stream_output_adapter@_W@__crt_stdio_output@@@2@@__crt_stdio_output@@CAPEA_WXZ 000000018005c37c f i libucrt:output.obj
 0001:0005b384       ?wide_null_string@?$output_processor@_WV?$string_output_adapter@_W@__crt_stdio_output@@V?$format_validation_base@_WV?$string_output_adapter@_W@__crt_stdio_output@@@2@@__crt_stdio_output@@CAPEA_WXZ 000000018005c384 f i libucrt:output.obj
 0001:0005b38c       ?wide_null_string@?$output_processor@_WV?$string_output_adapter@_W@__crt_stdio_output@@V?$positional_parameter_base@_WV?$string_output_adapter@_W@__crt_stdio_output@@@2@@__crt_stdio_output@@CAPEA_WXZ 000000018005c38c f i libucrt:output.obj
 0001:0005b394       ?wide_null_string@?$output_processor@_WV?$string_output_adapter@_W@__crt_stdio_output@@V?$standard_base@_WV?$string_output_adapter@_W@__crt_stdio_output@@@2@@__crt_stdio_output@@CAPEA_WXZ 000000018005c394 f i libucrt:output.obj
 0001:0005b39c       ?write_character@?$output_adapter_common@DV?$stream_output_adapter@D@__crt_stdio_output@@@__crt_stdio_output@@QEBAXDQEAH@Z 000000018005c39c f i libucrt:output.obj
 0001:0005b3e4       ?write_character@?$output_adapter_common@_WV?$stream_output_adapter@_W@__crt_stdio_output@@@__crt_stdio_output@@QEBAX_WQEAH@Z 000000018005c3e4 f i libucrt:output.obj
 0001:0005b430       ?write_character@?$string_output_adapter@D@__crt_stdio_output@@QEBA_NDQEAH@Z 000000018005c430 f i libucrt:output.obj
 0001:0005b478       ?write_character@?$string_output_adapter@_W@__crt_stdio_output@@QEBA_N_WQEAH@Z 000000018005c478 f i libucrt:output.obj
 0001:0005b4c0       ?write_character_without_count_update@?$stream_output_adapter@D@__crt_stdio_output@@QEBA_ND@Z 000000018005c4c0 f i libucrt:output.obj
 0001:0005b500       ?write_character_without_count_update@?$stream_output_adapter@_W@__crt_stdio_output@@QEBA_N_W@Z 000000018005c500 f i libucrt:output.obj
 0001:0005b540       ?write_stored_string_tchar@?$output_processor@DV?$stream_output_adapter@D@__crt_stdio_output@@V?$format_validation_base@DV?$stream_output_adapter@D@__crt_stdio_output@@@2@@__crt_stdio_output@@AEAA_ND@Z 000000018005c540 f i libucrt:output.obj
 0001:0005b664       ?write_stored_string_tchar@?$output_processor@DV?$stream_output_adapter@D@__crt_stdio_output@@V?$positional_parameter_base@DV?$stream_output_adapter@D@__crt_stdio_output@@@2@@__crt_stdio_output@@AEAA_ND@Z 000000018005c664 f i libucrt:output.obj
 0001:0005b788       ?write_stored_string_tchar@?$output_processor@DV?$stream_output_adapter@D@__crt_stdio_output@@V?$standard_base@DV?$stream_output_adapter@D@__crt_stdio_output@@@2@@__crt_stdio_output@@AEAA_ND@Z 000000018005c788 f i libucrt:output.obj
 0001:0005b8ac       ?write_stored_string_tchar@?$output_processor@DV?$string_output_adapter@D@__crt_stdio_output@@V?$format_validation_base@DV?$string_output_adapter@D@__crt_stdio_output@@@2@@__crt_stdio_output@@AEAA_ND@Z 000000018005c8ac f i libucrt:output.obj
 0001:0005b988       ?write_stored_string_tchar@?$output_processor@DV?$string_output_adapter@D@__crt_stdio_output@@V?$positional_parameter_base@DV?$string_output_adapter@D@__crt_stdio_output@@@2@@__crt_stdio_output@@AEAA_ND@Z 000000018005c988 f i libucrt:output.obj
 0001:0005ba64       ?write_stored_string_tchar@?$output_processor@DV?$string_output_adapter@D@__crt_stdio_output@@V?$standard_base@DV?$string_output_adapter@D@__crt_stdio_output@@@2@@__crt_stdio_output@@AEAA_ND@Z 000000018005ca64 f i libucrt:output.obj
 0001:0005bb40       ?write_stored_string_tchar@?$output_processor@_WV?$stream_output_adapter@_W@__crt_stdio_output@@V?$format_validation_base@_WV?$stream_output_adapter@_W@__crt_stdio_output@@@2@@__crt_stdio_output@@AEAA_N_W@Z 000000018005cb40 f i libucrt:output.obj
 0001:0005bc44       ?write_stored_string_tchar@?$output_processor@_WV?$stream_output_adapter@_W@__crt_stdio_output@@V?$positional_parameter_base@_WV?$stream_output_adapter@_W@__crt_stdio_output@@@2@@__crt_stdio_output@@AEAA_N_W@Z 000000018005cc44 f i libucrt:output.obj
 0001:0005bd48       ?write_stored_string_tchar@?$output_processor@_WV?$stream_output_adapter@_W@__crt_stdio_output@@V?$standard_base@_WV?$stream_output_adapter@_W@__crt_stdio_output@@@2@@__crt_stdio_output@@AEAA_N_W@Z 000000018005cd48 f i libucrt:output.obj
 0001:0005be4c       ?write_stored_string_tchar@?$output_processor@_WV?$string_output_adapter@_W@__crt_stdio_output@@V?$format_validation_base@_WV?$string_output_adapter@_W@__crt_stdio_output@@@2@@__crt_stdio_output@@AEAA_N_W@Z 000000018005ce4c f i libucrt:output.obj
 0001:0005bf34       ?write_stored_string_tchar@?$output_processor@_WV?$string_output_adapter@_W@__crt_stdio_output@@V?$positional_parameter_base@_WV?$string_output_adapter@_W@__crt_stdio_output@@@2@@__crt_stdio_output@@AEAA_N_W@Z 000000018005cf34 f i libucrt:output.obj
 0001:0005c01c       ?write_stored_string_tchar@?$output_processor@_WV?$string_output_adapter@_W@__crt_stdio_output@@V?$standard_base@_WV?$string_output_adapter@_W@__crt_stdio_output@@@2@@__crt_stdio_output@@AEAA_N_W@Z 000000018005d01c f i libucrt:output.obj
 0001:0005c104       ?write_string@?$stream_output_adapter@D@__crt_stdio_output@@QEBAXQEBDHQEAHAEAV__crt_deferred_errno_cache@@@Z 000000018005d104 f i libucrt:output.obj
 0001:0005c128       ?write_string@?$stream_output_adapter@_W@__crt_stdio_output@@QEBAXQEB_WHQEAHAEAV__crt_deferred_errno_cache@@@Z 000000018005d128 f i libucrt:output.obj
 0001:0005c14c       ?write_string@?$string_output_adapter@D@__crt_stdio_output@@QEBAXQEBDHQEAHAEAV__crt_deferred_errno_cache@@@Z 000000018005d14c f i libucrt:output.obj
 0001:0005c1f0       ?write_string@?$string_output_adapter@_W@__crt_stdio_output@@QEBAXQEB_WHQEAHAEAV__crt_deferred_errno_cache@@@Z 000000018005d1f0 f i libucrt:output.obj
 0001:0005c298       ?write_string_impl@?$output_adapter_common@DV?$stream_output_adapter@D@__crt_stdio_output@@@__crt_stdio_output@@IEBAXQEBDHQEAHAEAV__crt_deferred_errno_cache@@@Z 000000018005d298 f i libucrt:output.obj
 0001:0005c390       ?write_string_impl@?$output_adapter_common@_WV?$stream_output_adapter@_W@__crt_stdio_output@@@__crt_stdio_output@@IEBAXQEB_WHQEAHAEAV__crt_deferred_errno_cache@@@Z 000000018005d390 f i libucrt:output.obj
 0001:0005c490       __acrt_disable_global_locale_sync 000000018005d490 f i libucrt:output.obj
 0001:0005c498       __acrt_enable_global_locale_sync 000000018005d498 f i libucrt:output.obj
 0001:0005c4a4       __acrt_isleadbyte_l_noupdate 000000018005d4a4 f i libucrt:output.obj
 0001:0005c4c8       __acrt_locale_changed      000000018005d4c8 f i libucrt:output.obj
 0001:0005c4d4       __acrt_locale_get_ctype_array_value 000000018005d4d4 f i libucrt:output.obj
 0001:0005c4ec       __stdio_common_vfprintf    000000018005d4ec f   libucrt:output.obj
 0001:0005c578       __stdio_common_vfprintf_p  000000018005d578 f   libucrt:output.obj
 0001:0005c604       __stdio_common_vfprintf_s  000000018005d604 f   libucrt:output.obj
 0001:0005c690       __stdio_common_vfwprintf   000000018005d690 f   libucrt:output.obj
 0001:0005c71c       __stdio_common_vfwprintf_p 000000018005d71c f   libucrt:output.obj
 0001:0005c7a8       __stdio_common_vfwprintf_s 000000018005d7a8 f   libucrt:output.obj
 0001:0005c834       __stdio_common_vsnprintf_s 000000018005d834 f   libucrt:output.obj
 0001:0005c980       __stdio_common_vsnwprintf_s 000000018005d980 f   libucrt:output.obj
 0001:0005cadc       __stdio_common_vsprintf    000000018005dadc f   libucrt:output.obj
 0001:0005cae4       __stdio_common_vsprintf_p  000000018005dae4 f   libucrt:output.obj
 0001:0005caec       __stdio_common_vsprintf_s  000000018005daec f   libucrt:output.obj
 0001:0005cb50       __stdio_common_vswprintf   000000018005db50 f   libucrt:output.obj
 0001:0005cb58       __stdio_common_vswprintf_p 000000018005db58 f   libucrt:output.obj
 0001:0005cb60       __stdio_common_vswprintf_s 000000018005db60 f   libucrt:output.obj
 0001:0005cbd0       _ctype_fast_check_internal 000000018005dbd0 f i libucrt:output.obj
 0001:0005cbe4       _isdigit_fast_internal     000000018005dbe4 f i libucrt:output.obj
 0001:0005cbf8       _tolower_fast_internal     000000018005dbf8 f i libucrt:output.obj
 0001:0005cc0c       ??$is_overflow_condition@K@__crt_strtox@@YA_NIK@Z 000000018005dc0c f i libucrt:atox.obj
 0001:0005cc30       ??$is_overflow_condition@_K@__crt_strtox@@YA_NI_K@Z 000000018005dc30 f i libucrt:atox.obj
 0001:0005cc60       ??$make_c_string_character_source@D$$T@__crt_strtox@@YA?AV?$c_string_character_source@D@0@QEBD$$T@Z 000000018005dc60 f i libucrt:atox.obj
 0001:0005cc74       ??$make_c_string_character_source@_W$$T@__crt_strtox@@YA?AV?$c_string_character_source@_W@0@QEB_W$$T@Z 000000018005dc74 f i libucrt:atox.obj
 0001:0005cc88       ??$parse_integer@KV?$c_string_character_source@D@__crt_strtox@@@__crt_strtox@@YAKQEAU__crt_locale_pointers@@V?$c_string_character_source@D@0@H_N@Z 000000018005dc88 f i libucrt:atox.obj
 0001:0005cf8c       ??$parse_integer@KV?$c_string_character_source@_W@__crt_strtox@@@__crt_strtox@@YAKQEAU__crt_locale_pointers@@V?$c_string_character_source@_W@0@H_N@Z 000000018005df8c f i libucrt:atox.obj
 0001:0005d634       ??$parse_integer@_KV?$c_string_character_source@D@__crt_strtox@@@__crt_strtox@@YA_KQEAU__crt_locale_pointers@@V?$c_string_character_source@D@0@H_N@Z 000000018005e634 f i libucrt:atox.obj
 0001:0005d924       ??$parse_integer@_KV?$c_string_character_source@_W@__crt_strtox@@@__crt_strtox@@YA_KQEAU__crt_locale_pointers@@V?$c_string_character_source@_W@0@H_N@Z 000000018005e924 f i libucrt:atox.obj
 0001:0005e07c       ??$parse_integer_from_string@JD$$T@__crt_strtox@@YAJQEBD$$THQEAU__crt_locale_pointers@@@Z 000000018005f07c f i libucrt:atox.obj
 0001:0005e0ac       ??$parse_integer_from_string@J_W$$T@__crt_strtox@@YAJQEB_W$$THQEAU__crt_locale_pointers@@@Z 000000018005f0ac f i libucrt:atox.obj
 0001:0005e0dc       ??$parse_integer_from_string@_JD$$T@__crt_strtox@@YA_JQEBD$$THQEAU__crt_locale_pointers@@@Z 000000018005f0dc f i libucrt:atox.obj
 0001:0005e10c       ??$parse_integer_from_string@_J_W$$T@__crt_strtox@@YA_JQEB_W$$THQEAU__crt_locale_pointers@@@Z 000000018005f10c f i libucrt:atox.obj
 0001:0005e13c       ??0?$c_string_character_source@D@__crt_strtox@@QEAA@QEBDQEAPEBD@Z 000000018005f13c f i libucrt:atox.obj
 0001:0005e150       ??0?$c_string_character_source@_W@__crt_strtox@@QEAA@QEB_WQEAPEB_W@Z 000000018005f150 f i libucrt:atox.obj
 0001:0005e164       ??1?$c_string_character_source@D@__crt_strtox@@QEAA@XZ 000000018005f164 f i libucrt:atox.obj
 0001:0005e174       ??1?$c_string_character_source@_W@__crt_strtox@@QEAA@XZ 000000018005f174 f i libucrt:atox.obj
 0001:0005e184       ?get@?$c_string_character_source@D@__crt_strtox@@QEAADXZ 000000018005f184 f i libucrt:atox.obj
 0001:0005e190       ?get@?$c_string_character_source@_W@__crt_strtox@@QEAA_WXZ 000000018005f190 f i libucrt:atox.obj
 0001:0005e1a0       ?is_space@__crt_strtox@@YA_NDQEAU__crt_locale_pointers@@@Z 000000018005f1a0 f i libucrt:atox.obj
 0001:0005e1c0       ?is_space@__crt_strtox@@YA_N_WPEAU__crt_locale_pointers@@@Z 000000018005f1c0 f i libucrt:atox.obj
 0001:0005e1d8       ?maximum_signed_value@__crt_strtox@@YAJK@Z 000000018005f1d8 f i libucrt:atox.obj
 0001:0005e1e0       ?maximum_signed_value@__crt_strtox@@YA_J_K@Z 000000018005f1e0 f i libucrt:atox.obj
 0001:0005e1ec       ?minimum_signed_value@__crt_strtox@@YAJK@Z 000000018005f1ec f i libucrt:atox.obj
 0001:0005e1f4       ?minimum_signed_value@__crt_strtox@@YA_J_K@Z 000000018005f1f4 f i libucrt:atox.obj
 0001:0005e200       ?parse_digit@__crt_strtox@@YAID@Z 000000018005f200 f i libucrt:atox.obj
 0001:0005e230       ?parse_digit@__crt_strtox@@YAI_W@Z 000000018005f230 f i libucrt:atox.obj
 0001:0005e400       ?restore_state@?$c_string_character_source@D@__crt_strtox@@QEAA_NQEBD@Z 000000018005f400 f i libucrt:atox.obj
 0001:0005e408       ?restore_state@?$c_string_character_source@_W@__crt_strtox@@QEAA_NQEB_W@Z 000000018005f408 f i libucrt:atox.obj
 0001:0005e410       ?save_state@?$c_string_character_source@D@__crt_strtox@@QEBAPEBDXZ 000000018005f410 f i libucrt:atox.obj
 0001:0005e414       ?save_state@?$c_string_character_source@_W@__crt_strtox@@QEBAPEB_WXZ 000000018005f414 f i libucrt:atox.obj
 0001:0005e418       ?unget@?$c_string_character_source@D@__crt_strtox@@QEAAXD@Z 000000018005f418 f i libucrt:atox.obj
 0001:0005e444       ?unget@?$c_string_character_source@_W@__crt_strtox@@QEAAX_W@Z 000000018005f444 f i libucrt:atox.obj
 0001:0005e474       ?validate@?$c_string_character_source@D@__crt_strtox@@QEBA_NXZ 000000018005f474 f i libucrt:atox.obj
 0001:0005e49c       ?validate@?$c_string_character_source@_W@__crt_strtox@@QEBA_NXZ 000000018005f49c f i libucrt:atox.obj
 0001:0005e4c4       ?wide_character_to_digit@__crt_strtox@@YAH_W@Z 000000018005f4c4 f i libucrt:atox.obj
 0001:0005e664       __acrt_get_locale_data_prefix 000000018005f664 f i libucrt:atox.obj
 0001:0005e668       __ascii_iswalpha           000000018005f668 f i libucrt:atox.obj
 0001:0005e684       __ascii_toupper            000000018005f684 f i libucrt:atox.obj
 0001:0005e694       __ascii_towupper           000000018005f694 f i libucrt:atox.obj
 0001:0005e6a4       _atoi64                    000000018005f6a4 f   libucrt:atox.obj
 0001:0005e6d0       _atoi64_l                  000000018005f6d0 f   libucrt:atox.obj
 0001:0005e700       _atoi_l                    000000018005f700 f   libucrt:atox.obj
 0001:0005e730       _atol_l                    000000018005f730 f   libucrt:atox.obj
 0001:0005e760       _atoll_l                   000000018005f760 f   libucrt:atox.obj
 0001:0005e790       _chvalidchk_l              000000018005f790 f i libucrt:atox.obj
 0001:0005e7f4       _ischartype_l              000000018005f7f4 f i libucrt:atox.obj
 0001:0005e86c       _wtoi                      000000018005f86c f   libucrt:atox.obj
 0001:0005e898       _wtoi64                    000000018005f898 f   libucrt:atox.obj
 0001:0005e8c4       _wtoi64_l                  000000018005f8c4 f   libucrt:atox.obj
 0001:0005e8f4       _wtoi_l                    000000018005f8f4 f   libucrt:atox.obj
 0001:0005e924       _wtol                      000000018005f924 f   libucrt:atox.obj
 0001:0005e950       _wtol_l                    000000018005f950 f   libucrt:atox.obj
 0001:0005e980       _wtoll                     000000018005f980 f   libucrt:atox.obj
 0001:0005e9ac       _wtoll_l                   000000018005f9ac f   libucrt:atox.obj
 0001:0005e9dc       atoi                       000000018005f9dc f   libucrt:atox.obj
 0001:0005ea08       atol                       000000018005fa08 f   libucrt:atox.obj
 0001:0005ea34       atoll                      000000018005fa34 f   libucrt:atox.obj
 0001:0005ea70       strncmp                    000000018005fa70 f   libucrt:strncmp.obj
 0001:0005eaf0       calloc                     000000018005faf0 f   libucrt:calloc.obj
 0001:0005eaf8       wcsncmp                    000000018005faf8 f   libucrt:wcsncmp.obj
 0001:0005eb30       __remainder_piby2d2f_forAsm 000000018005fb30 f   libucrt:remainder_piby2f_forasm.obj
 0001:0005ec80       __remainder_piby2_fma3     000000018005fc80 f   libucrt:remainder_piby2_forfma3.obj
 0001:0005ee70       __remainder_piby2_fma3_bdl 000000018005fe70 f   libucrt:remainder_piby2_forfma3.obj
 0001:0005eee8       _cos_special               000000018005fee8 f   libucrt:sincos_special.obj
 0001:0005eefc       _cosf_special              000000018005fefc f   libucrt:sincos_special.obj
 0001:0005ef10       _sin_special               000000018005ff10 f   libucrt:sincos_special.obj
 0001:0005f054       _sinf_special              0000000180060054 f   libucrt:sincos_special.obj
 0001:0005f068       _tan_special               0000000180060068 f   libucrt:sincos_special.obj
 0001:0005f07c       _tanf_special              000000018006007c f   libucrt:sincos_special.obj
 0001:0005f090       _clrfp                     0000000180060090 f   libucrt:fpctrl.obj
 0001:0005f0b0       _ctrlfp                    00000001800600b0 f   libucrt:fpctrl.obj
 0001:0005f12c       _set_statfp                000000018006012c f   libucrt:fpctrl.obj
 0001:0005f14c       _statfp                    000000018006014c f   libucrt:fpctrl.obj
 0001:0005f160       __acrt_initialize_fma3     0000000180060160 f   libucrt:fma3_available.obj
 0001:0005f1d0       _get_FMA3_enable           00000001800601d0 f   libucrt:fma3_available.obj
 0001:0005f1d8       _set_FMA3_enable           00000001800601d8 f   libucrt:fma3_available.obj
 0001:0005f1f0       __remainder_piby2d2f_forC  00000001800601f0 f   libucrt:remainder_piby2f_forc.obj
 0001:0005f37c       nextafter                  000000018006037c f   libucrt:nextafter.obj
 0001:0005f384       nextafterf                 0000000180060384 f   libucrt:nextafterf.obj
 0001:0005f4b4       _handle_error              00000001800604b4 f   libucrt:libm_error.obj
 0001:0005f5dc       _handle_errorf             00000001800605dc f   libucrt:libm_error.obj
 0001:0005f710       _handle_nan                0000000180060710 f   libucrt:libm_error.obj
 0001:0005f72c       _handle_nanf               000000018006072c f   libucrt:libm_error.obj
 0001:0005f744       _free_base                 0000000180060744 f   libucrt:free_base.obj
 0001:0005f784       ??$?RU__acrt_ptd@@@__crt_internal_free_policy@@QEBAXQEBU__acrt_ptd@@@Z 0000000180060784 f i libucrt:per_thread_data.obj
 0001:0005f9b8       ??0?$__crt_unique_heap_ptr@U__acrt_ptd@@U__crt_internal_free_policy@@@@QEAA@QEAU__acrt_ptd@@@Z 00000001800609b8 f i libucrt:per_thread_data.obj
 0001:0005f9c0       ??0__crt_scoped_get_last_error_reset@@QEAA@XZ 00000001800609c0 f i libucrt:per_thread_data.obj
 0001:0005f9dc       ??1?$__crt_unique_heap_ptr@U__acrt_ptd@@U__crt_internal_free_policy@@@@QEAA@XZ 00000001800609dc f i libucrt:per_thread_data.obj
 0001:0005f9f8       ??1__crt_scoped_get_last_error_reset@@QEAA@XZ 00000001800609f8 f i libucrt:per_thread_data.obj
 0001:0005fa04       ??B?$__crt_unique_heap_ptr@U__acrt_ptd@@U__crt_internal_free_policy@@@@QEBA_NXZ 0000000180060a04 f i libucrt:per_thread_data.obj
 0001:0005fc58       ?dangerous_get_state_array@?$dual_state_global@PEAU__crt_locale_data@@@__crt_state_management@@QEAAPEAPEAU__crt_locale_data@@XZ 0000000180060c58 f i libucrt:per_thread_data.obj
 0001:0005fe6c       ?detach@?$__crt_unique_heap_ptr@U__acrt_ptd@@U__crt_internal_free_policy@@@@QEAAPEAU__acrt_ptd@@XZ 0000000180060e6c f i libucrt:per_thread_data.obj
 0001:0005fe74       ?get@?$__crt_unique_heap_ptr@U__acrt_ptd@@U__crt_internal_free_policy@@@@QEBAPEAU__acrt_ptd@@XZ 0000000180060e74 f i libucrt:per_thread_data.obj
 0001:0005fe78       ?get_current_state_index@__crt_state_management@@YA_KAEBV__crt_scoped_get_last_error_reset@@@Z 0000000180060e78 f i libucrt:per_thread_data.obj
 0001:0005ffe4       ?is_valid@?$__crt_unique_heap_ptr@U__acrt_ptd@@U__crt_internal_free_policy@@@@QEBA_NXZ 0000000180060fe4 f i libucrt:per_thread_data.obj
 0001:0005ffec       ?release@?$__crt_unique_heap_ptr@U__acrt_ptd@@U__crt_internal_free_policy@@@@QEAAXXZ 0000000180060fec f i libucrt:per_thread_data.obj
 0001:00060090       ?value@?$dual_state_global@PEAU__crt_locale_data@@@__crt_state_management@@QEAAAEAPEAU__crt_locale_data@@XZ 0000000180061090 f i libucrt:per_thread_data.obj
 0001:00060094       __acrt_freeptd             0000000180061094 f   libucrt:per_thread_data.obj
 0001:000600d8       __acrt_getptd              00000001800610d8 f   libucrt:per_thread_data.obj
 0001:000601ac       __acrt_getptd_head         00000001800611ac f   libucrt:per_thread_data.obj
 0001:00060254       __acrt_getptd_noexit       0000000180061254 f   libucrt:per_thread_data.obj
 0001:00060320       __acrt_initialize_ptd      0000000180061320 f   libucrt:per_thread_data.obj
 0001:0006035c       __acrt_uninitialize_ptd    000000018006135c f   libucrt:per_thread_data.obj
 0001:00060380       __threadhandle             0000000180061380 f   libucrt:per_thread_data.obj
 0001:00060388       __threadid                 0000000180061388 f   libucrt:per_thread_data.obj
 0001:00060390       __acrt_initialize_locks    0000000180061390 f   libucrt:locks.obj
 0001:000603d8       __acrt_lock                00000001800613d8 f   libucrt:locks.obj
 0001:000603f4       __acrt_uninitialize_locks  00000001800613f4 f   libucrt:locks.obj
 0001:0006042c       __acrt_unlock              000000018006142c f   libucrt:locks.obj
 0001:00060448       _lock_locales              0000000180061448 f   libucrt:locks.obj
 0001:00060464       _unlock_locales            0000000180061464 f   libucrt:locks.obj
 0001:0006061c       __acrt_get_begin_thread_init_policy 000000018006161c f   libucrt:win_policies.obj
 0001:00060670       __acrt_get_developer_information_policy 0000000180061670 f   libucrt:win_policies.obj
 0001:000606c4       __acrt_get_process_end_policy 00000001800616c4 f   libucrt:win_policies.obj
 0001:00060700       __acrt_get_windowing_model_policy 0000000180061700 f   libucrt:win_policies.obj
 0001:0006076c       ??$__crt_fast_decode_pointer@P6AXPEB_W00I_K@Z@@YAP6AXPEB_W00I_K@ZQ6AX000I1@Z@Z 000000018006176c f i libucrt:invalid_parameter.obj
 0001:00060784       ??$__crt_fast_encode_pointer@P6AXPEB_W00I_K@Z@@YAP6AXPEB_W00I_K@ZQ6AX000I1@Z@Z 0000000180061784 f i libucrt:invalid_parameter.obj
 0001:000607a4       ??$initialize_from_array@$$BY00Q6AXPEB_W00I_K@Z@?$dual_state_global@P6AXPEB_W00I_K@Z@__crt_state_management@@QEAAXAEAY00Q6AXPEB_W00I_K@Z@Z 00000001800617a4 f i libucrt:invalid_parameter.obj
 0001:0006081c       ?dangerous_get_state_array@?$dual_state_global@P6AXPEB_W00I_K@Z@__crt_state_management@@QEAAPEAP6AXPEB_W00I_K@ZXZ 000000018006181c f i libucrt:invalid_parameter.obj
 0001:00060820       ?value@?$dual_state_global@P6AXPEB_W00I_K@Z@__crt_state_management@@QEAAAEAP6AXPEB_W00I_K@ZXZ 0000000180061820 f i libucrt:invalid_parameter.obj
 0001:00060824       __acrt_call_reportfault    0000000180061824 f   libucrt:invalid_parameter.obj
 0001:00060980       __acrt_initialize_invalid_parameter_handler 0000000180061980 f   libucrt:invalid_parameter.obj
 0001:00060988       _get_invalid_parameter_handler 0000000180061988 f   libucrt:invalid_parameter.obj
 0001:000609a0       _get_thread_local_invalid_parameter_handler 00000001800619a0 f   libucrt:invalid_parameter.obj
 0001:000609bc       _invalid_parameter         00000001800619bc f   libucrt:invalid_parameter.obj
 0001:00060a6c       _invalid_parameter_noinfo  0000000180061a6c f   libucrt:invalid_parameter.obj
 0001:00060a8c       _invalid_parameter_noinfo_noreturn 0000000180061a8c f   libucrt:invalid_parameter.obj
 0001:00060abc       _invoke_watson             0000000180061abc f   libucrt:invalid_parameter.obj
 0001:00060b04       _set_invalid_parameter_handler 0000000180061b04 f   libucrt:invalid_parameter.obj
 0001:00060b38       _set_thread_local_invalid_parameter_handler 0000000180061b38 f   libucrt:invalid_parameter.obj
 0001:00060b60       __acrt_errno_from_os_error 0000000180061b60 f   libucrt:errno.obj
 0001:00060ba8       __acrt_errno_map_os_error  0000000180061ba8 f   libucrt:errno.obj
 0001:00060bf8       __doserrno                 0000000180061bf8 f   libucrt:errno.obj
 0001:00060c18       _errno                     0000000180061c18 f   libucrt:errno.obj
 0001:00060c38       _get_doserrno              0000000180061c38 f   libucrt:errno.obj
 0001:00060c74       _get_errno                 0000000180061c74 f   libucrt:errno.obj
 0001:00060cb0       _set_doserrno              0000000180061cb0 f   libucrt:errno.obj
 0001:00060cec       _set_errno                 0000000180061cec f   libucrt:errno.obj
 0001:00060d28       _calloc_base               0000000180061d28 f   libucrt:calloc_base.obj
 0001:000610d0       ??$__acrt_mbs_to_wcs_cp@U__crt_win32_buffer_internal_dynamic_resizing@@@@YAHQEBDAEAV?$__crt_win32_buffer@_WU__crt_win32_buffer_internal_dynamic_resizing@@@@I@Z 00000001800620d0 f i libucrt:argv_wildcards.obj
 0001:00061248       ??$__acrt_wcs_to_mbs_cp@U__crt_win32_buffer_internal_dynamic_resizing@@@@YAHQEB_WAEAV?$__crt_win32_buffer@DU__crt_win32_buffer_internal_dynamic_resizing@@@@I@Z 0000000180062248 f i libucrt:argv_wildcards.obj
 0001:0006216c       ??$tcslen@AEBQEBD@?$__crt_char_traits@D@@SA_KAEBQEBD@Z 000000018006316c f i libucrt:argv_wildcards.obj
 0001:00062180       ??$tcslen@AEBQEB_W@?$__crt_char_traits@_W@@SA_KAEBQEB_W@Z 0000000180063180 f i libucrt:argv_wildcards.obj
 0001:00062194       ??$tcsncpy_s@AEAPEAD_KAEAPEADAEB_K@?$__crt_char_traits@D@@SAHAEAPEAD$$QEA_K0AEB_K@Z 0000000180063194 f i libucrt:argv_wildcards.obj
 0001:000621a8       ??$tcsncpy_s@AEAPEA_W_KAEAPEA_WAEB_K@?$__crt_char_traits@_W@@SAHAEAPEA_W$$QEA_K0AEB_K@Z 00000001800631a8 f i libucrt:argv_wildcards.obj
 0001:000621bc       ??$tcsncpy_s@PEADAEB_KAEBQEBDAEB_K@?$__crt_char_traits@D@@SAH$$QEAPEADAEB_KAEBQEBD1@Z 00000001800631bc f i libucrt:argv_wildcards.obj
 0001:000621d0       ??$tcsncpy_s@PEAD_KAEBQEBDAEB_K@?$__crt_char_traits@D@@SAH$$QEAPEAD$$QEA_KAEBQEBDAEB_K@Z 00000001800631d0 f i libucrt:argv_wildcards.obj
 0001:000621e4       ??$tcsncpy_s@PEA_WAEB_KAEBQEB_WAEB_K@?$__crt_char_traits@_W@@SAH$$QEAPEA_WAEB_KAEBQEB_W1@Z 00000001800631e4 f i libucrt:argv_wildcards.obj
 0001:000621f8       ??$tcsncpy_s@PEA_W_KAEBQEB_WAEB_K@?$__crt_char_traits@_W@@SAH$$QEAPEA_W$$QEA_KAEBQEB_WAEB_K@Z 00000001800631f8 f i libucrt:argv_wildcards.obj
 0001:0006220c       ??$tcspbrk@AEAPEADAEAY02$$CBD@?$__crt_char_traits@D@@SAPEADAEAPEADAEAY02$$CBD@Z 000000018006320c f i libucrt:argv_wildcards.obj
 0001:00062214       ??$tcspbrk@AEAPEA_WAEAY02$$CB_W@?$__crt_char_traits@_W@@SAPEA_WAEAPEA_WAEAY02$$CB_W@Z 0000000180063214 f i libucrt:argv_wildcards.obj
 0001:0006221c       ??0?$__crt_unique_handle_t@U__crt_findfile_traits@@@@QEAA@QEAX@Z 000000018006321c f i libucrt:argv_wildcards.obj
 0001:00062224       ??0?$__crt_win32_buffer@DU__crt_win32_buffer_internal_dynamic_resizing@@@@QEAA@XZ 0000000180063224 f i libucrt:argv_wildcards.obj
 0001:00062240       ??0?$__crt_win32_buffer@_WU__crt_win32_buffer_internal_dynamic_resizing@@@@QEAA@XZ 0000000180063240 f i libucrt:argv_wildcards.obj
 0001:00062284       ??1?$__crt_unique_handle_t@U__crt_findfile_traits@@@@QEAA@XZ 0000000180063284 f i libucrt:argv_wildcards.obj
 0001:000622a8       ??1?$__crt_win32_buffer@DU__crt_win32_buffer_internal_dynamic_resizing@@@@QEAA@XZ 00000001800632a8 f i libucrt:argv_wildcards.obj
 0001:000622cc       ??1?$__crt_win32_buffer@_WU__crt_win32_buffer_internal_dynamic_resizing@@@@QEAA@XZ 00000001800632cc f i libucrt:argv_wildcards.obj
 0001:00062440       ?__acrt_get_utf8_acp_compatibility_codepage@@YAIXZ 0000000180063440 f i libucrt:argv_wildcards.obj
 0001:0006248c       ?_deallocate@?$__crt_win32_buffer@DU__crt_win32_buffer_internal_dynamic_resizing@@@@AEAAXXZ 000000018006348c f i libucrt:argv_wildcards.obj
 0001:000624b0       ?_deallocate@?$__crt_win32_buffer@_WU__crt_win32_buffer_internal_dynamic_resizing@@@@AEAAXXZ 00000001800634b0 f i libucrt:argv_wildcards.obj
 0001:000624d4       ?allocate@?$__crt_win32_buffer@DU__crt_win32_buffer_internal_dynamic_resizing@@@@QEAAH_K@Z 00000001800634d4 f i libucrt:argv_wildcards.obj
 0001:00062530       ?allocate@?$__crt_win32_buffer@_WU__crt_win32_buffer_internal_dynamic_resizing@@@@QEAAH_K@Z 0000000180063530 f i libucrt:argv_wildcards.obj
 0001:0006258c       ?allocate@__crt_win32_buffer_internal_dynamic_resizing@@SAHQEAPEAX_KAEBV__crt_win32_buffer_empty_debug_info@@@Z 000000018006358c f i libucrt:argv_wildcards.obj
 0001:00062778       ?capacity@?$__crt_win32_buffer@DU__crt_win32_buffer_internal_dynamic_resizing@@@@QEBA_KXZ 0000000180063778 f i libucrt:argv_wildcards.obj
 0001:00062780       ?capacity@?$__crt_win32_buffer@_WU__crt_win32_buffer_internal_dynamic_resizing@@@@QEBA_KXZ 0000000180063780 f i libucrt:argv_wildcards.obj
 0001:00062788       ?close@?$__crt_unique_handle_t@U__crt_findfile_traits@@@@QEAAXXZ 0000000180063788 f i libucrt:argv_wildcards.obj
 0001:000627ac       ?close@__crt_findfile_traits@@SA_NPEAX@Z 00000001800637ac f i libucrt:argv_wildcards.obj
 0001:000627c0       ?data@?$__crt_win32_buffer@DU__crt_win32_buffer_internal_dynamic_resizing@@@@QEAAPEADXZ 00000001800637c0 f i libucrt:argv_wildcards.obj
 0001:000627c8       ?data@?$__crt_win32_buffer@_WU__crt_win32_buffer_internal_dynamic_resizing@@@@QEAAPEA_WXZ 00000001800637c8 f i libucrt:argv_wildcards.obj
 0001:000627d0       ?deallocate@__crt_win32_buffer_internal_dynamic_resizing@@SAXQEAXAEBV__crt_win32_buffer_empty_debug_info@@@Z 00000001800637d0 f i libucrt:argv_wildcards.obj
 0001:000627d8       ?debug_info@?$__crt_win32_buffer@DU__crt_win32_buffer_internal_dynamic_resizing@@@@QEBAAEBV__crt_win32_buffer_empty_debug_info@@XZ 00000001800637d8 f i libucrt:argv_wildcards.obj
 0001:000627dc       ?debug_info@?$__crt_win32_buffer@_WU__crt_win32_buffer_internal_dynamic_resizing@@@@QEBAAEBV__crt_win32_buffer_empty_debug_info@@XZ 00000001800637dc f i libucrt:argv_wildcards.obj
 0001:00062980       ?get@?$__crt_unique_handle_t@U__crt_findfile_traits@@@@QEBAPEAXXZ 0000000180063980 f i libucrt:argv_wildcards.obj
 0001:00062a28       ?get_invalid_value@__crt_findfile_traits@@SAPEAXXZ 0000000180063a28 f i libucrt:argv_wildcards.obj
 0001:00062ae4       ?set_to_nullptr@?$__crt_win32_buffer@DU__crt_win32_buffer_internal_dynamic_resizing@@@@QEAAXXZ 0000000180063ae4 f i libucrt:argv_wildcards.obj
 0001:00062b18       ?set_to_nullptr@?$__crt_win32_buffer@_WU__crt_win32_buffer_internal_dynamic_resizing@@@@QEAAXXZ 0000000180063b18 f i libucrt:argv_wildcards.obj
 0001:00062b4c       ?size@?$__crt_win32_buffer@DU__crt_win32_buffer_internal_dynamic_resizing@@@@QEAAX_K@Z 0000000180063b4c f i libucrt:argv_wildcards.obj
 0001:00062b54       ?size@?$__crt_win32_buffer@_WU__crt_win32_buffer_internal_dynamic_resizing@@@@QEAAX_K@Z 0000000180063b54 f i libucrt:argv_wildcards.obj
 0001:00062b74       ?strpbrk@@YAPEADQEADQEBD@Z 0000000180063b74 f i libucrt:argv_wildcards.obj
 0001:00062b7c       ?wcspbrk@@YAPEA_WPEA_WPEB_W@Z 0000000180063b7c f i libucrt:argv_wildcards.obj
 0001:00062b84       __acrt_expand_narrow_argv_wildcards 0000000180063b84 f   libucrt:argv_wildcards.obj
 0001:00062b8c       __acrt_expand_wide_argv_wildcards 0000000180063b8c f   libucrt:argv_wildcards.obj
 0001:00062cb0       ??$__acrt_wcs_to_mbs_cp@U__crt_win32_buffer_no_resizing@@@@YAHQEB_WAEAV?$__crt_win32_buffer@DU__crt_win32_buffer_no_resizing@@@@I@Z 0000000180063cb0 f i libucrt:getmodulefilenamea.obj
 0001:00062dc4       ??0?$__crt_win32_buffer@DU__crt_win32_buffer_no_resizing@@@@QEAA@QEAD_K@Z 0000000180063dc4 f i libucrt:getmodulefilenamea.obj
 0001:00062de0       ??1?$__crt_win32_buffer@DU__crt_win32_buffer_no_resizing@@@@QEAA@XZ 0000000180063de0 f i libucrt:getmodulefilenamea.obj
 0001:00062e1c       ?_deallocate@?$__crt_win32_buffer@DU__crt_win32_buffer_no_resizing@@@@AEAAXXZ 0000000180063e1c f i libucrt:getmodulefilenamea.obj
 0001:00062e28       ?allocate@?$__crt_win32_buffer@DU__crt_win32_buffer_no_resizing@@@@QEAAH_K@Z 0000000180063e28 f i libucrt:getmodulefilenamea.obj
 0001:00062e58       ?allocate@__crt_win32_buffer_no_resizing@@SAHQEAPEAX_KAEBV__crt_win32_buffer_empty_debug_info@@@Z 0000000180063e58 f i libucrt:getmodulefilenamea.obj
 0001:00062e70       ?capacity@?$__crt_win32_buffer@DU__crt_win32_buffer_no_resizing@@@@QEBA_KXZ 0000000180063e70 f i libucrt:getmodulefilenamea.obj
 0001:00062e78       ?data@?$__crt_win32_buffer@DU__crt_win32_buffer_no_resizing@@@@QEAAPEADXZ 0000000180063e78 f i libucrt:getmodulefilenamea.obj
 0001:00062e80       ?deallocate@__crt_win32_buffer_no_resizing@@SAXQEAXAEBV__crt_win32_buffer_empty_debug_info@@@Z 0000000180063e80 f i libucrt:getmodulefilenamea.obj
 0001:00062e84       ?debug_info@?$__crt_win32_buffer@DU__crt_win32_buffer_no_resizing@@@@QEBAAEBV__crt_win32_buffer_empty_debug_info@@XZ 0000000180063e84 f i libucrt:getmodulefilenamea.obj
 0001:00062e88       ?set_to_nullptr@?$__crt_win32_buffer@DU__crt_win32_buffer_no_resizing@@@@QEAAXXZ 0000000180063e88 f i libucrt:getmodulefilenamea.obj
 0001:00062ea0       ?size@?$__crt_win32_buffer@DU__crt_win32_buffer_no_resizing@@@@QEAAX_K@Z 0000000180063ea0 f i libucrt:getmodulefilenamea.obj
 0001:00062ea8       ?size@?$__crt_win32_buffer@DU__crt_win32_buffer_no_resizing@@@@QEBA_KXZ 0000000180063ea8 f i libucrt:getmodulefilenamea.obj
 0001:00062eb0       __acrt_GetModuleFileNameA  0000000180063eb0 f   libucrt:getmodulefilenamea.obj
 0001:00062fd0       ??$?RU__crt_multibyte_data@@@__crt_internal_free_policy@@QEBAXQEBU__crt_multibyte_data@@@Z 0000000180063fd0 f i libucrt:mbctype.obj
 0001:000631bc       ??$initialize_from_array@$$BY10BAA@E@?$dual_state_global@PEAE@__crt_state_management@@QEAAXAEAY10BAA@E@Z 00000001800641bc f i libucrt:mbctype.obj
 0001:000631c0       ??$initialize_from_array@$$BY10BAB@E@?$dual_state_global@PEAE@__crt_state_management@@QEAAXAEAY10BAB@E@Z 00000001800641c0 f i libucrt:mbctype.obj
 0001:000631e0       ??0?$__crt_unique_heap_ptr@U__crt_multibyte_data@@U__crt_internal_free_policy@@@@QEAA@QEAU__crt_multibyte_data@@@Z 00000001800641e0 f i libucrt:mbctype.obj
 0001:000631e8       ??1?$__crt_unique_heap_ptr@U__crt_multibyte_data@@U__crt_internal_free_policy@@@@QEAA@XZ 00000001800641e8 f i libucrt:mbctype.obj
 0001:00063204       ??B?$__crt_unique_heap_ptr@U__crt_multibyte_data@@U__crt_internal_free_policy@@@@QEBA_NXZ 0000000180064204 f i libucrt:mbctype.obj
 0001:000633f8       ?dangerous_get_state_array@?$dual_state_global@PEAE@__crt_state_management@@QEAAPEAPEAEXZ 00000001800643f8 f i libucrt:mbctype.obj
 0001:000633fc       ?dangerous_get_state_array@?$dual_state_global@PEAU__crt_multibyte_data@@@__crt_state_management@@QEAAPEAPEAU__crt_multibyte_data@@XZ 00000001800643fc f i libucrt:mbctype.obj
 0001:00063400       ?detach@?$__crt_unique_heap_ptr@U__crt_multibyte_data@@U__crt_internal_free_policy@@@@QEAAPEAU__crt_multibyte_data@@XZ 0000000180064400 f i libucrt:mbctype.obj
 0001:00063408       ?get@?$__crt_unique_heap_ptr@U__crt_multibyte_data@@U__crt_internal_free_policy@@@@QEBAPEAU__crt_multibyte_data@@XZ 0000000180064408 f i libucrt:mbctype.obj
 0001:0006348c       ?initialize@?$dual_state_global@PEAU__crt_multibyte_data@@@__crt_state_management@@QEAAXQEAU__crt_multibyte_data@@@Z 000000018006448c f i libucrt:mbctype.obj
 0001:000634b4       ?is_valid@?$__crt_unique_heap_ptr@U__crt_multibyte_data@@U__crt_internal_free_policy@@@@QEBA_NXZ 00000001800644b4 f i libucrt:mbctype.obj
 0001:000634bc       ?release@?$__crt_unique_heap_ptr@U__crt_multibyte_data@@U__crt_internal_free_policy@@@@QEAAXXZ 00000001800644bc f i libucrt:mbctype.obj
 0001:000639c4       ?value@?$dual_state_global@PEAE@__crt_state_management@@QEAAAEAPEAEXZ 00000001800649c4 f i libucrt:mbctype.obj
 0001:000639c8       ?value@?$dual_state_global@PEAU__crt_multibyte_data@@@__crt_state_management@@QEAAAEAPEAU__crt_multibyte_data@@XZ 00000001800649c8 f i libucrt:mbctype.obj
 0001:000639cc       __acrt_initialize_multibyte 00000001800649cc f   libucrt:mbctype.obj
 0001:00063a2c       __acrt_should_sync_with_global_locale 0000000180064a2c f i libucrt:mbctype.obj
 0001:00063a3c       __acrt_update_thread_multibyte_data 0000000180064a3c f   libucrt:mbctype.obj
 0001:00063a58       __p__mbcasemap             0000000180064a58 f   libucrt:mbctype.obj
 0001:00063a60       __p__mbctype               0000000180064a60 f   libucrt:mbctype.obj
 0001:00063a68       _getmbcp                   0000000180064a68 f   libucrt:mbctype.obj
 0001:00063aa4       _setmbcp                   0000000180064aa4 f   libucrt:mbctype.obj
 0001:00063acc       _setmbcp_nolock            0000000180064acc f   libucrt:mbctype.obj
 0001:00063e88       _ismbbalnum                0000000180064e88 f   libucrt:ismbbyte.obj
 0001:00063ea0       _ismbbalnum_l              0000000180064ea0 f   libucrt:ismbbyte.obj
 0001:00063ebc       _ismbbalpha                0000000180064ebc f   libucrt:ismbbyte.obj
 0001:00063ed4       _ismbbalpha_l              0000000180064ed4 f   libucrt:ismbbyte.obj
 0001:00063ef0       _ismbbblank                0000000180064ef0 f   libucrt:ismbbyte.obj
 0001:00063f0c       _ismbbblank_l              0000000180064f0c f   libucrt:ismbbyte.obj
 0001:00063f2c       _ismbbgraph                0000000180064f2c f   libucrt:ismbbyte.obj
 0001:00063f44       _ismbbgraph_l              0000000180064f44 f   libucrt:ismbbyte.obj
 0001:00063f60       _ismbbkalnum               0000000180064f60 f   libucrt:ismbbyte.obj
 0001:00063f74       _ismbbkalnum_l             0000000180064f74 f   libucrt:ismbbyte.obj
 0001:00063f8c       _ismbbkana                 0000000180064f8c f   libucrt:ismbbyte.obj
 0001:00063f94       _ismbbkana_l               0000000180064f94 f   libucrt:ismbbyte.obj
 0001:00063ffc       _ismbbkprint               0000000180064ffc f   libucrt:ismbbyte.obj
 0001:00064010       _ismbbkprint_l             0000000180065010 f   libucrt:ismbbyte.obj
 0001:00064028       _ismbbkpunct               0000000180065028 f   libucrt:ismbbyte.obj
 0001:0006403c       _ismbbkpunct_l             000000018006503c f   libucrt:ismbbyte.obj
 0001:00064054       _ismbblead                 0000000180065054 f   libucrt:ismbbyte.obj
 0001:00064068       _ismbblead_l               0000000180065068 f   libucrt:ismbbyte.obj
 0001:00064080       _ismbbprint                0000000180065080 f   libucrt:ismbbyte.obj
 0001:00064098       _ismbbprint_l              0000000180065098 f   libucrt:ismbbyte.obj
 0001:000640b4       _ismbbpunct                00000001800650b4 f   libucrt:ismbbyte.obj
 0001:000640c8       _ismbbpunct_l              00000001800650c8 f   libucrt:ismbbyte.obj
 0001:000640e0       _ismbbtrail                00000001800650e0 f   libucrt:ismbbyte.obj
 0001:000640f4       _ismbbtrail_l              00000001800650f4 f   libucrt:ismbbyte.obj
 0001:0006410c       __acrt_initialize_command_line 000000018006510c f   libucrt:argv_data.obj
 0001:00064134       __acrt_uninitialize_command_line 0000000180065134 f   libucrt:argv_data.obj
 0001:00064138       __p___argc                 0000000180065138 f   libucrt:argv_data.obj
 0001:00064140       __p___argv                 0000000180065140 f   libucrt:argv_data.obj
 0001:00064148       __p___wargv                0000000180065148 f   libucrt:argv_data.obj
 0001:00064150       __p__acmdln                0000000180065150 f   libucrt:argv_data.obj
 0001:00064158       __p__pgmptr                0000000180065158 f   libucrt:argv_data.obj
 0001:00064160       __p__wcmdln                0000000180065160 f   libucrt:argv_data.obj
 0001:00064168       __p__wpgmptr               0000000180065168 f   libucrt:argv_data.obj
 0001:00064170       _get_pgmptr                0000000180065170 f   libucrt:argv_data.obj
 0001:000641a8       _get_wpgmptr               00000001800651a8 f   libucrt:argv_data.obj
 0001:0006424c       wcscpy_s                   000000018006524c f   libucrt:wcscpy_s.obj
 0001:0006430c       __acrt_MultiByteToWideChar 000000018006530c f   libucrt:multibytetowidechar.obj
 0001:000643ac       __acrt_WideCharToMultiByte 00000001800653ac f   libucrt:widechartomultibyte.obj
 0001:000644fc       __dcrt_get_narrow_environment_from_os 00000001800654fc f   libucrt:get_environment_from_os.obj
 0001:00064600       __dcrt_get_wide_environment_from_os 0000000180065600 f   libucrt:get_environment_from_os.obj
 0001:00065024       ??$get_or_create_environment_nolock@$$V@?$__crt_char_traits@D@@SAPEAPEADXZ 0000000180066024 f i libucrt:setenv.obj
 0001:0006502c       ??$get_or_create_environment_nolock@$$V@?$__crt_char_traits@_W@@SAPEAPEA_WXZ 000000018006602c f i libucrt:setenv.obj
 0001:00065034       ??$set_environment_variable@AEBQEADQEAD@?$__crt_char_traits@D@@SAHAEBQEAD$$QEBQEAD@Z 0000000180066034 f i libucrt:setenv.obj
 0001:00065040       ??$set_environment_variable@AEBQEA_WQEA_W@?$__crt_char_traits@_W@@SAHAEBQEA_W$$QEBQEA_W@Z 0000000180066040 f i libucrt:setenv.obj
 0001:00065050       ??$tcschr@AEBQEADD@?$__crt_char_traits@D@@SAPEADAEBQEAD$$QEAD@Z 0000000180066050 f i libucrt:setenv.obj
 0001:0006505c       ??$tcschr@AEBQEA_WD@?$__crt_char_traits@_W@@SAPEA_WAEBQEA_W$$QEAD@Z 000000018006605c f i libucrt:setenv.obj
 0001:00065068       ??$tcscpy_s@AEAPEADAEB_KAEAPEAD@?$__crt_char_traits@D@@SAHAEAPEADAEB_K0@Z 0000000180066068 f i libucrt:setenv.obj
 0001:00065078       ??$tcscpy_s@AEAPEA_WAEB_KAEAPEA_W@?$__crt_char_traits@_W@@SAHAEAPEA_WAEB_K0@Z 0000000180066078 f i libucrt:setenv.obj
 0001:00065088       ??$tcscpy_s@AEBQEADAEB_KAEBQEAD@?$__crt_char_traits@D@@SAHAEBQEADAEB_K0@Z 0000000180066088 f i libucrt:setenv.obj
 0001:00065098       ??$tcscpy_s@AEBQEA_WAEB_KAEBQEA_W@?$__crt_char_traits@_W@@SAHAEBQEA_WAEB_K0@Z 0000000180066098 f i libucrt:setenv.obj
 0001:000650a8       ??$tcslen@AEBQEAD@?$__crt_char_traits@D@@SA_KAEBQEAD@Z 00000001800660a8 f i libucrt:setenv.obj
 0001:000650bc       ??$tcslen@AEBQEA_W@?$__crt_char_traits@_W@@SA_KAEBQEA_W@Z 00000001800660bc f i libucrt:setenv.obj
 0001:000650d0       ??$tcsnicoll@AEBQEBDAEAPEADAEB_K@?$__crt_char_traits@D@@SAHAEBQEBDAEAPEADAEB_K@Z 00000001800660d0 f i libucrt:setenv.obj
 0001:000650e0       ??$tcsnicoll@AEBQEB_WAEAPEA_WAEB_K@?$__crt_char_traits@_W@@SAHAEBQEB_WAEAPEA_WAEB_K@Z 00000001800660e0 f i libucrt:setenv.obj
 0001:00065120       ?strchr@@YAPEADQEADH@Z     0000000180066120 f i libucrt:setenv.obj
 0001:00065128       ?wcschr@@YAPEA_WPEA_W_W@Z  0000000180066128 f i libucrt:setenv.obj
 0001:00065130       __dcrt_set_variable_in_narrow_environment_nolock 0000000180066130 f   libucrt:setenv.obj
 0001:00065138       __dcrt_set_variable_in_wide_environment_nolock 0000000180066138 f   libucrt:setenv.obj
 0001:00065140       _recalloc                  0000000180066140 f   libucrt:recalloc.obj
 0001:00065148       _recalloc_base             0000000180066148 f   libucrt:recalloc.obj
 0001:00065208       ??$?B$$A6AHPEA_WK_J@Z@__crt_fast_encoded_nullptr_t@@QEBAP6AHPEA_WK_J@ZXZ 0000000180066208 f i libucrt:winapi_thunks.obj
 0001:000652b4       ??$__crt_fast_decode_pointer@P6AHPEA_WK_J@Z@@YAP6AHPEA_WK_J@ZQ6AH0K1@Z@Z 00000001800662b4 f i libucrt:winapi_thunks.obj
 0001:000652cc       ??$__crt_fast_decode_pointer@PEAX@@YAPEAXQEAX@Z 00000001800662cc f i libucrt:winapi_thunks.obj
 0001:000652e4       ??$__crt_fast_encode_pointer@P6AHPEA_WK_J@Z@@YAP6AHPEA_WK_J@ZQ6AH0K1@Z@Z 00000001800662e4 f i libucrt:winapi_thunks.obj
 0001:00065de4       GetCurrentThreadEffectiveToken 0000000180066de4 f i libucrt:winapi_thunks.obj
 0001:00065dec       __acrt_AppPolicyGetProcessTerminationMethodInternal 0000000180066dec f   libucrt:winapi_thunks.obj
 0001:00065e3c       __acrt_AppPolicyGetShowDeveloperDiagnosticInternal 0000000180066e3c f   libucrt:winapi_thunks.obj
 0001:00065e8c       __acrt_AppPolicyGetThreadInitializationTypeInternal 0000000180066e8c f   libucrt:winapi_thunks.obj
 0001:00065edc       __acrt_AppPolicyGetWindowingModelInternal 0000000180066edc f   libucrt:winapi_thunks.obj
 0001:00065f2c       __acrt_AreFileApisANSI     0000000180066f2c f   libucrt:winapi_thunks.obj
 0001:00065f68       __acrt_CompareStringEx     0000000180066f68 f   libucrt:winapi_thunks.obj
 0001:00066044       __acrt_EnumSystemLocalesEx 0000000180067044 f   libucrt:winapi_thunks.obj
 0001:000660dc       __acrt_FlsAlloc            00000001800670dc f   libucrt:winapi_thunks.obj
 0001:00066124       __acrt_FlsFree             0000000180067124 f   libucrt:winapi_thunks.obj
 0001:0006616c       __acrt_FlsGetValue         000000018006716c f   libucrt:winapi_thunks.obj
 0001:000661b4       __acrt_FlsSetValue         00000001800671b4 f   libucrt:winapi_thunks.obj
 0001:00066208       __acrt_GetDateFormatEx     0000000180067208 f   libucrt:winapi_thunks.obj
 0001:000662c0       __acrt_GetEnabledXStateFeatures 00000001800672c0 f   libucrt:winapi_thunks.obj
 0001:000662fc       __acrt_GetLocaleInfoEx     00000001800672fc f   libucrt:winapi_thunks.obj
 0001:00066380       __acrt_GetSystemTimePreciseAsFileTime 0000000180067380 f   libucrt:winapi_thunks.obj
 0001:000663c8       __acrt_GetTimeFormatEx     00000001800673c8 f   libucrt:winapi_thunks.obj
 0001:00066474       __acrt_GetUserDefaultLocaleName 0000000180067474 f   libucrt:winapi_thunks.obj
 0001:000664d8       __acrt_GetXStateFeaturesMask 00000001800674d8 f   libucrt:winapi_thunks.obj
 0001:0006652c       __acrt_InitializeCriticalSectionEx 000000018006752c f   libucrt:winapi_thunks.obj
 0001:00066590       __acrt_IsValidLocaleName   0000000180067590 f   libucrt:winapi_thunks.obj
 0001:000665e8       __acrt_LCIDToLocaleName    00000001800675e8 f   libucrt:winapi_thunks.obj
 0001:00066658       __acrt_LCMapStringEx       0000000180067658 f   libucrt:winapi_thunks.obj
 0001:00066734       __acrt_LocaleNameToLCID    0000000180067734 f   libucrt:winapi_thunks.obj
 0001:00066784       __acrt_LocateXStateFeature 0000000180067784 f   libucrt:winapi_thunks.obj
 0001:000667e4       __acrt_MessageBoxA         00000001800677e4 f   libucrt:winapi_thunks.obj
 0001:00066858       __acrt_MessageBoxW         0000000180067858 f   libucrt:winapi_thunks.obj
 0001:000668cc       __acrt_RoInitialize        00000001800678cc f   libucrt:winapi_thunks.obj
 0001:0006690c       __acrt_RoUninitialize      000000018006790c f   libucrt:winapi_thunks.obj
 0001:00066940       __acrt_RtlGenRandom        0000000180067940 f   libucrt:winapi_thunks.obj
 0001:00066990       __acrt_SetThreadStackGuarantee 0000000180067990 f   libucrt:winapi_thunks.obj
 0001:000669d4       __acrt_can_show_message_box 00000001800679d4 f   libucrt:winapi_thunks.obj
 0001:00066a44       __acrt_can_use_vista_locale_apis 0000000180067a44 f   libucrt:winapi_thunks.obj
 0001:00066a74       __acrt_can_use_xstate_apis 0000000180067a74 f   libucrt:winapi_thunks.obj
 0001:00066aa4       __acrt_eagerly_load_locale_apis 0000000180067aa4 f   libucrt:winapi_thunks.obj
 0001:00066c00       __acrt_get_parent_window   0000000180067c00 f   libucrt:winapi_thunks.obj
 0001:00066c78       __acrt_initialize_winapi_thunks 0000000180067c78 f   libucrt:winapi_thunks.obj
 0001:00066cac       __acrt_is_interactive      0000000180067cac f   libucrt:winapi_thunks.obj
 0001:00066d74       __acrt_uninitialize_winapi_thunks 0000000180067d74 f   libucrt:winapi_thunks.obj
 0001:00066db8       __acrt_getheap             0000000180067db8 f   libucrt:heap_handle.obj
 0001:00066dc0       __acrt_initialize_heap     0000000180067dc0 f   libucrt:heap_handle.obj
 0001:00066ddc       __acrt_uninitialize_heap   0000000180067ddc f   libucrt:heap_handle.obj
 0001:00066de8       _get_heap_handle           0000000180067de8 f   libucrt:heap_handle.obj
 0001:00067008       __acrt_initialize_lowio    0000000180068008 f   libucrt:ioinit.obj
 0001:00067044       __acrt_uninitialize_lowio  0000000180068044 f   libucrt:ioinit.obj
 0001:00067084       __acrt_execute_initializers 0000000180068084 f   libucrt:shared_initialization.obj
 0001:00067104       __acrt_execute_uninitializers 0000000180068104 f   libucrt:shared_initialization.obj
 0001:00067140       ??$?B$$A6AH_K@Z@__crt_fast_encoded_nullptr_t@@QEBAP6AH_K@ZXZ 0000000180068140 f i libucrt:new_handler.obj
 0001:00067148       ??$__crt_fast_decode_pointer@P6AH_K@Z@@YAP6AH_K@ZQ6AH0@Z@Z 0000000180068148 f i libucrt:new_handler.obj
 0001:00067160       ??$__crt_fast_encode_pointer@P6AH_K@Z@@YAP6AH_K@ZQ6AH0@Z@Z 0000000180068160 f i libucrt:new_handler.obj
 0001:00067180       ?_set_new_handler@@YAP6AH_K@ZH@Z 0000000180068180 f   libucrt:new_handler.obj
 0001:0006718c       ?initialize@?$dual_state_global@P6AH_K@Z@__crt_state_management@@QEAAXQ6AH_K@Z@Z 000000018006818c f i libucrt:new_handler.obj
 0001:000671b4       ?value@?$dual_state_global@P6AH_K@Z@__crt_state_management@@QEAAAEAP6AH_K@ZXZ 00000001800681b4 f i libucrt:new_handler.obj
 0001:000671b8       __acrt_initialize_new_handler 00000001800681b8 f   libucrt:new_handler.obj
 0001:000671c0       _callnewh                  00000001800681c0 f   libucrt:new_handler.obj
 0001:000671f0       _query_new_handler         00000001800681f0 f   libucrt:new_handler.obj
 0001:00067224       _set_new_handler           0000000180068224 f   libucrt:new_handler.obj
 0001:00067280       ??$?B$$A6AXH@Z@__crt_fast_encoded_nullptr_t@@QEBAP6AXH@ZXZ 0000000180068280 f i libucrt:signal.obj
 0001:000672f8       ??$__crt_fast_decode_pointer@P6AXH@Z@@YAP6AXH@ZQ6AXH@Z@Z 00000001800682f8 f i libucrt:signal.obj
 0001:00067310       ??$__crt_fast_encode_pointer@P6AXH@Z@@YAP6AXH@ZQ6AXH@Z@Z 0000000180068310 f i libucrt:signal.obj
 0001:00067438       ?initialize@?$dual_state_global@P6AXH@Z@__crt_state_management@@QEAAXQ6AXH@Z@Z 0000000180068438 f i libucrt:signal.obj
 0001:000674d4       ?value@?$dual_state_global@P6AXH@Z@__crt_state_management@@QEAAAEAP6AXH@ZXZ 00000001800684d4 f i libucrt:signal.obj
 0001:000674d8       __acrt_get_sigabrt_handler 00000001800684d8 f   libucrt:signal.obj
 0001:00067508       __acrt_initialize_signal_handlers 0000000180068508 f   libucrt:signal.obj
 0001:00067528       __fpecode                  0000000180068528 f   libucrt:signal.obj
 0001:0006753c       __pxcptinfoptrs            000000018006853c f   libucrt:signal.obj
 0001:00067550       raise                      0000000180068550 f   libucrt:signal.obj
 0001:000677bc       signal                     00000001800687bc f   libucrt:signal.obj
 0001:00067998       ??$__crt_fast_decode_pointer@P6AHPEAU_exception@@@Z@@YAP6AHPEAU_exception@@@ZQ6AH0@Z@Z 0000000180068998 f i libucrt:matherr.obj
 0001:000679b0       ??$__crt_fast_encode_pointer@P6AHPEAU_exception@@@Z@@YAP6AHPEAU_exception@@@ZQ6AH0@Z@Z 00000001800689b0 f i libucrt:matherr.obj
 0001:000679d0       ?initialize@?$dual_state_global@P6AHPEAU_exception@@@Z@__crt_state_management@@QEAAXQ6AHPEAU_exception@@@Z@Z 00000001800689d0 f i libucrt:matherr.obj
 0001:000679f8       ?value@?$dual_state_global@P6AHPEAU_exception@@@Z@__crt_state_management@@QEAAAEAP6AHPEAU_exception@@@ZXZ 00000001800689f8 f i libucrt:matherr.obj
 0001:000679fc       __acrt_has_user_matherr    00000001800689fc f   libucrt:matherr.obj
 0001:00067a1c       __acrt_initialize_user_matherr 0000000180068a1c f   libucrt:matherr.obj
 0001:00067a24       __acrt_invoke_user_matherr 0000000180068a24 f   libucrt:matherr.obj
 0001:00067a54       __setusermatherr           0000000180068a54 f   libucrt:matherr.obj
 0001:00067d20       ??0__crt_stdio_stream@@QEAA@QEAU__crt_stdio_stream_data@@@Z 0000000180068d20 f i libucrt:fflush.obj
 0001:00067e8c       ?__acrt_stdio_reset_buffer@@YAXV__crt_stdio_stream@@@Z 0000000180068e8c f i libucrt:fflush.obj
 0001:00067f2c       ?has_all_of@__crt_stdio_stream@@QEBA_NJ@Z 0000000180068f2c f i libucrt:fflush.obj
 0001:00067f78       ?set_flags@__crt_stdio_stream@@QEBA_NJ@Z 0000000180068f78 f i libucrt:fflush.obj
 0001:00067f98       ?unset_flags@__crt_stdio_stream@@QEBA_NJ@Z 0000000180068f98 f i libucrt:fflush.obj
 0001:00067fc0       __acrt_stdio_flush_nolock  0000000180068fc0 f   libucrt:fflush.obj
 0001:0006803c       _fflush_nolock             000000018006903c f   libucrt:fflush.obj
 0001:00068088       _flushall                  0000000180069088 f   libucrt:fflush.obj
 0001:00068090       fflush                     0000000180069090 f   libucrt:fflush.obj
 0001:000680f8       __p___mb_cur_max           00000001800690f8 f   libucrt:nlsdata.obj
 0001:00068128       ??$?RPEAU__crt_stdio_stream_data@@@__crt_internal_free_policy@@QEBAXQEBQEAU__crt_stdio_stream_data@@@Z 0000000180069128 f i libucrt:_file.obj
 0001:00068130       ??0?$__crt_unique_heap_ptr@PEAU__crt_stdio_stream_data@@U__crt_internal_free_policy@@@@QEAA@QEAPEAU__crt_stdio_stream_data@@@Z 0000000180069130 f i libucrt:_file.obj
 0001:00068138       ??1?$__crt_unique_heap_ptr@PEAU__crt_stdio_stream_data@@U__crt_internal_free_policy@@@@QEAA@XZ 0000000180069138 f i libucrt:_file.obj
 0001:00068154       ?detach@?$__crt_unique_heap_ptr@PEAU__crt_stdio_stream_data@@U__crt_internal_free_policy@@@@QEAAPEAPEAU__crt_stdio_stream_data@@XZ 0000000180069154 f i libucrt:_file.obj
 0001:0006815c       ?release@?$__crt_unique_heap_ptr@PEAU__crt_stdio_stream_data@@U__crt_internal_free_policy@@@@QEAAXXZ 000000018006915c f i libucrt:_file.obj
 0001:00068178       __acrt_initialize_stdio    0000000180069178 f   libucrt:_file.obj
 0001:00068298       __acrt_iob_func            0000000180069298 f   libucrt:_file.obj
 0001:000682ac       __acrt_uninitialize_stdio  00000001800692ac f   libucrt:_file.obj
 0001:00068308       _get_stream_buffer_pointers 0000000180069308 f   libucrt:_file.obj
 0001:00068350       _lock_file                 0000000180069350 f   libucrt:_file.obj
 0001:0006835c       _unlock_file               000000018006935c f   libucrt:_file.obj
 0001:00068368       ?has_any_buffer@__crt_stdio_stream@@QEBA_NXZ 0000000180069368 f i libucrt:_sftbuf.obj
 0001:00068378       ?has_any_of@__crt_stdio_stream@@QEBA_NJ@Z 0000000180069378 f i libucrt:_sftbuf.obj
 0001:00068384       ?has_temporary_buffer@__crt_stdio_stream@@QEBA_NXZ 0000000180069384 f i libucrt:_sftbuf.obj
 0001:00068390       __acrt_should_use_temporary_buffer 0000000180069390 f   libucrt:_sftbuf.obj
 0001:000683d8       __acrt_stdio_begin_temporary_buffering_nolock 00000001800693d8 f   libucrt:_sftbuf.obj
 0001:000684a0       __acrt_stdio_end_temporary_buffering_nolock 00000001800694a0 f   libucrt:_sftbuf.obj
 0001:000684dc       _malloc_base               00000001800694dc f   libucrt:malloc_base.obj
 0001:0006853c       ??$make_c_string_character_source@DPEAPEAD@__crt_strtox@@YA?AV?$c_string_character_source@D@0@QEBDQEAPEAD@Z 000000018006953c f i libucrt:strtox.obj
 0001:00068550       ??$make_c_string_character_source@_WPEAPEA_W@__crt_strtox@@YA?AV?$c_string_character_source@_W@0@QEB_WQEAPEA_W@Z 0000000180069550 f i libucrt:strtox.obj
 0001:00068564       ??$parse_integer_from_string@JDPEAPEAD@__crt_strtox@@YAJQEBDQEAPEADHQEAU__crt_locale_pointers@@@Z 0000000180069564 f i libucrt:strtox.obj
 0001:00068594       ??$parse_integer_from_string@J_WPEAPEA_W@__crt_strtox@@YAJQEB_WQEAPEA_WHQEAU__crt_locale_pointers@@@Z 0000000180069594 f i libucrt:strtox.obj
 0001:000685c4       ??$parse_integer_from_string@KDPEAPEAD@__crt_strtox@@YAKQEBDQEAPEADHQEAU__crt_locale_pointers@@@Z 00000001800695c4 f i libucrt:strtox.obj
 0001:000685f4       ??$parse_integer_from_string@K_WPEAPEA_W@__crt_strtox@@YAKQEB_WQEAPEA_WHQEAU__crt_locale_pointers@@@Z 00000001800695f4 f i libucrt:strtox.obj
 0001:00068624       ??$parse_integer_from_string@_JDPEAPEAD@__crt_strtox@@YA_JQEBDQEAPEADHQEAU__crt_locale_pointers@@@Z 0000000180069624 f i libucrt:strtox.obj
 0001:00068654       ??$parse_integer_from_string@_J_WPEAPEA_W@__crt_strtox@@YA_JQEB_WQEAPEA_WHQEAU__crt_locale_pointers@@@Z 0000000180069654 f i libucrt:strtox.obj
 0001:00068684       ??$parse_integer_from_string@_KDPEAPEAD@__crt_strtox@@YA_KQEBDQEAPEADHQEAU__crt_locale_pointers@@@Z 0000000180069684 f i libucrt:strtox.obj
 0001:000686b4       ??$parse_integer_from_string@_K_WPEAPEA_W@__crt_strtox@@YA_KQEB_WQEAPEA_WHQEAU__crt_locale_pointers@@@Z 00000001800696b4 f i libucrt:strtox.obj
 0001:000686e4       _strtoi64                  00000001800696e4 f   libucrt:strtox.obj
 0001:00068710       _strtoi64_l                0000000180069710 f   libucrt:strtox.obj
 0001:00068740       _strtoimax_l               0000000180069740 f   libucrt:strtox.obj
 0001:00068770       _strtol_l                  0000000180069770 f   libucrt:strtox.obj
 0001:000687a0       _strtoll_l                 00000001800697a0 f   libucrt:strtox.obj
 0001:000687d0       _strtoui64                 00000001800697d0 f   libucrt:strtox.obj
 0001:000687fc       _strtoui64_l               00000001800697fc f   libucrt:strtox.obj
 0001:0006882c       _strtoul_l                 000000018006982c f   libucrt:strtox.obj
 0001:0006885c       _strtoull_l                000000018006985c f   libucrt:strtox.obj
 0001:0006888c       _strtoumax_l               000000018006988c f   libucrt:strtox.obj
 0001:000688bc       _wcstoi64                  00000001800698bc f   libucrt:strtox.obj
 0001:000688e8       _wcstoi64_l                00000001800698e8 f   libucrt:strtox.obj
 0001:00068918       _wcstoimax_l               0000000180069918 f   libucrt:strtox.obj
 0001:00068948       _wcstol_l                  0000000180069948 f   libucrt:strtox.obj
 0001:00068978       _wcstoll_l                 0000000180069978 f   libucrt:strtox.obj
 0001:000689a8       _wcstoui64                 00000001800699a8 f   libucrt:strtox.obj
 0001:000689d4       _wcstoui64_l               00000001800699d4 f   libucrt:strtox.obj
 0001:00068a04       _wcstoul_l                 0000000180069a04 f   libucrt:strtox.obj
 0001:00068a34       _wcstoull_l                0000000180069a34 f   libucrt:strtox.obj
 0001:00068a64       _wcstoumax_l               0000000180069a64 f   libucrt:strtox.obj
 0001:00068a94       strtoimax                  0000000180069a94 f   libucrt:strtox.obj
 0001:00068ac0       strtol                     0000000180069ac0 f   libucrt:strtox.obj
 0001:00068aec       strtoll                    0000000180069aec f   libucrt:strtox.obj
 0001:00068b18       strtoul                    0000000180069b18 f   libucrt:strtox.obj
 0001:00068b44       strtoull                   0000000180069b44 f   libucrt:strtox.obj
 0001:00068b70       strtoumax                  0000000180069b70 f   libucrt:strtox.obj
 0001:00068b9c       wcstoimax                  0000000180069b9c f   libucrt:strtox.obj
 0001:00068bc8       wcstol                     0000000180069bc8 f   libucrt:strtox.obj
 0001:00068bf4       wcstoll                    0000000180069bf4 f   libucrt:strtox.obj
 0001:00068c20       wcstoul                    0000000180069c20 f   libucrt:strtox.obj
 0001:00068c4c       wcstoull                   0000000180069c4c f   libucrt:strtox.obj
 0001:00068c78       wcstoumax                  0000000180069c78 f   libucrt:strtox.obj
 0001:00068ca4       _mbtowc_l                  0000000180069ca4 f   libucrt:mbtowc.obj
 0001:00068e24       mbtowc                     0000000180069e24 f   libucrt:mbtowc.obj
 0001:00068e2c       _wctomb_l                  0000000180069e2c f   libucrt:wctomb.obj
 0001:00068ea0       _wctomb_s_l                0000000180069ea0 f   libucrt:wctomb.obj
 0001:0006903c       wctomb                     000000018006a03c f   libucrt:wctomb.obj
 0001:0006908c       wctomb_s                   000000018006a08c f   libucrt:wctomb.obj
 0001:00069954       ??1?$__crt_simd_cleanup_guard@$00@@QEAA@XZ 000000018006a954 f i libucrt:strnlen.obj
 0001:00069958       ??1?$__crt_simd_cleanup_guard@$0A@@@QEAA@XZ 000000018006a958 f i libucrt:strnlen.obj
 0001:0006995c       ?compare_equals@?$__crt_simd_traits@$00E@@SA?AT__m256i@@T2@0@Z 000000018006a95c f i libucrt:strnlen.obj
 0001:00069968       ?compare_equals@?$__crt_simd_traits@$00G@@SA?AT__m256i@@T2@0@Z 000000018006a968 f i libucrt:strnlen.obj
 0001:00069974       ?compare_equals@?$__crt_simd_traits@$0A@E@@SA?AT__m128i@@T2@0@Z 000000018006a974 f i libucrt:strnlen.obj
 0001:00069980       ?compare_equals@?$__crt_simd_traits@$0A@G@@SA?AT__m128i@@T2@0@Z 000000018006a980 f i libucrt:strnlen.obj
 0001:0006998c       ?compute_byte_mask@?$__crt_simd_pack_traits@$00@@SAHT__m256i@@@Z 000000018006a98c f i libucrt:strnlen.obj
 0001:00069998       ?compute_byte_mask@?$__crt_simd_pack_traits@$0A@@@SAHT__m128i@@@Z 000000018006a998 f i libucrt:strnlen.obj
 0001:000699a4       ?get_zero_pack@?$__crt_simd_pack_traits@$00@@SA?AT__m256i@@XZ 000000018006a9a4 f i libucrt:strnlen.obj
 0001:000699ac       ?get_zero_pack@?$__crt_simd_pack_traits@$0A@@@SA?AT__m128i@@XZ 000000018006a9ac f i libucrt:strnlen.obj
 0001:000699b0       strnlen                    000000018006a9b0 f   libucrt:strnlen.obj
 0001:00069b00       wcslen                     000000018006ab00 f   libucrt:strnlen.obj
 0001:00069c2c       wcsnlen                    000000018006ac2c f   libucrt:strnlen.obj
 0001:00069e04       __acrt_update_locale_info  000000018006ae04 f   libucrt:locale_update.obj
 0001:00069e38       __acrt_update_multibyte_info 000000018006ae38 f   libucrt:locale_update.obj
 0001:00069e6c       ?__acrt_fp_classify@@YA?AW4__acrt_fp_class@@AEBN@Z 000000018006ae6c f i libucrt:cvt.obj
 0001:00069ec8       ?__acrt_fp_is_negative@@YA_NAEBN@Z 000000018006aec8 f i libucrt:cvt.obj
 0001:0006aae8       ?strrchr@@YAPEADQEADH@Z    000000018006bae8 f i libucrt:cvt.obj
 0001:0006aaf0       __acrt_fp_format           000000018006baf0 f   libucrt:cvt.obj
 0001:0006ae44       _fputwc_nolock             000000018006be44 f   libucrt:fputwc.obj
 0001:0006afc0       _fputwchar                 000000018006bfc0 f   libucrt:fputwc.obj
 0001:0006afe4       _putwc_nolock              000000018006bfe4 f   libucrt:fputwc.obj
 0001:0006afec       fputwc                     000000018006bfec f   libucrt:fputwc.obj
 0001:0006b04c       putwc                      000000018006c04c f   libucrt:fputwc.obj
 0001:0006b054       putwchar                   000000018006c054 f   libucrt:fputwc.obj
 0001:0006b05c       ?lowio_handle@__crt_stdio_stream@@QEBAHXZ 000000018006c05c f i libucrt:fileno.obj
 0001:0006b064       _fileno                    000000018006c064 f   libucrt:fileno.obj
 0001:0006b08c       _fputc_nolock              000000018006c08c f   libucrt:fputc.obj
 0001:0006b0a4       _fputchar                  000000018006c0a4 f   libucrt:fputc.obj
 0001:0006b0c8       _putc_nolock               000000018006c0c8 f   libucrt:fputc.obj
 0001:0006b0e0       fputc                      000000018006c0e0 f   libucrt:fputc.obj
 0001:0006b204       putc                       000000018006c204 f   libucrt:fputc.obj
 0001:0006b20c       putchar                    000000018006c20c f   libucrt:fputc.obj
 0001:0006b214       _get_printf_count_output   000000018006c214 f   libucrt:printf_count_output.obj
 0001:0006b22c       _set_printf_count_output   000000018006c22c f   libucrt:printf_count_output.obj
 0001:0006b258       ??$?RU__crt_locale_data@@@__crt_internal_free_policy@@QEBAXQEBU__crt_locale_data@@@Z 000000018006c258 f i libucrt:wsetlocale.obj
 0001:0006b260       ??$?RU__crt_locale_pointers@@@__crt_internal_free_policy@@QEBAXQEBU__crt_locale_pointers@@@Z 000000018006c260 f i libucrt:wsetlocale.obj
 0001:0006b66c       ??0?$__crt_unique_heap_ptr@U__crt_locale_data@@U__crt_internal_free_policy@@@@QEAA@QEAU__crt_locale_data@@@Z 000000018006c66c f i libucrt:wsetlocale.obj
 0001:0006b674       ??0?$__crt_unique_heap_ptr@U__crt_locale_pointers@@U__crt_internal_free_policy@@@@QEAA@QEAU__crt_locale_pointers@@@Z 000000018006c674 f i libucrt:wsetlocale.obj
 0001:0006b67c       ??0_expandlocale_locale_name_cache@@QEAA@QEA_W_KQEAU__crt_qualified_locale_data@@@Z 000000018006c67c f i libucrt:wsetlocale.obj
 0001:0006b6d8       ??1?$__crt_unique_heap_ptr@U__crt_locale_data@@U__crt_internal_free_policy@@@@QEAA@XZ 000000018006c6d8 f i libucrt:wsetlocale.obj
 0001:0006b6f4       ??1?$__crt_unique_heap_ptr@U__crt_locale_pointers@@U__crt_internal_free_policy@@@@QEAA@XZ 000000018006c6f4 f i libucrt:wsetlocale.obj
 0001:0006b710       ??1_expandlocale_locale_name_cache@@QEAA@XZ 000000018006c710 f i libucrt:wsetlocale.obj
 0001:0006b758       ??B?$__crt_unique_heap_ptr@U__crt_locale_data@@U__crt_internal_free_policy@@@@QEBA_NXZ 000000018006c758 f i libucrt:wsetlocale.obj
 0001:0006b760       ??B?$__crt_unique_heap_ptr@U__crt_locale_pointers@@U__crt_internal_free_policy@@@@QEBA_NXZ 000000018006c760 f i libucrt:wsetlocale.obj
 0001:0006b9e0       ?commit_locale_name@_expandlocale_locale_name_cache@@QEAAXQEB_W_K@Z 000000018006c9e0 f i libucrt:wsetlocale.obj
 0001:0006ba58       ?commit_locale_name_cache_already_updated@_expandlocale_locale_name_cache@@QEAAXQEB_W_K@Z 000000018006ca58 f i libucrt:wsetlocale.obj
 0001:0006ba98       ?detach@?$__crt_unique_heap_ptr@U__crt_locale_data@@U__crt_internal_free_policy@@@@QEAAPEAU__crt_locale_data@@XZ 000000018006ca98 f i libucrt:wsetlocale.obj
 0001:0006baa0       ?detach@?$__crt_unique_heap_ptr@U__crt_locale_pointers@@U__crt_internal_free_policy@@@@QEAAPEAU__crt_locale_pointers@@XZ 000000018006caa0 f i libucrt:wsetlocale.obj
 0001:0006baa8       ?get@?$__crt_unique_heap_ptr@U__crt_locale_data@@U__crt_internal_free_policy@@@@QEBAPEAU__crt_locale_data@@XZ 000000018006caa8 f i libucrt:wsetlocale.obj
 0001:0006baac       ?get@?$__crt_unique_heap_ptr@U__crt_locale_pointers@@U__crt_internal_free_policy@@@@QEBAPEAU__crt_locale_pointers@@XZ 000000018006caac f i libucrt:wsetlocale.obj
 0001:0006bab0       ?is_valid@?$__crt_unique_heap_ptr@U__crt_locale_data@@U__crt_internal_free_policy@@@@QEBA_NXZ 000000018006cab0 f i libucrt:wsetlocale.obj
 0001:0006bab8       ?is_valid@?$__crt_unique_heap_ptr@U__crt_locale_pointers@@U__crt_internal_free_policy@@@@QEBA_NXZ 000000018006cab8 f i libucrt:wsetlocale.obj
 0001:0006bac0       ?release@?$__crt_unique_heap_ptr@U__crt_locale_data@@U__crt_internal_free_policy@@@@QEAAXXZ 000000018006cac0 f i libucrt:wsetlocale.obj
 0001:0006badc       ?release@?$__crt_unique_heap_ptr@U__crt_locale_pointers@@U__crt_internal_free_policy@@@@QEAAXXZ 000000018006cadc f i libucrt:wsetlocale.obj
 0001:0006baf8       __acrt_copy_locale_name    000000018006caf8 f   libucrt:wsetlocale.obj
 0001:0006bb7c       __acrt_set_locale_changed  000000018006cb7c f   libucrt:wsetlocale.obj
 0001:0006bb88       __acrt_uninitialize_locale 000000018006cb88 f   libucrt:wsetlocale.obj
 0001:0006bbb8       __ascii_tolower            000000018006cbb8 f i libucrt:wsetlocale.obj
 0001:0006bbc8       __ascii_towlower           000000018006cbc8 f i libucrt:wsetlocale.obj
 0001:0006bbd8       __lc_lctowcs               000000018006cbd8 f   libucrt:wsetlocale.obj
 0001:0006bc7c       __lc_wcstolc               000000018006cc7c f   libucrt:wsetlocale.obj
 0001:0006bde4       _configthreadlocale        000000018006cde4 f   libucrt:wsetlocale.obj
 0001:0006bf10       _create_locale             000000018006cf10 f   libucrt:wsetlocale.obj
 0001:0006c408       _free_locale               000000018006d408 f   libucrt:wsetlocale.obj
 0001:0006c4ac       _get_current_locale        000000018006d4ac f   libucrt:wsetlocale.obj
 0001:0006c568       _wcreate_locale            000000018006d568 f   libucrt:wsetlocale.obj
 0001:0006c6b0       _wcscats                   000000018006d6b0 f   libucrt:wsetlocale.obj
 0001:0006c718       _wsetlocale                000000018006d718 f   libucrt:wsetlocale.obj
 0001:0006d558       __pctype_func              000000018006e558 f   libucrt:ctype.obj
 0001:0006d588       __pwctype_func             000000018006e588 f   libucrt:ctype.obj
 0001:0006d590       _iswctype_l                000000018006e590 f   libucrt:iswctype.obj
 0001:0006d598       iswctype                   000000018006e598 f   libucrt:iswctype.obj
 0001:0006d604       _isctype                   000000018006e604 f   libucrt:isctype.obj
 0001:0006d634       _isctype_l                 000000018006e634 f   libucrt:isctype.obj
 0001:0006d73c       _isleadbyte_fast_internal  000000018006e73c f i libucrt:isctype.obj
 0001:0006d770       _get_fpsr                  000000018006e770 f   libucrt:fpsr.obj
 0001:0006d780       _set_fpsr                  000000018006e780 f   libucrt:fpsr.obj
 0001:0006d78a       _fclrf                     000000018006e78a f   libucrt:fpsr.obj
 0001:0006d79e       _frnd                      000000018006e79e f   libucrt:fpsr.obj
 0001:0006d7c0       nexttoward                 000000018006e7c0 f   libucrt:nexttoward.obj
 0001:0006d928       nexttowardf                000000018006e928 f   libucrt:nexttowardf.obj
 0001:0006da64       _errcode                   000000018006ea64 f   libucrt:fpexcept.obj
 0001:0006daa8       _except1                   000000018006eaa8 f   libucrt:fpexcept.obj
 0001:0006db9c       _except2                   000000018006eb9c f   libucrt:fpexcept.obj
 0001:0006dcd8       _handle_exc                000000018006ecd8 f   libucrt:fpexcept.obj
 0001:0006df40       _handle_qnan2              000000018006ef40 f   libucrt:fpexcept.obj
 0001:0006df48       _raise_exc                 000000018006ef48 f   libucrt:fpexcept.obj
 0001:0006df70       _raise_exc_ex              000000018006ef70 f   libucrt:fpexcept.obj
 0001:0006e280       _raise_excf                000000018006f280 f   libucrt:fpexcept.obj
 0001:0006e2ac       _set_errno_from_matherr    000000018006f2ac f   libucrt:fpexcept.obj
 0001:0006e2dc       _umatherr                  000000018006f2dc f   libucrt:fpexcept.obj
 0001:0006e3b0       __acrt_add_locale_ref      000000018006f3b0 f   libucrt:locale_refcounting.obj
 0001:0006e43c       __acrt_free_locale         000000018006f43c f   libucrt:locale_refcounting.obj
 0001:0006e5b4       __acrt_locale_add_lc_time_reference 000000018006f5b4 f   libucrt:locale_refcounting.obj
 0001:0006e5dc       __acrt_locale_free_lc_time_if_unreferenced 000000018006f5dc f   libucrt:locale_refcounting.obj
 0001:0006e614       __acrt_locale_release_lc_time_reference 000000018006f614 f   libucrt:locale_refcounting.obj
 0001:0006e63c       __acrt_release_locale_ref  000000018006f63c f   libucrt:locale_refcounting.obj
 0001:0006e6e4       __acrt_update_thread_locale_data 000000018006f6e4 f   libucrt:locale_refcounting.obj
 0001:0006e754       _updatetlocinfoEx_nolock   000000018006f754 f   libucrt:locale_refcounting.obj
 0001:0006e7bc       ?value@?$dual_state_global@J@__crt_state_management@@QEAAAEAJXZ 000000018006f7bc f i libucrt:new_mode.obj
 0001:0006e7c0       _query_new_mode            000000018006f7c0 f   libucrt:new_mode.obj
 0001:0006e7c8       _set_new_mode              000000018006f7c8 f   libucrt:new_mode.obj
 0001:0006e8f0       qsort                      000000018006f8f0 f   libucrt:qsort.obj
 0001:0006ed6c       wcsncpy_s                  000000018006fd6c f   libucrt:wcsncpy_s.obj
 0001:0006ee50       wcspbrk                    000000018006fe50 f   libucrt:wcspbrk.obj
 0001:0006ef4c       strncpy_s                  000000018006ff4c f   libucrt:strncpy_s.obj
 0001:0006f0c0       strpbrk                    00000001800700c0 f   libucrt:strpbrk.obj
 0001:0006f488       _mbsdec                    0000000180070488 f   libucrt:mbsdec.obj
 0001:0006f490       _mbsdec_l                  0000000180070490 f   libucrt:mbsdec.obj
 0001:0006f524       ??0?$__crt_scoped_stack_ptr@_W@@QEAA@U?$__crt_scoped_stack_ptr_tag@_W@@@Z 0000000180070524 f i libucrt:getstringtypea.obj
 0001:0006f52c       ??0?$__crt_scoped_stack_ptr_tag@_W@@QEAA@QEA_W@Z 000000018007052c f i libucrt:getstringtypea.obj
 0001:0006f534       ??1?$__crt_scoped_stack_ptr@_W@@QEAA@XZ 0000000180070534 f i libucrt:getstringtypea.obj
 0001:0006f558       ?get@?$__crt_scoped_stack_ptr@_W@@QEBAPEA_WXZ 0000000180070558 f i libucrt:getstringtypea.obj
 0001:0006f55c       _MallocaComputeSize        000000018007055c f i libucrt:getstringtypea.obj
 0001:0006f56c       _MarkAllocaS               000000018007056c f i libucrt:getstringtypea.obj
 0001:0006f57c       __acrt_GetStringTypeA      000000018007057c f   libucrt:getstringtypea.obj
 0001:0006f70c       _freea_crt                 000000018007070c f i libucrt:getstringtypea.obj
 0001:0006f72c       ??B?$__crt_scoped_stack_ptr@_W@@QEBA_NXZ 000000018007072c f i libucrt:lcmapstringa.obj
 0001:0006fa4c       __acrt_LCMapStringA        0000000180070a4c f   libucrt:lcmapstringa.obj
 0001:0006fafc       _wcsnicoll                 0000000180070afc f   libucrt:wcsnicol.obj
 0001:0006fb4c       _wcsnicoll_l               0000000180070b4c f   libucrt:wcsnicol.obj
 0001:0006fc3c       _strnicoll                 0000000180070c3c f   libucrt:strnicol.obj
 0001:0006fc54       _strnicoll_l               0000000180070c54 f   libucrt:strnicol.obj
 0001:0006fef8       __acrt_SetEnvironmentVariableA 0000000180070ef8 f   libucrt:setenvironmentvariablea.obj
 0001:00070090       _msize                     0000000180071090 f   libucrt:msize.obj
 0001:00070098       _msize_base                0000000180071098 f   libucrt:msize.obj
 0001:000700d4       _realloc_base              00000001800710d4 f   libucrt:realloc_base.obj
 0001:00070224       __acrt_DownlevelLCIDToLocaleName 0000000180071224 f   libucrt:lcidtoname_downlevel.obj
 0001:00070318       __acrt_DownlevelLocaleNameToLCID 0000000180071318 f   libucrt:lcidtoname_downlevel.obj
 0001:000703c8       ??$?RU__crt_lowio_handle_data@@@__crt_internal_free_policy@@QEBAXQEBU__crt_lowio_handle_data@@@Z 00000001800713c8 f i libucrt:osfinfo.obj
 0001:000703d0       ??0?$__crt_unique_heap_ptr@U__crt_lowio_handle_data@@U__crt_internal_free_policy@@@@QEAA@QEAU__crt_lowio_handle_data@@@Z 00000001800713d0 f i libucrt:osfinfo.obj
 0001:000703d8       ??1?$__crt_unique_heap_ptr@U__crt_lowio_handle_data@@U__crt_internal_free_policy@@@@QEAA@XZ 00000001800713d8 f i libucrt:osfinfo.obj
 0001:000703f4       ??B?$__crt_unique_heap_ptr@U__crt_lowio_handle_data@@U__crt_internal_free_policy@@@@QEBA_NXZ 00000001800713f4 f i libucrt:osfinfo.obj
 0001:000703fc       ?detach@?$__crt_unique_heap_ptr@U__crt_lowio_handle_data@@U__crt_internal_free_policy@@@@QEAAPEAU__crt_lowio_handle_data@@XZ 00000001800713fc f i libucrt:osfinfo.obj
 0001:00070404       ?get@?$__crt_unique_heap_ptr@U__crt_lowio_handle_data@@U__crt_internal_free_policy@@@@QEBAPEAU__crt_lowio_handle_data@@XZ 0000000180071404 f i libucrt:osfinfo.obj
 0001:00070408       ?is_valid@?$__crt_unique_heap_ptr@U__crt_lowio_handle_data@@U__crt_internal_free_policy@@@@QEBA_NXZ 0000000180071408 f i libucrt:osfinfo.obj
 0001:00070410       ?release@?$__crt_unique_heap_ptr@U__crt_lowio_handle_data@@U__crt_internal_free_policy@@@@QEAAXXZ 0000000180071410 f i libucrt:osfinfo.obj
 0001:0007042c       __acrt_lowio_create_handle_array 000000018007142c f   libucrt:osfinfo.obj
 0001:000704d4       __acrt_lowio_destroy_handle_array 00000001800714d4 f   libucrt:osfinfo.obj
 0001:00070524       __acrt_lowio_ensure_fh_exists 0000000180071524 f   libucrt:osfinfo.obj
 0001:000705cc       __acrt_lowio_lock_fh       00000001800715cc f   libucrt:osfinfo.obj
 0001:000705f4       __acrt_lowio_set_os_handle 00000001800715f4 f   libucrt:osfinfo.obj
 0001:000706b4       __acrt_lowio_unlock_fh     00000001800716b4 f   libucrt:osfinfo.obj
 0001:000706dc       _alloc_osfhnd              00000001800716dc f   libucrt:osfinfo.obj
 0001:0007081c       _free_osfhnd               000000018007181c f   libucrt:osfinfo.obj
 0001:000708d8       _get_osfhandle             00000001800718d8 f   libucrt:osfinfo.obj
 0001:00070950       _open_osfhandle            0000000180071950 f   libucrt:osfinfo.obj
 0001:00070b9c       _commit                    0000000180071b9c f   libucrt:commit.obj
 0001:00071640       _utf8_no_of_trailbytes     0000000180072640 f i libucrt:write.obj
 0001:00071650       _write                     0000000180072650 f   libucrt:write.obj
 0001:0007173c       _write_nolock              000000018007273c f   libucrt:write.obj
 0001:00071a20       localeconv                 0000000180072a20 f   libucrt:localeconv.obj
 0001:00071a54       ?is_in_use@__crt_stdio_stream@@QEBA_NXZ 0000000180072a54 f i libucrt:closeall.obj
 0001:00071a60       _fcloseall                 0000000180072a60 f   libucrt:closeall.obj
 0001:00071b14       ?has_crt_buffer@__crt_stdio_stream@@QEBA_NXZ 0000000180072b14 f i libucrt:_freebuf.obj
 0001:00071b20       __acrt_stdio_free_buffer_nolock 0000000180072b20 f   libucrt:_freebuf.obj
 0001:00071b60       _isatty                    0000000180072b60 f   libucrt:isatty.obj
 0001:00071bc0       __iswcsym                  0000000180072bc0 f i libucrt:_wctype.obj
 0001:00071bec       __iswcsymf                 0000000180072bec f i libucrt:_wctype.obj
 0001:00071c18       _isleadbyte_l              0000000180072c18 f i libucrt:_wctype.obj
 0001:00071c64       _iswalnum_l                0000000180072c64 f i libucrt:_wctype.obj
 0001:00071c70       _iswalpha_l                0000000180072c70 f i libucrt:_wctype.obj
 0001:00071c7c       _iswblank_l                0000000180072c7c f i libucrt:_wctype.obj
 0001:00071c94       _iswcntrl_l                0000000180072c94 f i libucrt:_wctype.obj
 0001:00071ca0       _iswcsym_l                 0000000180072ca0 f i libucrt:_wctype.obj
 0001:00071ccc       _iswcsymf_l                0000000180072ccc f i libucrt:_wctype.obj
 0001:00071cf8       _iswdigit_l                0000000180072cf8 f i libucrt:_wctype.obj
 0001:00071d04       _iswgraph_l                0000000180072d04 f i libucrt:_wctype.obj
 0001:00071d10       _iswlower_l                0000000180072d10 f i libucrt:_wctype.obj
 0001:00071d1c       _iswprint_l                0000000180072d1c f i libucrt:_wctype.obj
 0001:00071d28       _iswpunct_l                0000000180072d28 f i libucrt:_wctype.obj
 0001:00071d34       _iswspace_l                0000000180072d34 f i libucrt:_wctype.obj
 0001:00071d40       _iswupper_l                0000000180072d40 f i libucrt:_wctype.obj
 0001:00071d4c       _iswxdigit_l               0000000180072d4c f i libucrt:_wctype.obj
 0001:00071d58       isleadbyte                 0000000180072d58 f i libucrt:_wctype.obj
 0001:00071da8       iswalnum                   0000000180072da8 f i libucrt:_wctype.obj
 0001:00071db4       iswalpha                   0000000180072db4 f i libucrt:_wctype.obj
 0001:00071dc0       iswascii                   0000000180072dc0 f i libucrt:_wctype.obj
 0001:00071dd0       iswblank                   0000000180072dd0 f i libucrt:_wctype.obj
 0001:00071de8       iswcntrl                   0000000180072de8 f i libucrt:_wctype.obj
 0001:00071df4       iswdigit                   0000000180072df4 f i libucrt:_wctype.obj
 0001:00071e00       iswgraph                   0000000180072e00 f i libucrt:_wctype.obj
 0001:00071e0c       iswlower                   0000000180072e0c f i libucrt:_wctype.obj
 0001:00071e18       iswprint                   0000000180072e18 f i libucrt:_wctype.obj
 0001:00071e24       iswpunct                   0000000180072e24 f i libucrt:_wctype.obj
 0001:00071e30       iswspace                   0000000180072e30 f i libucrt:_wctype.obj
 0001:00071e3c       iswupper                   0000000180072e3c f i libucrt:_wctype.obj
 0001:00071e48       iswxdigit                  0000000180072e48 f i libucrt:_wctype.obj
 0001:00071e7c       ?__mbrtowc_utf8@__crt_mbstring@@YA_KPEA_WPEBD_KPEAU_Mbstatet@@@Z 0000000180072e7c f   libucrt:mbrtowc.obj
 0001:00071eb8       ?__mbsrtowcs_utf8@__crt_mbstring@@YA_KPEA_WPEAPEBD_KPEAU_Mbstatet@@@Z 0000000180072eb8 f   libucrt:mbrtowc.obj
 0001:000723e4       btowc                      00000001800733e4 f   libucrt:mbrtowc.obj
 0001:0007244c       mbrlen                     000000018007344c f   libucrt:mbrtowc.obj
 0001:0007248c       mbrtowc                    000000018007348c f   libucrt:mbrtowc.obj
 0001:000724ec       mbsrtowcs                  00000001800734ec f   libucrt:mbrtowc.obj
 0001:000724f4       mbsrtowcs_s                00000001800734f4 f   libucrt:mbrtowc.obj
 0001:000725bc       ??$?RG@__crt_internal_free_policy@@QEBAXQEBG@Z 00000001800735bc f i libucrt:initctype.obj
 0001:000725c4       ??$?RJ@__crt_internal_free_policy@@QEBAXQEBJ@Z 00000001800735c4 f i libucrt:initctype.obj
 0001:000725cc       ??0?$__crt_unique_heap_ptr@GU__crt_internal_free_policy@@@@QEAA@QEAG@Z 00000001800735cc f i libucrt:initctype.obj
 0001:000725d4       ??0?$__crt_unique_heap_ptr@JU__crt_internal_free_policy@@@@QEAA@QEAJ@Z 00000001800735d4 f i libucrt:initctype.obj
 0001:000725dc       ??1?$__crt_unique_heap_ptr@GU__crt_internal_free_policy@@@@QEAA@XZ 00000001800735dc f i libucrt:initctype.obj
 0001:000725f8       ??1?$__crt_unique_heap_ptr@JU__crt_internal_free_policy@@@@QEAA@XZ 00000001800735f8 f i libucrt:initctype.obj
 0001:00072614       ?detach@?$__crt_unique_heap_ptr@GU__crt_internal_free_policy@@@@QEAAPEAGXZ 0000000180073614 f i libucrt:initctype.obj
 0001:0007261c       ?detach@?$__crt_unique_heap_ptr@JU__crt_internal_free_policy@@@@QEAAPEAJXZ 000000018007361c f i libucrt:initctype.obj
 0001:00072624       ?release@?$__crt_unique_heap_ptr@GU__crt_internal_free_policy@@@@QEAAXXZ 0000000180073624 f i libucrt:initctype.obj
 0001:00072640       ?release@?$__crt_unique_heap_ptr@JU__crt_internal_free_policy@@@@QEAAXXZ 0000000180073640 f i libucrt:initctype.obj
 0001:0007265c       ___lc_codepage_func        000000018007365c f   libucrt:initctype.obj
 0001:0007268c       ___lc_collate_cp_func      000000018007368c f   libucrt:initctype.obj
 0001:000726bc       ___lc_locale_name_func     00000001800736bc f   libucrt:initctype.obj
 0001:000726f0       ___mb_cur_max_func         00000001800736f0 f   libucrt:initctype.obj
 0001:00072720       ___mb_cur_max_l_func       0000000180073720 f   libucrt:initctype.obj
 0001:00072730       __acrt_locale_initialize_ctype 0000000180073730 f   libucrt:initctype.obj
 0001:00072d94       ?__c32rtomb_utf8@__crt_mbstring@@YA_KPEAD_UPEAU_Mbstatet@@@Z 0000000180073d94 f   libucrt:c32rtomb.obj
 0001:00072e48       ?reset_and_return@__crt_mbstring@@YA_K_KPEAU_Mbstatet@@@Z 0000000180073e48 f i libucrt:c32rtomb.obj
 0001:00072e50       ?return_illegal_sequence@__crt_mbstring@@YA_KPEAU_Mbstatet@@@Z 0000000180073e50 f i libucrt:c32rtomb.obj
 0001:00072e6c       c32rtomb                   0000000180073e6c f   libucrt:c32rtomb.obj
 0001:00072f28       __acrt_fp_strflt_to_string 0000000180073f28 f   libucrt:_fptostr.obj
 0001:000741e0       ??0big_integer@__crt_strtox@@QEAA@AEBU01@@Z 00000001800751e0 f i libucrt:cfout.obj
 0001:00074210       ??0big_integer@__crt_strtox@@QEAA@XZ 0000000180075210 f i libucrt:cfout.obj
 0001:00074270       ??4big_integer@__crt_strtox@@QEAAAEAU01@AEBU01@@Z 0000000180075270 f i libucrt:cfout.obj
 0001:000742a0       ??8__crt_strtox@@YA_NAEBUbig_integer@0@0@Z 00000001800752a0 f i libucrt:cfout.obj
 0001:000742d0       ??9__crt_strtox@@YA_NAEBUbig_integer@0@0@Z 00000001800752d0 f i libucrt:cfout.obj
 0001:00074310       ?add_carry@__crt_strtox@@YAIAEAIII@Z 0000000180075310 f i libucrt:cfout.obj
 0001:00074330       ?add_multiply_carry@__crt_strtox@@YAIAEAIIII@Z 0000000180075330 f i libucrt:cfout.obj
 0001:00074350       ?bit_scan_reverse@__crt_strtox@@YAII@Z 0000000180075350 f i libucrt:cfout.obj
 0001:00074370       ?count_sequential_high_zeroes@__crt_strtox@@YAII@Z 0000000180075370 f i libucrt:cfout.obj
 0001:00074390       ?divide@__crt_strtox@@YA_KAEAUbig_integer@1@AEBU21@@Z 0000000180075390 f i libucrt:cfout.obj
 0001:000747c0       ?is_zero@__crt_strtox@@YA_NAEBUbig_integer@1@@Z 00000001800757c0 f i libucrt:cfout.obj
 0001:000747d0       ?make_big_integer@__crt_strtox@@YA?AUbig_integer@1@_K@Z 00000001800757d0 f i libucrt:cfout.obj
 0001:000747f0       ?make_big_integer_power_of_two@__crt_strtox@@YA?AUbig_integer@1@I@Z 00000001800757f0 f i libucrt:cfout.obj
 0001:00074860       ?multiply@__crt_strtox@@YA_NAEAUbig_integer@1@AEBU21@@Z 0000000180075860 f i libucrt:cfout.obj
 0001:00074c10       ?multiply@__crt_strtox@@YA_NAEAUbig_integer@1@I@Z 0000000180075c10 f i libucrt:cfout.obj
 0001:00074d00       ?multiply_64_32@__crt_strtox@@YA_K_KI@Z 0000000180075d00 f i libucrt:cfout.obj
 0001:00074d10       ?multiply_by_power_of_ten@__crt_strtox@@YA_NAEAUbig_integer@1@I@Z 0000000180075d10 f i libucrt:cfout.obj
 0001:000752c0       ?multiply_core@__crt_strtox@@YAIQEAIII@Z 00000001800762c0 f i libucrt:cfout.obj
 0001:00075310       ?shift_left@__crt_strtox@@YA_NAEAUbig_integer@1@I@Z 0000000180076310 f i libucrt:cfout.obj
 0001:0007548c       __acrt_fltout              000000018007648c f   libucrt:cfout.obj
 0001:00076758       __fpe_flt_rounds           0000000180077758 f   libucrt:fegetround.obj
 0001:000767a0       fegetround                 00000001800777a0 f   libucrt:fegetround.obj
 0001:00076af4       ?has_big_buffer@__crt_stdio_stream@@QEBA_NXZ 0000000180077af4 f i libucrt:_flsbuf.obj
 0001:00076b80       __acrt_stdio_flush_and_write_narrow_nolock 0000000180077b80 f   libucrt:_flsbuf.obj
 0001:00076c38       __acrt_stdio_flush_and_write_wide_nolock 0000000180077c38 f   libucrt:_flsbuf.obj
 0001:00076cf4       ??$?RUlconv@@@__crt_internal_free_policy@@QEBAXQEBUlconv@@@Z 0000000180077cf4 f i libucrt:initmon.obj
 0001:00076cfc       ??0?$__crt_unique_heap_ptr@Ulconv@@U__crt_internal_free_policy@@@@QEAA@QEAUlconv@@@Z 0000000180077cfc f i libucrt:initmon.obj
 0001:00076d04       ??1?$__crt_unique_heap_ptr@Ulconv@@U__crt_internal_free_policy@@@@QEAA@XZ 0000000180077d04 f i libucrt:initmon.obj
 0001:00076d20       ?detach@?$__crt_unique_heap_ptr@Ulconv@@U__crt_internal_free_policy@@@@QEAAPEAUlconv@@XZ 0000000180077d20 f i libucrt:initmon.obj
 0001:00076d28       ?release@?$__crt_unique_heap_ptr@Ulconv@@U__crt_internal_free_policy@@@@QEAAXXZ 0000000180077d28 f i libucrt:initmon.obj
 0001:00076d44       __acrt_locale_free_monetary 0000000180077d44 f   libucrt:initmon.obj
 0001:00076e50       __acrt_locale_initialize_monetary 0000000180077e50 f   libucrt:initmon.obj
 0001:000773b8       __acrt_locale_free_numeric 00000001800783b8 f   libucrt:initnum.obj
 0001:00077424       __acrt_locale_initialize_numeric 0000000180078424 f   libucrt:initnum.obj
 0001:00077740       ??$?RU__crt_lc_time_data@@@__crt_internal_free_policy@@QEBAXQEBU__crt_lc_time_data@@@Z 0000000180078740 f i libucrt:inittime.obj
 0001:00077790       ??0?$__crt_unique_heap_ptr@U__crt_lc_time_data@@U__crt_internal_free_policy@@@@QEAA@QEAU__crt_lc_time_data@@@Z 0000000180078790 f i libucrt:inittime.obj
 0001:00077798       ??1?$__crt_unique_heap_ptr@U__crt_lc_time_data@@U__crt_internal_free_policy@@@@QEAA@XZ 0000000180078798 f i libucrt:inittime.obj
 0001:000777b4       ??B?$__crt_unique_heap_ptr@U__crt_lc_time_data@@U__crt_internal_free_policy@@@@QEBA_NXZ 00000001800787b4 f i libucrt:inittime.obj
 0001:000777bc       ?detach@?$__crt_unique_heap_ptr@U__crt_lc_time_data@@U__crt_internal_free_policy@@@@QEAAPEAU__crt_lc_time_data@@XZ 00000001800787bc f i libucrt:inittime.obj
 0001:0007781c       ?get@?$__crt_unique_heap_ptr@U__crt_lc_time_data@@U__crt_internal_free_policy@@@@QEBAPEAU__crt_lc_time_data@@XZ 000000018007881c f i libucrt:inittime.obj
 0001:00077bd8       ?is_valid@?$__crt_unique_heap_ptr@U__crt_lc_time_data@@U__crt_internal_free_policy@@@@QEBA_NXZ 0000000180078bd8 f i libucrt:inittime.obj
 0001:00077be0       ?release@?$__crt_unique_heap_ptr@U__crt_lc_time_data@@U__crt_internal_free_policy@@@@QEAAXXZ 0000000180078be0 f i libucrt:inittime.obj
 0001:00077bfc       __acrt_locale_free_time    0000000180078bfc f   libucrt:inittime.obj
 0001:00077d04       __acrt_locale_initialize_time 0000000180078d04 f   libucrt:inittime.obj
 0001:00077e28       wcscat_s                   0000000180078e28 f   libucrt:wcscat_s.obj
 0001:00077fa0       wcsncat_s                  0000000180078fa0 f   libucrt:wcsncat_s.obj
 0001:000780a0       wcscspn                    00000001800790a0 f   libucrt:wcscspn.obj
 0001:0007893c       __acrt_get_qualified_locale 000000018007993c f   libucrt:get_qualified_locale.obj
 0001:00079440       __acrt_get_qualified_locale_downlevel 000000018007a440 f   libucrt:getqloc_downlevel.obj
 0001:000796c0       __acrt_GetStringTypeW      000000018007a6c0 f   libucrt:getstringtypew.obj
 0001:00079758       _d_int                     000000018007a758 f   libucrt:_test.obj
 0001:00079870       _dtest                     000000018007a870 f   libucrt:_test.obj
 0001:000798d4       _fd_int                    000000018007a8d4 f   libucrt:_test.obj
 0001:000799ac       _fdtest                    000000018007a9ac f   libucrt:_test.obj
 0001:000799f8       _fperrraise                000000018007a9f8 f   libucrt:_test.obj
 0001:00079aac       _ld_int                    000000018007aaac f   libucrt:_test.obj
 0001:00079ab4       _ldtest                    000000018007aab4 f   libucrt:_test.obj
 0001:00079abc       _add_exp                   000000018007aabc f   libucrt:util.obj
 0001:00079b0c       _decomp                    000000018007ab0c f   libucrt:util.obj
 0001:00079c3c       _get_exp                   000000018007ac3c f   libucrt:util.obj
 0001:00079c5c       _set_bexp                  000000018007ac5c f   libucrt:util.obj
 0001:00079c8c       _set_exp                   000000018007ac8c f   libucrt:util.obj
 0001:00079cc4       _sptype                    000000018007acc4 f   libucrt:util.obj
 0001:00079d38       __strncnt                  000000018007ad38 f   libucrt:strncnt.obj
 0001:00079d50       __acrt_CompareStringW      000000018007ad50 f   libucrt:comparestringw.obj
 0001:00079e10       __ascii_wcsnicmp           000000018007ae10 f   libucrt:wcsnicmp.obj
 0001:00079e5c       _towlower_fast_internal    000000018007ae5c f i libucrt:wcsnicmp.obj
 0001:00079e84       _towlower_internal         000000018007ae84 f i libucrt:wcsnicmp.obj
 0001:00079eb8       _wcsnicmp                  000000018007aeb8 f   libucrt:wcsnicmp.obj
 0001:00079f00       _wcsnicmp_l                000000018007af00 f   libucrt:wcsnicmp.obj
 0001:0007a050       __ascii_strnicmp           000000018007b050 f   libucrt:strnicmp.obj
 0001:0007a09c       _strnicmp                  000000018007b09c f   libucrt:strnicmp.obj
 0001:0007a0ec       _strnicmp_l                000000018007b0ec f   libucrt:strnicmp.obj
 0001:0007a4fc       __acrt_CompareStringA      000000018007b4fc f   libucrt:comparestringa.obj
 0001:0007a660       __acrt_report_runtime_error 000000018007b660 f   libucrt:report_runtime_error.obj
 0001:0007a7c0       _query_app_type            000000018007b7c0 f   libucrt:report_runtime_error.obj
 0001:0007a7c8       _set_app_type              000000018007b7c8 f   libucrt:report_runtime_error.obj
 0001:0007ac10       _lseek                     000000018007bc10 f   libucrt:lseek.obj
 0001:0007ac18       _lseek_nolock              000000018007bc18 f   libucrt:lseek.obj
 0001:0007ac20       _lseeki64                  000000018007bc20 f   libucrt:lseek.obj
 0001:0007ac28       _lseeki64_nolock           000000018007bc28 f   libucrt:lseek.obj
 0001:0007accc       _putwch                    000000018007bccc f   libucrt:putwch.obj
 0001:0007ad08       _putwch_nolock             000000018007bd08 f   libucrt:putwch.obj
 0001:0007b548       _read                      000000018007c548 f   libucrt:read.obj
 0001:0007b664       _read_nolock               000000018007c664 f   libucrt:read.obj
 0001:0007babc       _fclose_nolock             000000018007cabc f   libucrt:fclose.obj
 0001:0007bb40       fclose                     000000018007cb40 f   libucrt:fclose.obj
 0001:0007bba4       ?__mbrtoc32_utf8@__crt_mbstring@@YA_KPEA_UPEBD_KPEAU_Mbstatet@@@Z 000000018007cba4 f   libucrt:mbrtoc32.obj
 0001:0007bd7c       mbrtoc32                   000000018007cd7c f   libucrt:mbrtoc32.obj
 0001:0007bf00       __acrt_GetLocaleInfoA      000000018007cf00 f   libucrt:getlocaleinfoa.obj
 0001:0007c0c8       _controlfp_s               000000018007d0c8 f   libucrt:contrlfp.obj
 0001:0007c12c       fegetenv                   000000018007d12c f   libucrt:fegetenv.obj
 0001:0007c14c       fesetenv                   000000018007d14c f   libucrt:fesetenv.obj
 0001:0007c198       feholdexcept               000000018007d198 f   libucrt:feholdexcept.obj
 0001:0007c1e8       ceil                       000000018007d1e8 f   libucrt:ceil.obj
 0001:0007c2b0       log10                      000000018007d2b0 f   libucrt:log10.obj
 0001:0007c85c       ??$__acrt_fenv_shift_bits@W4__acrt_fenv_abstract_control@@@@YA?AW4__acrt_fenv_abstract_control@@W40@0I@Z 000000018007d85c f i libucrt:_fenvutils.obj
 0001:0007c868       ??$__acrt_fenv_shift_bits@W4__acrt_fenv_abstract_status@@@@YA?AW4__acrt_fenv_abstract_status@@W40@0I@Z 000000018007d868 f i libucrt:_fenvutils.obj
 0001:0007c874       ??$__acrt_fenv_translate_bit@W4__acrt_fenv_abstract_control@@W4__acrt_fenv_machine_sse_control@@@@YA?AW4__acrt_fenv_abstract_control@@W4__acrt_fenv_machine_sse_control@@0W40@1@Z 000000018007d874 f i libucrt:_fenvutils.obj
 0001:0007c880       ??$__acrt_fenv_translate_bit@W4__acrt_fenv_abstract_status@@W4__acrt_fenv_machine_sse_status@@@@YA?AW4__acrt_fenv_abstract_status@@W4__acrt_fenv_machine_sse_status@@0W40@1@Z 000000018007d880 f i libucrt:_fenvutils.obj
 0001:0007c88c       ??$__acrt_fenv_translate_bit@W4__acrt_fenv_machine_sse_control@@W4__acrt_fenv_abstract_control@@@@YA?AW4__acrt_fenv_machine_sse_control@@W4__acrt_fenv_abstract_control@@0W40@1@Z 000000018007d88c f i libucrt:_fenvutils.obj
 0001:0007c898       ??$__acrt_fenv_translate_bit@W4__acrt_fenv_machine_sse_status@@W4__acrt_fenv_abstract_status@@@@YA?AW4__acrt_fenv_machine_sse_status@@W4__acrt_fenv_abstract_status@@0W40@1@Z 000000018007d898 f i libucrt:_fenvutils.obj
 0001:0007c8a4       ??$__acrt_fenv_unshift_bits@W4__acrt_fenv_abstract_control@@@@YA?AW4__acrt_fenv_abstract_control@@W40@0I@Z 000000018007d8a4 f i libucrt:_fenvutils.obj
 0001:0007c8b0       ??$__acrt_fenv_unshift_bits@W4__acrt_fenv_abstract_status@@@@YA?AW4__acrt_fenv_abstract_status@@W40@0I@Z 000000018007d8b0 f i libucrt:_fenvutils.obj
 0001:0007cb08       ??I@YA?AW4__acrt_fenv_abstract_control@@W40@0@Z 000000018007db08 f i libucrt:_fenvutils.obj
 0001:0007cb10       ??I@YA?AW4__acrt_fenv_abstract_status@@W40@0@Z 000000018007db10 f i libucrt:_fenvutils.obj
 0001:0007cb18       ??I@YA?AW4__acrt_fenv_machine_sse_control@@W40@0@Z 000000018007db18 f i libucrt:_fenvutils.obj
 0001:0007cb20       ??I@YA?AW4__acrt_fenv_machine_sse_status@@W40@0@Z 000000018007db20 f i libucrt:_fenvutils.obj
 0001:0007cb28       ??U@YA?AW4__acrt_fenv_abstract_control@@W40@0@Z 000000018007db28 f i libucrt:_fenvutils.obj
 0001:0007cb30       ??U@YA?AW4__acrt_fenv_abstract_status@@W40@0@Z 000000018007db30 f i libucrt:_fenvutils.obj
 0001:0007cb38       ??U@YA?AW4__acrt_fenv_machine_sse_control@@W40@0@Z 000000018007db38 f i libucrt:_fenvutils.obj
 0001:0007cb40       ??_5@YAAEAW4__acrt_fenv_abstract_control@@AEAW40@W40@@Z 000000018007db40 f i libucrt:_fenvutils.obj
 0001:0007cb48       ??_5@YAAEAW4__acrt_fenv_abstract_status@@AEAW40@W40@@Z 000000018007db48 f i libucrt:_fenvutils.obj
 0001:0007cb50       ??_5@YAAEAW4__acrt_fenv_machine_sse_control@@AEAW40@W40@@Z 000000018007db50 f i libucrt:_fenvutils.obj
 0001:0007cb58       ??_5@YAAEAW4__acrt_fenv_machine_sse_status@@AEAW40@W40@@Z 000000018007db58 f i libucrt:_fenvutils.obj
 0001:0007cb60       ?__acrt_fenv_shift_abstract_sse_control@@YA?AW4__acrt_fenv_abstract_control@@W41@@Z 000000018007db60 f i libucrt:_fenvutils.obj
 0001:0007cb74       ?__acrt_fenv_shift_abstract_sse_status@@YA?AW4__acrt_fenv_abstract_status@@W41@@Z 000000018007db74 f i libucrt:_fenvutils.obj
 0001:0007cb80       ?__acrt_fenv_unshift_abstract_sse_control@@YA?AW4__acrt_fenv_abstract_control@@W41@@Z 000000018007db80 f i libucrt:_fenvutils.obj
 0001:0007cb98       ?__acrt_fenv_unshift_abstract_sse_status@@YA?AW4__acrt_fenv_abstract_status@@W41@@Z 000000018007db98 f i libucrt:_fenvutils.obj
 0001:0007ced8       __acrt_fenv_expand_round_control 000000018007ded8 f   libucrt:_fenvutils.obj
 0001:0007cef0       __acrt_fenv_get_common_round_control 000000018007def0 f   libucrt:_fenvutils.obj
 0001:0007cefc       __acrt_fenv_get_control    000000018007defc f   libucrt:_fenvutils.obj
 0001:0007cff0       __acrt_fenv_get_fp_status_word_from_exception_mask 000000018007dff0 f   libucrt:_fenvutils.obj
 0001:0007cffc       __acrt_fenv_get_status     000000018007dffc f   libucrt:_fenvutils.obj
 0001:0007d050       __acrt_fenv_set_control    000000018007e050 f   libucrt:_fenvutils.obj
 0001:0007d198       __acrt_fenv_set_status     000000018007e198 f   libucrt:_fenvutils.obj
 0001:0007d21c       __acrt_stdio_allocate_buffer_nolock 000000018007e21c f   libucrt:_getbuf.obj
 0001:0007d774       _i64toa                    000000018007e774 f   libucrt:xtoa.obj
 0001:0007d7a8       _i64toa_s                  000000018007e7a8 f   libucrt:xtoa.obj
 0001:0007d7cc       _i64tow                    000000018007e7cc f   libucrt:xtoa.obj
 0001:0007d800       _i64tow_s                  000000018007e800 f   libucrt:xtoa.obj
 0001:0007d824       _itoa                      000000018007e824 f   libucrt:xtoa.obj
 0001:0007d854       _itoa_s                    000000018007e854 f   libucrt:xtoa.obj
 0001:0007d874       _itow                      000000018007e874 f   libucrt:xtoa.obj
 0001:0007d8a4       _itow_s                    000000018007e8a4 f   libucrt:xtoa.obj
 0001:0007d8c4       _ltoa                      000000018007e8c4 f   libucrt:xtoa.obj
 0001:0007d8f4       _ltoa_s                    000000018007e8f4 f   libucrt:xtoa.obj
 0001:0007d914       _ltow                      000000018007e914 f   libucrt:xtoa.obj
 0001:0007d944       _ltow_s                    000000018007e944 f   libucrt:xtoa.obj
 0001:0007d964       _ui64toa                   000000018007e964 f   libucrt:xtoa.obj
 0001:0007d988       _ui64toa_s                 000000018007e988 f   libucrt:xtoa.obj
 0001:0007d99c       _ui64tow                   000000018007e99c f   libucrt:xtoa.obj
 0001:0007d9c0       _ui64tow_s                 000000018007e9c0 f   libucrt:xtoa.obj
 0001:0007d9d4       _ultoa                     000000018007e9d4 f   libucrt:xtoa.obj
 0001:0007d9f8       _ultoa_s                   000000018007e9f8 f   libucrt:xtoa.obj
 0001:0007da0c       _ultow                     000000018007ea0c f   libucrt:xtoa.obj
 0001:0007da30       _ultow_s                   000000018007ea30 f   libucrt:xtoa.obj
 0001:0007da44       __ascii_wcsicmp            000000018007ea44 f   libucrt:wcsicmp.obj
 0001:0007da84       _wcsicmp                   000000018007ea84 f   libucrt:wcsicmp.obj
 0001:0007dacc       _wcsicmp_l                 000000018007eacc f   libucrt:wcsicmp.obj
 0001:0007dbf4       wcscmp                     000000018007ebf4 f   libucrt:wcscmp.obj
 0001:0007dc2c       ??_4@YAAEAW4__acrt_fenv_abstract_status@@AEAW40@W40@@Z 000000018007ec2c f i libucrt:fegetexceptflag.obj
 0001:0007dc34       fegetexceptflag            000000018007ec34 f   libucrt:fegetexceptflag.obj
 0001:0007dc78       ??S@YA?AW4__acrt_fenv_abstract_status@@W40@@Z 000000018007ec78 f i libucrt:fesetexceptflag.obj
 0001:0007dc80       fesetexceptflag            000000018007ec80 f   libucrt:fesetexceptflag.obj
 0001:0007dcf0       _towlower_l                000000018007ecf0 f   libucrt:towlower.obj
 0001:0007ddac       towlower                   000000018007edac f   libucrt:towlower.obj
 0001:0007ddb4       _set_error_mode            000000018007edb4 f   libucrt:set_error_mode.obj
 0001:0007df3c       ??$message_box@$$TAEBQEBDAEBQEBDK@?$__crt_char_traits@D@@SAH$$QEA$$TAEBQEBD1$$QEAK@Z 000000018007ef3c f i libucrt:crtmbox.obj
 0001:0007df50       ??$message_box@$$TAEBQEB_WAEBQEB_WK@?$__crt_char_traits@_W@@SAH$$QEA$$TAEBQEB_W1$$QEAK@Z 000000018007ef50 f i libucrt:crtmbox.obj
 0001:0007df64       ??$message_box@PEAUHWND__@@AEBQEBDAEBQEBDAEBI@?$__crt_char_traits@D@@SAH$$QEAPEAUHWND__@@AEBQEBD1AEBI@Z 000000018007ef64 f i libucrt:crtmbox.obj
 0001:0007df78       ??$message_box@PEAUHWND__@@AEBQEB_WAEBQEB_WAEBI@?$__crt_char_traits@_W@@SAH$$QEAPEAUHWND__@@AEBQEB_W1AEBI@Z 000000018007ef78 f i libucrt:crtmbox.obj
 0001:0007df8c       ??$output_debug_string@AEBQEBD@?$__crt_char_traits@D@@SAXAEBQEBD@Z 000000018007ef8c f i libucrt:crtmbox.obj
 0001:0007df94       ??$output_debug_string@AEBQEB_W@?$__crt_char_traits@_W@@SAXAEBQEB_W@Z 000000018007ef94 f i libucrt:crtmbox.obj
 0001:0007dfa0       __acrt_show_narrow_message_box 000000018007efa0 f   libucrt:crtmbox.obj
 0001:0007e044       __acrt_show_wide_message_box 000000018007f044 f   libucrt:crtmbox.obj
 0001:0007e210       __dcrt_lowio_ensure_console_output_initialized 000000018007f210 f   libucrt:initcon.obj
 0001:0007e264       __dcrt_terminate_console_output 000000018007f264 f   libucrt:initcon.obj
 0001:0007e280       __dcrt_write_console       000000018007f280 f   libucrt:initcon.obj
 0001:0007e4d0       _close                     000000018007f4d0 f   libucrt:close.obj
 0001:0007e574       _close_nolock              000000018007f574 f   libucrt:close.obj
 0001:0007e634       ??$?RU__crt_stdio_stream_data@@@__crt_internal_free_policy@@QEBAXQEBU__crt_stdio_stream_data@@@Z 000000018007f634 f i libucrt:stream.obj
 0001:0007e63c       ??0?$__crt_unique_heap_ptr@U__crt_stdio_stream_data@@U__crt_internal_free_policy@@@@QEAA@QEAU__crt_stdio_stream_data@@@Z 000000018007f63c f i libucrt:stream.obj
 0001:0007e644       ??0__crt_stdio_stream@@QEAA@XZ 000000018007f644 f i libucrt:stream.obj
 0001:0007e64c       ??1?$__crt_unique_heap_ptr@U__crt_stdio_stream_data@@U__crt_internal_free_policy@@@@QEAA@XZ 000000018007f64c f i libucrt:stream.obj
 0001:0007e668       ?__acrt_stdio_allocate_stream@@YA?AV__crt_stdio_stream@@XZ 000000018007f668 f   libucrt:stream.obj
 0001:0007e6c0       ?__acrt_stdio_free_stream@@YAXV__crt_stdio_stream@@@Z 000000018007f6c0 f   libucrt:stream.obj
 0001:0007e6dc       ?deallocate@__crt_stdio_stream@@QEAAXXZ 000000018007f6dc f i libucrt:stream.obj
 0001:0007e6e8       ?detach@?$__crt_unique_heap_ptr@U__crt_stdio_stream_data@@U__crt_internal_free_policy@@@@QEAAPEAU__crt_stdio_stream_data@@XZ 000000018007f6e8 f i libucrt:stream.obj
 0001:0007e7dc       ?lock@__crt_stdio_stream@@QEBAXXZ 000000018007f7dc f i libucrt:stream.obj
 0001:0007e7e4       ?release@?$__crt_unique_heap_ptr@U__crt_stdio_stream_data@@U__crt_internal_free_policy@@@@QEAAXXZ 000000018007f7e4 f i libucrt:stream.obj
 0001:0007e800       ?try_allocate@__crt_stdio_stream@@QEAA_NXZ 000000018007f800 f i libucrt:stream.obj
 0001:0007e820       ?unlock@__crt_stdio_stream@@QEBAXXZ 000000018007f820 f i libucrt:stream.obj
 0001:0007e94c       _clearfp                   000000018007f94c f   libucrt:ieee.obj
 0001:0007e9bc       _control87                 000000018007f9bc f   libucrt:ieee.obj
 0001:0007e9c4       _controlfp                 000000018007f9c4 f   libucrt:ieee.obj
 0001:0007e9d0       _fpreset                   000000018007f9d0 f   libucrt:ieee.obj
 0001:0007ea9c       _set_controlfp             000000018007fa9c f   libucrt:ieee.obj
 0001:0007ead0       _statusfp                  000000018007fad0 f   libucrt:ieee.obj
 0001:0007ee00       _log10_special             000000018007fe00 f   libucrt:log_special.obj
 0001:0007ee20       _log10f_special            000000018007fe20 f   libucrt:log_special.obj
 0001:0007ee40       _log_special               000000018007fe40 f   libucrt:log_special.obj
 0001:0007eef8       _logf_special              000000018007fef8 f   libucrt:log_special.obj
 0001:0007efb4       fetestexcept               000000018007ffb4 f   libucrt:fetestexcept.obj
 0001:0007efd8       __acrt_LCMapStringW        000000018007ffd8 f   libucrt:lcmapstringw.obj
 0001:0007f060       __acrt_OutputDebugStringA  0000000180080060 f   libucrt:outputdebugstringa.obj
 0001:0007f2fc       _mbstowcs_l                00000001800802fc f   libucrt:mbstowcs.obj
 0001:0007f304       _mbstowcs_s_l              0000000180080304 f   libucrt:mbstowcs.obj
 0001:0007f438       mbstowcs                   0000000180080438 f   libucrt:mbstowcs.obj
 0001:0007f454       mbstowcs_s                 0000000180080454 f   libucrt:mbstowcs.obj
 0001:0007f472       RaiseException             0000000180080472 f   kernel32:KERNEL32.dll
 0001:0007f478       GetLastError               0000000180080478 f   kernel32:KERNEL32.dll
 0001:0007f47e       GetSystemInfo              000000018008047e f   kernel32:KERNEL32.dll
 0001:0007f484       VirtualProtect             0000000180080484 f   kernel32:KERNEL32.dll
 0001:0007f48a       VirtualQuery               000000018008048a f   kernel32:KERNEL32.dll
 0001:0007f490       FreeLibrary                0000000180080490 f   kernel32:KERNEL32.dll
 0001:0007f496       GetModuleHandleW           0000000180080496 f   kernel32:KERNEL32.dll
 0001:0007f49c       GetProcAddress             000000018008049c f   kernel32:KERNEL32.dll
 0001:0007f4a2       LoadLibraryExA             00000001800804a2 f   kernel32:KERNEL32.dll
 0001:0007f4a8       InitializeSListHead        00000001800804a8 f   kernel32:KERNEL32.dll
 0001:0007f4ae       QueryPerformanceCounter    00000001800804ae f   kernel32:KERNEL32.dll
 0001:0007f4b4       GetCurrentProcessId        00000001800804b4 f   kernel32:KERNEL32.dll
 0001:0007f4ba       GetCurrentThreadId         00000001800804ba f   kernel32:KERNEL32.dll
 0001:0007f4c0       GetSystemTimeAsFileTime    00000001800804c0 f   kernel32:KERNEL32.dll
 0001:0007f4c6       RtlCaptureContext          00000001800804c6 f   kernel32:KERNEL32.dll
 0001:0007f4cc       RtlLookupFunctionEntry     00000001800804cc f   kernel32:KERNEL32.dll
 0001:0007f4d2       RtlVirtualUnwind           00000001800804d2 f   kernel32:KERNEL32.dll
 0001:0007f4d8       IsDebuggerPresent          00000001800804d8 f   kernel32:KERNEL32.dll
 0001:0007f4de       UnhandledExceptionFilter   00000001800804de f   kernel32:KERNEL32.dll
 0001:0007f4e4       SetUnhandledExceptionFilter 00000001800804e4 f   kernel32:KERNEL32.dll
 0001:0007f4ea       GetStartupInfoW            00000001800804ea f   kernel32:KERNEL32.dll
 0001:0007f4f0       IsProcessorFeaturePresent  00000001800804f0 f   kernel32:KERNEL32.dll
 0001:0007f4f6       InterlockedPushEntrySList  00000001800804f6 f   kernel32:KERNEL32.dll
 0001:0007f4fc       InterlockedFlushSList      00000001800804fc f   kernel32:KERNEL32.dll
 0001:0007f502       RtlUnwindEx                0000000180080502 f   kernel32:KERNEL32.dll
 0001:0007f508       SetLastError               0000000180080508 f   kernel32:KERNEL32.dll
 0001:0007f50e       EnterCriticalSection       000000018008050e f   kernel32:KERNEL32.dll
 0001:0007f514       LeaveCriticalSection       0000000180080514 f   kernel32:KERNEL32.dll
 0001:0007f51a       DeleteCriticalSection      000000018008051a f   kernel32:KERNEL32.dll
 0001:0007f520       InitializeCriticalSectionAndSpinCount 0000000180080520 f   kernel32:KERNEL32.dll
 0001:0007f526       TlsAlloc                   0000000180080526 f   kernel32:KERNEL32.dll
 0001:0007f52c       TlsGetValue                000000018008052c f   kernel32:KERNEL32.dll
 0001:0007f532       TlsSetValue                0000000180080532 f   kernel32:KERNEL32.dll
 0001:0007f538       TlsFree                    0000000180080538 f   kernel32:KERNEL32.dll
 0001:0007f53e       LoadLibraryExW             000000018008053e f   kernel32:KERNEL32.dll
 0001:0007f544       EncodePointer              0000000180080544 f   kernel32:KERNEL32.dll
 0001:0007f54a       RtlPcToFileHeader          000000018008054a f   kernel32:KERNEL32.dll
 0001:0007f550       GetCurrentProcess          0000000180080550 f   kernel32:KERNEL32.dll
 0001:0007f556       ExitProcess                0000000180080556 f   kernel32:KERNEL32.dll
 0001:0007f55c       TerminateProcess           000000018008055c f   kernel32:KERNEL32.dll
 0001:0007f562       GetModuleHandleExW         0000000180080562 f   kernel32:KERNEL32.dll
 0001:0007f568       GetModuleFileNameW         0000000180080568 f   kernel32:KERNEL32.dll
 0001:0007f56e       HeapFree                   000000018008056e f   kernel32:KERNEL32.dll
 0001:0007f574       GetCurrentThread           0000000180080574 f   kernel32:KERNEL32.dll
 0001:0007f57a       HeapAlloc                  000000018008057a f   kernel32:KERNEL32.dll
 0001:0007f580       FindClose                  0000000180080580 f   kernel32:KERNEL32.dll
 0001:0007f586       FindFirstFileExW           0000000180080586 f   kernel32:KERNEL32.dll
 0001:0007f58c       FindNextFileW              000000018008058c f   kernel32:KERNEL32.dll
 0001:0007f592       IsValidCodePage            0000000180080592 f   kernel32:KERNEL32.dll
 0001:0007f598       GetACP                     0000000180080598 f   kernel32:KERNEL32.dll
 0001:0007f59e       GetOEMCP                   000000018008059e f   kernel32:KERNEL32.dll
 0001:0007f5a4       GetCPInfo                  00000001800805a4 f   kernel32:KERNEL32.dll
 0001:0007f5aa       GetCommandLineA            00000001800805aa f   kernel32:KERNEL32.dll
 0001:0007f5b0       GetCommandLineW            00000001800805b0 f   kernel32:KERNEL32.dll
 0001:0007f5b6       MultiByteToWideChar        00000001800805b6 f   kernel32:KERNEL32.dll
 0001:0007f5bc       WideCharToMultiByte        00000001800805bc f   kernel32:KERNEL32.dll
 0001:0007f5c2       GetEnvironmentStringsW     00000001800805c2 f   kernel32:KERNEL32.dll
 0001:0007f5c8       FreeEnvironmentStringsW    00000001800805c8 f   kernel32:KERNEL32.dll
 0001:0007f5ce       SetEnvironmentVariableW    00000001800805ce f   kernel32:KERNEL32.dll
 0001:0007f5d4       GetDateFormatW             00000001800805d4 f   kernel32:KERNEL32.dll
 0001:0007f5da       GetTimeFormatW             00000001800805da f   kernel32:KERNEL32.dll
 0001:0007f5e0       CompareStringW             00000001800805e0 f   kernel32:KERNEL32.dll
 0001:0007f5e6       LCMapStringW               00000001800805e6 f   kernel32:KERNEL32.dll
 0001:0007f5ec       GetLocaleInfoW             00000001800805ec f   kernel32:KERNEL32.dll
 0001:0007f5f2       IsValidLocale              00000001800805f2 f   kernel32:KERNEL32.dll
 0001:0007f5f8       GetUserDefaultLCID         00000001800805f8 f   kernel32:KERNEL32.dll
 0001:0007f5fe       EnumSystemLocalesW         00000001800805fe f   kernel32:KERNEL32.dll
 0001:0007f604       GetProcessHeap             0000000180080604 f   kernel32:KERNEL32.dll
 0001:0007f60a       GetStdHandle               000000018008060a f   kernel32:KERNEL32.dll
 0001:0007f610       GetFileType                0000000180080610 f   kernel32:KERNEL32.dll
 0001:0007f616       SetConsoleCtrlHandler      0000000180080616 f   kernel32:KERNEL32.dll
 0001:0007f61c       GetStringTypeW             000000018008061c f   kernel32:KERNEL32.dll
 0001:0007f622       HeapSize                   0000000180080622 f   kernel32:KERNEL32.dll
 0001:0007f628       HeapReAlloc                0000000180080628 f   kernel32:KERNEL32.dll
 0001:0007f62e       SetStdHandle               000000018008062e f   kernel32:KERNEL32.dll
 0001:0007f634       FlushFileBuffers           0000000180080634 f   kernel32:KERNEL32.dll
 0001:0007f63a       WriteFile                  000000018008063a f   kernel32:KERNEL32.dll
 0001:0007f640       GetConsoleOutputCP         0000000180080640 f   kernel32:KERNEL32.dll
 0001:0007f646       GetConsoleMode             0000000180080646 f   kernel32:KERNEL32.dll
 0001:0007f64c       GetFileSizeEx              000000018008064c f   kernel32:KERNEL32.dll
 0001:0007f652       SetFilePointerEx           0000000180080652 f   kernel32:KERNEL32.dll
 0001:0007f658       ReadFile                   0000000180080658 f   kernel32:KERNEL32.dll
 0001:0007f65e       ReadConsoleW               000000018008065e f   kernel32:KERNEL32.dll
 0001:0007f664       OutputDebugStringW         0000000180080664 f   kernel32:KERNEL32.dll
 0001:0007f66a       CreateFileW                000000018008066a f   kernel32:KERNEL32.dll
 0001:0007f670       CloseHandle                0000000180080670 f   kernel32:KERNEL32.dll
 0001:0007f676       WriteConsoleW              0000000180080676 f   kernel32:KERNEL32.dll
 0001:0007f680       _FindPESection             0000000180080680 f   LIBCMT:pesect.obj
 0001:0007f6d0       _IsNonwritableInCurrentImage 00000001800806d0 f   LIBCMT:pesect.obj
 0001:0007f720       _ValidateImageBase         0000000180080720 f   LIBCMT:pesect.obj
 0001:0007f750       __GSHandlerCheck           0000000180080750 f   LIBCMT:gshandler.obj
 0001:0007f770       __GSHandlerCheckCommon     0000000180080770 f   LIBCMT:gshandler.obj
 0001:0007f7e0       __security_check_cookie    00000001800807e0 f   LIBCMT:amdsecgs.obj
 0001:0007f800       __GSHandlerCheck_SEH       0000000180080800 f   LIBCMT:gshandlerseh.obj
 0001:0007f888       __raise_securityfailure    0000000180080888 f   LIBCMT:gs_report.obj
 0001:0007f8bc       __report_gsfailure         00000001800808bc f   LIBCMT:gs_report.obj
 0001:0007f990       __report_rangecheckfailure 0000000180080990 f   LIBCMT:gs_report.obj
 0001:0007f9a4       __report_securityfailure   00000001800809a4 f   LIBCMT:gs_report.obj
 0001:0007fa40       __report_securityfailureEx 0000000180080a40 f   LIBCMT:gs_report.obj
 0001:0007fc34       strchr                     0000000180080c34 f   libvcruntime:strchr.obj
 0001:0007fcb4       wcschr                     0000000180080cb4 f   libvcruntime:wcschr.obj
 0001:0007fd30       strrchr                    0000000180080d30 f   libvcruntime:strrchr.obj
 0001:0007fe5c       _local_unwind              0000000180080e5c f   libvcruntime:jmpuwind.obj
 0001:0007fea0       memcmp                     0000000180080ea0 f   libvcruntime:memcmp.obj
 0001:0007ff67       RtlUnwind                  0000000180080f67 f   kernel32:KERNEL32.dll
 0001:0007ff80       _guard_dispatch_icall_nop  0000000180080f80 f   LIBCMT:guard_dispatch.obj
 0001:0007ffa0       _guard_xfg_dispatch_icall_nop 0000000180080fa0 f   LIBCMT:guard_xfg_dispatch.obj
 0002:00000000       __imp_LoadLibraryA         0000000180082000     kernel32:KERNEL32.dll
 0002:00000008       __imp_WriteConsoleW        0000000180082008     kernel32:KERNEL32.dll
 0002:00000010       __imp_RaiseException       0000000180082010     kernel32:KERNEL32.dll
 0002:00000018       __imp_GetLastError         0000000180082018     kernel32:KERNEL32.dll
 0002:00000020       __imp_GetSystemInfo        0000000180082020     kernel32:KERNEL32.dll
 0002:00000028       __imp_VirtualProtect       0000000180082028     kernel32:KERNEL32.dll
 0002:00000030       __imp_VirtualQuery         0000000180082030     kernel32:KERNEL32.dll
 0002:00000038       __imp_FreeLibrary          0000000180082038     kernel32:KERNEL32.dll
 0002:00000040       __imp_GetModuleHandleW     0000000180082040     kernel32:KERNEL32.dll
 0002:00000048       __imp_GetProcAddress       0000000180082048     kernel32:KERNEL32.dll
 0002:00000050       __imp_LoadLibraryExA       0000000180082050     kernel32:KERNEL32.dll
 0002:00000058       __imp_InitializeSListHead  0000000180082058     kernel32:KERNEL32.dll
 0002:00000060       __imp_QueryPerformanceCounter 0000000180082060     kernel32:KERNEL32.dll
 0002:00000068       __imp_GetCurrentProcessId  0000000180082068     kernel32:KERNEL32.dll
 0002:00000070       __imp_GetCurrentThreadId   0000000180082070     kernel32:KERNEL32.dll
 0002:00000078       __imp_GetSystemTimeAsFileTime 0000000180082078     kernel32:KERNEL32.dll
 0002:00000080       __imp_RtlCaptureContext    0000000180082080     kernel32:KERNEL32.dll
 0002:00000088       __imp_RtlLookupFunctionEntry 0000000180082088     kernel32:KERNEL32.dll
 0002:00000090       __imp_RtlVirtualUnwind     0000000180082090     kernel32:KERNEL32.dll
 0002:00000098       __imp_IsDebuggerPresent    0000000180082098     kernel32:KERNEL32.dll
 0002:000000a0       __imp_UnhandledExceptionFilter 00000001800820a0     kernel32:KERNEL32.dll
 0002:000000a8       __imp_SetUnhandledExceptionFilter 00000001800820a8     kernel32:KERNEL32.dll
 0002:000000b0       __imp_GetStartupInfoW      00000001800820b0     kernel32:KERNEL32.dll
 0002:000000b8       __imp_IsProcessorFeaturePresent 00000001800820b8     kernel32:KERNEL32.dll
 0002:000000c0       __imp_InterlockedPushEntrySList 00000001800820c0     kernel32:KERNEL32.dll
 0002:000000c8       __imp_InterlockedFlushSList 00000001800820c8     kernel32:KERNEL32.dll
 0002:000000d0       __imp_RtlUnwindEx          00000001800820d0     kernel32:KERNEL32.dll
 0002:000000d8       __imp_SetLastError         00000001800820d8     kernel32:KERNEL32.dll
 0002:000000e0       __imp_EnterCriticalSection 00000001800820e0     kernel32:KERNEL32.dll
 0002:000000e8       __imp_LeaveCriticalSection 00000001800820e8     kernel32:KERNEL32.dll
 0002:000000f0       __imp_DeleteCriticalSection 00000001800820f0     kernel32:KERNEL32.dll
 0002:000000f8       __imp_InitializeCriticalSectionAndSpinCount 00000001800820f8     kernel32:KERNEL32.dll
 0002:00000100       __imp_TlsAlloc             0000000180082100     kernel32:KERNEL32.dll
 0002:00000108       __imp_TlsGetValue          0000000180082108     kernel32:KERNEL32.dll
 0002:00000110       __imp_TlsSetValue          0000000180082110     kernel32:KERNEL32.dll
 0002:00000118       __imp_TlsFree              0000000180082118     kernel32:KERNEL32.dll
 0002:00000120       __imp_LoadLibraryExW       0000000180082120     kernel32:KERNEL32.dll
 0002:00000128       __imp_EncodePointer        0000000180082128     kernel32:KERNEL32.dll
 0002:00000130       __imp_RtlPcToFileHeader    0000000180082130     kernel32:KERNEL32.dll
 0002:00000138       __imp_GetCurrentProcess    0000000180082138     kernel32:KERNEL32.dll
 0002:00000140       __imp_ExitProcess          0000000180082140     kernel32:KERNEL32.dll
 0002:00000148       __imp_TerminateProcess     0000000180082148     kernel32:KERNEL32.dll
 0002:00000150       __imp_GetModuleHandleExW   0000000180082150     kernel32:KERNEL32.dll
 0002:00000158       __imp_GetModuleFileNameW   0000000180082158     kernel32:KERNEL32.dll
 0002:00000160       __imp_HeapFree             0000000180082160     kernel32:KERNEL32.dll
 0002:00000168       __imp_GetCurrentThread     0000000180082168     kernel32:KERNEL32.dll
 0002:00000170       __imp_HeapAlloc            0000000180082170     kernel32:KERNEL32.dll
 0002:00000178       __imp_FindClose            0000000180082178     kernel32:KERNEL32.dll
 0002:00000180       __imp_FindFirstFileExW     0000000180082180     kernel32:KERNEL32.dll
 0002:00000188       __imp_FindNextFileW        0000000180082188     kernel32:KERNEL32.dll
 0002:00000190       __imp_IsValidCodePage      0000000180082190     kernel32:KERNEL32.dll
 0002:00000198       __imp_GetACP               0000000180082198     kernel32:KERNEL32.dll
 0002:000001a0       __imp_GetOEMCP             00000001800821a0     kernel32:KERNEL32.dll
 0002:000001a8       __imp_GetCPInfo            00000001800821a8     kernel32:KERNEL32.dll
 0002:000001b0       __imp_GetCommandLineA      00000001800821b0     kernel32:KERNEL32.dll
 0002:000001b8       __imp_GetCommandLineW      00000001800821b8     kernel32:KERNEL32.dll
 0002:000001c0       __imp_MultiByteToWideChar  00000001800821c0     kernel32:KERNEL32.dll
 0002:000001c8       __imp_WideCharToMultiByte  00000001800821c8     kernel32:KERNEL32.dll
 0002:000001d0       __imp_GetEnvironmentStringsW 00000001800821d0     kernel32:KERNEL32.dll
 0002:000001d8       __imp_FreeEnvironmentStringsW 00000001800821d8     kernel32:KERNEL32.dll
 0002:000001e0       __imp_SetEnvironmentVariableW 00000001800821e0     kernel32:KERNEL32.dll
 0002:000001e8       __imp_GetDateFormatW       00000001800821e8     kernel32:KERNEL32.dll
 0002:000001f0       __imp_GetTimeFormatW       00000001800821f0     kernel32:KERNEL32.dll
 0002:000001f8       __imp_CompareStringW       00000001800821f8     kernel32:KERNEL32.dll
 0002:00000200       __imp_LCMapStringW         0000000180082200     kernel32:KERNEL32.dll
 0002:00000208       __imp_GetLocaleInfoW       0000000180082208     kernel32:KERNEL32.dll
 0002:00000210       __imp_IsValidLocale        0000000180082210     kernel32:KERNEL32.dll
 0002:00000218       __imp_GetUserDefaultLCID   0000000180082218     kernel32:KERNEL32.dll
 0002:00000220       __imp_EnumSystemLocalesW   0000000180082220     kernel32:KERNEL32.dll
 0002:00000228       __imp_GetProcessHeap       0000000180082228     kernel32:KERNEL32.dll
 0002:00000230       __imp_GetStdHandle         0000000180082230     kernel32:KERNEL32.dll
 0002:00000238       __imp_GetFileType          0000000180082238     kernel32:KERNEL32.dll
 0002:00000240       __imp_SetConsoleCtrlHandler 0000000180082240     kernel32:KERNEL32.dll
 0002:00000248       __imp_GetStringTypeW       0000000180082248     kernel32:KERNEL32.dll
 0002:00000250       __imp_HeapSize             0000000180082250     kernel32:KERNEL32.dll
 0002:00000258       __imp_HeapReAlloc          0000000180082258     kernel32:KERNEL32.dll
 0002:00000260       __imp_SetStdHandle         0000000180082260     kernel32:KERNEL32.dll
 0002:00000268       __imp_FlushFileBuffers     0000000180082268     kernel32:KERNEL32.dll
 0002:00000270       __imp_WriteFile            0000000180082270     kernel32:KERNEL32.dll
 0002:00000278       __imp_GetConsoleOutputCP   0000000180082278     kernel32:KERNEL32.dll
 0002:00000280       __imp_GetConsoleMode       0000000180082280     kernel32:KERNEL32.dll
 0002:00000288       __imp_GetFileSizeEx        0000000180082288     kernel32:KERNEL32.dll
 0002:00000290       __imp_SetFilePointerEx     0000000180082290     kernel32:KERNEL32.dll
 0002:00000298       __imp_ReadFile             0000000180082298     kernel32:KERNEL32.dll
 0002:000002a0       __imp_ReadConsoleW         00000001800822a0     kernel32:KERNEL32.dll
 0002:000002a8       __imp_OutputDebugStringW   00000001800822a8     kernel32:KERNEL32.dll
 0002:000002b0       __imp_CreateFileW          00000001800822b0     kernel32:KERNEL32.dll
 0002:000002b8       __imp_CloseHandle          00000001800822b8     kernel32:KERNEL32.dll
 0002:000002c0       __imp_RtlUnwind            00000001800822c0     kernel32:KERNEL32.dll
 0002:000002c8       \177KERNEL32_NULL_THUNK_DATA 00000001800822c8     kernel32:KERNEL32.dll
 0002:000002d0       __guard_check_icall_fptr   00000001800822d0     LIBCMT:guard_support.obj
 0002:000002d8       __guard_xfg_check_icall_fptr 00000001800822d8     LIBCMT:guard_support.obj
 0002:000002e0       __guard_dispatch_icall_fptr 00000001800822e0     LIBCMT:guard_support.obj
 0002:000002e8       __guard_xfg_dispatch_icall_fptr 00000001800822e8     LIBCMT:guard_support.obj
 0002:000002f0       __guard_xfg_table_dispatch_icall_fptr 00000001800822f0     LIBCMT:guard_support.obj
 0002:000002f8       __xc_a                     00000001800822f8     LIBCMT:initializers.obj
 0002:00000480       __xc_z                     0000000180082480     LIBCMT:initializers.obj
 0002:00000488       __xi_a                     0000000180082488     LIBCMT:initializers.obj
 0002:00000490       __acrt_tran_fma3_initializer 0000000180082490     libucrt:fma3_initializer.obj
 0002:00000498       __acrt_multibyte_initializer 0000000180082498     libucrt:multibyte_initializer.obj
 0002:000004a0       __acrt_stdio_initializer   00000001800824a0     libucrt:stdio_initializer.obj
 0002:000004a8       __xi_z                     00000001800824a8     LIBCMT:initializers.obj
 0002:000004b0       __xp_a                     00000001800824b0     LIBCMT:initializers.obj
 0002:000004b8       __acrt_locale_terminator   00000001800824b8     libucrt:locale_initializer.obj
 0002:000004c0       __dcrt_console_output_terminator 00000001800824c0     libucrt:console_output_initializer.obj
 0002:000004c8       __acrt_stdio_terminator    00000001800824c8     libucrt:stdio_initializer.obj
 0002:000004d0       __xp_z                     00000001800824d0     LIBCMT:initializers.obj
 0002:000004d8       __xt_a                     00000001800824d8     LIBCMT:initializers.obj
 0002:000004e0       __xt_z                     00000001800824e0     LIBCMT:initializers.obj
 0002:000004f0       ??_C@_0N@PENLEBPP@PxFoundation@ 00000001800824f0     WindowsCookingDelayLoadHook.obj
 0002:00000500       ??_C@_05KOLFGEDA@DEBUG@    0000000180082500     WindowsCookingDelayLoadHook.obj
 0002:00000508       ??_C@_07KELMHNNG@CHECKED@  0000000180082508     WindowsCookingDelayLoadHook.obj
 0002:00000510       ??_C@_07EAJOOGMN@PROFILE@  0000000180082510     WindowsCookingDelayLoadHook.obj
 0002:00000518       ??_C@_0N@BBNMPFJK@PhysX3Common@ 0000000180082518     WindowsCookingDelayLoadHook.obj
 0002:00000528       ??_C@_08DLKLOFHK@PxPvdSDK@ 0000000180082528     WindowsCookingDelayLoadHook.obj
 0002:00000540       ?g_PXSinCoefficients0@aos@shdfnd@physx@@3UPX_VECTORF32@123@B 0000000180082540     RTreeCooking.obj
 0002:00000550       ?g_PXSinCoefficients1@aos@shdfnd@physx@@3UPX_VECTORF32@123@B 0000000180082550     RTreeCooking.obj
 0002:00000560       ?g_PXSinCoefficients2@aos@shdfnd@physx@@3UPX_VECTORF32@123@B 0000000180082560     RTreeCooking.obj
 0002:00000570       ?g_PXCosCoefficients0@aos@shdfnd@physx@@3UPX_VECTORF32@123@B 0000000180082570     RTreeCooking.obj
 0002:00000580       ?g_PXCosCoefficients1@aos@shdfnd@physx@@3UPX_VECTORF32@123@B 0000000180082580     RTreeCooking.obj
 0002:00000590       ?g_PXCosCoefficients2@aos@shdfnd@physx@@3UPX_VECTORF32@123@B 0000000180082590     RTreeCooking.obj
 0002:000005a0       ?g_PXTanCoefficients0@aos@shdfnd@physx@@3UPX_VECTORF32@123@B 00000001800825a0     RTreeCooking.obj
 0002:000005b0       ?g_PXTanCoefficients1@aos@shdfnd@physx@@3UPX_VECTORF32@123@B 00000001800825b0     RTreeCooking.obj
 0002:000005c0       ?g_PXTanCoefficients2@aos@shdfnd@physx@@3UPX_VECTORF32@123@B 00000001800825c0     RTreeCooking.obj
 0002:000005d0       ?g_PXASinCoefficients0@aos@shdfnd@physx@@3UPX_VECTORF32@123@B 00000001800825d0     RTreeCooking.obj
 0002:000005e0       ?g_PXASinCoefficients1@aos@shdfnd@physx@@3UPX_VECTORF32@123@B 00000001800825e0     RTreeCooking.obj
 0002:000005f0       ?g_PXASinCoefficients2@aos@shdfnd@physx@@3UPX_VECTORF32@123@B 00000001800825f0     RTreeCooking.obj
 0002:00000600       ?g_PXATanCoefficients0@aos@shdfnd@physx@@3UPX_VECTORF32@123@B 0000000180082600     RTreeCooking.obj
 0002:00000610       ?g_PXATanCoefficients1@aos@shdfnd@physx@@3UPX_VECTORF32@123@B 0000000180082610     RTreeCooking.obj
 0002:00000620       ?g_PXATanCoefficients2@aos@shdfnd@physx@@3UPX_VECTORF32@123@B 0000000180082620     RTreeCooking.obj
 0002:00000630       ?g_PXSinEstCoefficients@aos@shdfnd@physx@@3UPX_VECTORF32@123@B 0000000180082630     RTreeCooking.obj
 0002:00000640       ?g_PXCosEstCoefficients@aos@shdfnd@physx@@3UPX_VECTORF32@123@B 0000000180082640     RTreeCooking.obj
 0002:00000650       ?g_PXTanEstCoefficients@aos@shdfnd@physx@@3UPX_VECTORF32@123@B 0000000180082650     RTreeCooking.obj
 0002:00000660       ?g_PXATanEstCoefficients@aos@shdfnd@physx@@3UPX_VECTORF32@123@B 0000000180082660     RTreeCooking.obj
 0002:00000670       ?g_PXASinEstCoefficients@aos@shdfnd@physx@@3UPX_VECTORF32@123@B 0000000180082670     RTreeCooking.obj
 0002:00000680       ?g_PXASinEstConstants@aos@shdfnd@physx@@3UPX_VECTORF32@123@B 0000000180082680     RTreeCooking.obj
 0002:00000690       ?g_PXPiConstants0@aos@shdfnd@physx@@3UPX_VECTORF32@123@B 0000000180082690     RTreeCooking.obj
 0002:000006a0       ?g_PXReciprocalTwoPi@aos@shdfnd@physx@@3UPX_VECTORF32@123@B 00000001800826a0     RTreeCooking.obj
 0002:000006b0       ?g_PXTwoPi@aos@shdfnd@physx@@3UPX_VECTORF32@123@B 00000001800826b0     RTreeCooking.obj
 0002:000006e0       ?reductionFactors@SubSortQuick@physx@@2QBMB 00000001800826e0     RTreeCooking.obj
 0002:000006f0       ?stopAtTrisPerLeaf1@SubSortQuick@physx@@2QBIB 00000001800826f0     RTreeCooking.obj
 0002:00000798       ??_C@_0BA@DLCJDKDM@NonTrackedAlloc@ 0000000180082798     RTreeCooking.obj
 0002:000007b0       ??_C@_0EJ@DBMOGMKL@e?3?2SDK?2PhysX?93?44?2PhysX_3?44?2Sour@ 00000001800827b0     RTreeCooking.obj
 0002:00000800       ??_C@_0DL@MEHDCEAA@e?3?2SDK?2PhysX?93?44?2PxShared?2src?2f@ 0000000180082800     RTreeCooking.obj
 0002:00000840       ??_C@_0BM@OIFKLHDN@?$DMallocation?5names?5disabled?$DO@ 0000000180082840     RTreeCooking.obj
 0002:00000860       ??_C@_0DK@LGBJLKCK@e?3?2SDK?2PhysX?93?44?2PxShared?2src?2f@ 0000000180082860     RTreeCooking.obj
 0002:000008a0       ??_C@_0ED@HPPOCHDL@e?3?2SDK?2PhysX?93?44?2PxShared?2src?2f@ 00000001800828a0     RTreeCooking.obj
 0002:000008e4       __real@37800080            00000001800828e4     RTreeCooking.obj
 0002:000008e8       __real@41100000            00000001800828e8     RTreeCooking.obj
 0002:000008ec       __real@41700000            00000001800828ec     RTreeCooking.obj
 0002:000008f0       __real@42200000            00000001800828f0     RTreeCooking.obj
 0002:000008f4       __real@7f7fffff            00000001800828f4     RTreeCooking.obj
 0002:000008f8       __real@fe7fffff            00000001800828f8     RTreeCooking.obj
 0002:000008fc       __real@ff7fffff            00000001800828fc     RTreeCooking.obj
 0002:00000900       __xmm@000000003a83126f3a83126f3a83126f 0000000180082900     RTreeCooking.obj
 0002:00000910       __xmm@00000000ba83126fba83126fba83126f 0000000180082910     RTreeCooking.obj
 0002:00000920       __xmm@00000004000000030000000200000001 0000000180082920     RTreeCooking.obj
 0002:00000930       __xmm@3a03126f3a03126f3a03126f3a03126f 0000000180082930     RTreeCooking.obj
 0002:00000940       __xmm@3a83126f3a83126f3a83126f3a83126f 0000000180082940     RTreeCooking.obj
 0002:00000950       __xmm@7f7fffff7f7fffff7f7fffff7f7fffff 0000000180082950     RTreeCooking.obj
 0002:00000960       __xmm@ba83126fba83126fba83126fba83126f 0000000180082960     RTreeCooking.obj
 0002:00000970       __xmm@fe7fffff7e7fffff7e7fffff7e7fffff 0000000180082970     RTreeCooking.obj
 0002:00000980       __xmm@ff7fffffff7fffffff7fffffff7fffff 0000000180082980     RTreeCooking.obj
 0002:000009b0       ??_7TriangleMeshData@Gu@physx@@6B@ 00000001800829b0     TriangleMeshBuilder.obj
 0002:000009c0       ??_C@_0EC@IOPEACI@e?3?2SDK?2PhysX?93?44?2PhysX_3?44?2Sour@ 00000001800829c0     TriangleMeshBuilder.obj
 0002:00000a08       ??_7RTreeTriangleData@Gu@physx@@6B@ 0000000180082a08     TriangleMeshBuilder.obj
 0002:00000a10       ??_7BV4TriangleData@Gu@physx@@6B@ 0000000180082a10     TriangleMeshBuilder.obj
 0002:00000a18       ??_7RemapCallback@RTreeCooker@physx@@6B@ 0000000180082a18     TriangleMeshBuilder.obj
 0002:00000a28       ??_7TriangleMeshBuilder@physx@@6B@ 0000000180082a28     TriangleMeshBuilder.obj
 0002:00000a50       ??_7RTreeTriangleMeshBuilder@physx@@6B@ 0000000180082a50     TriangleMeshBuilder.obj
 0002:00000a78       ??_7BV4TriangleMeshBuilder@physx@@6B@ 0000000180082a78     TriangleMeshBuilder.obj
 0002:00000aa0       ??_C@_0FB@LLLLMEHH@e?3?2SDK?2PhysX?93?44?2PhysX_3?44?2Sour@ 0000000180082aa0     TriangleMeshBuilder.obj
 0002:00000b00       ??_C@_0FA@IPGFCFKI@e?3?2SDK?2PhysX?93?44?2PhysX_3?44?2Sour@ 0000000180082b00     TriangleMeshBuilder.obj
 0002:00000b50       ??_C@_0DJ@IGODLHLP@TriangleMesh?3?5Enable?5mesh?5weldi@ 0000000180082b50     TriangleMeshBuilder.obj
 0002:00000b90       ??_C@_0FJ@HHJLKGDF@TriangleMesh?3?5triangles?5are?5too@ 0000000180082b90     TriangleMeshBuilder.obj
 0002:00000bf0       ??_C@_0CN@KGPHHHLK@TriangleMesh?3?5mesh?5is?5too?5big?5f@ 0000000180082bf0     TriangleMeshBuilder.obj
 0002:00000c20       ??_C@_0DD@CMJGDCNN@TriangleMesh?3?3loadFromDesc?3?5des@ 0000000180082c20     TriangleMeshBuilder.obj
 0002:00000c60       ??_C@_0ED@ILJJNHIP@TriangleMesh?3?3loadFromDesc?3?5mPa@ 0000000180082c60     TriangleMeshBuilder.obj
 0002:00000ca8       ??_C@_0BJ@BKHDBBHO@cleaning?5the?5mesh?5failed@ 0000000180082ca8     TriangleMeshBuilder.obj
 0002:00000cc8       ??_C@_0BK@JIDHMMCE@BV4?5tree?5failed?5to?5build?4@ 0000000180082cc8     TriangleMeshBuilder.obj
 0002:00000ce8       ??_C@_0BL@DHNECNBE@BV32?5tree?5failed?5to?5build?4@ 0000000180082ce8     TriangleMeshBuilder.obj
 0002:00000d08       ??_7RTreeCookerRemap@physx@@6B@ 0000000180082d08     TriangleMeshBuilder.obj
 0002:00000d18       __real@34800000            0000000180082d18     TriangleMeshBuilder.obj
 0002:00000d1c       __real@3951b717            0000000180082d1c     TriangleMeshBuilder.obj
 0002:00000d20       __real@3dcccccd            0000000180082d20     TriangleMeshBuilder.obj
 0002:00000d24       __real@3f800000            0000000180082d24     TriangleMeshBuilder.obj
 0002:00000d28       __real@48742400            0000000180082d28     TriangleMeshBuilder.obj
 0002:00000d30       __xmm@00000003000000020000000100000000 0000000180082d30     TriangleMeshBuilder.obj
 0002:00000d40       __xmm@7fffffff7fffffff7fffffff7fffffff 0000000180082d40     TriangleMeshBuilder.obj
 0002:00000d50       __xmm@80000000800000008000000080000000 0000000180082d50     TriangleMeshBuilder.obj
 0002:00000d80       ??_C@_0FD@DPCHBGFH@e?3?2SDK?2PhysX?93?44?2PhysX_3?44?2Sour@ 0000000180082d80     BigConvexDataBuilder.obj
 0002:00000dd4       __real@40000000            0000000180082dd4     BigConvexDataBuilder.obj
 0002:00000e00       ??_C@_0FA@BNNLMHMN@e?3?2SDK?2PhysX?93?44?2PhysX_3?44?2Sour@ 0000000180082e00     ConvexHullBuilder.obj
 0002:00000e50       ??_C@_0EB@DCEIFDGC@ConvexHullBuilder?3?3init?3?5convex@ 0000000180082e50     ConvexHullBuilder.obj
 0002:00000ea0       ??_C@_0FM@KICBLCBH@Gu?3?3ConvexMesh?3?3checkHullPolygo@ 0000000180082ea0     ConvexHullBuilder.obj
 0002:00000f00       ??_C@_0GO@HBFIOGLL@Gu?3?3ConvexMesh?3?3checkHullPolygo@ 0000000180082f00     ConvexHullBuilder.obj
 0002:00000f70       ??_C@_0HF@OLJFBIEL@ConvexHullBuilder?3?5convex?5hull?5@ 0000000180082f70     ConvexHullBuilder.obj
 0002:00000ff0       ??_C@_0OG@JNHFOIL@ConvexHullBuilder?3?5convex?5hull?5@ 0000000180082ff0     ConvexHullBuilder.obj
 0002:000010e0       ??_C@_0EJ@NIOIBAKH@Cooking?3?3cookConvexMesh?3?5non?9ma@ 00000001800830e0     ConvexHullBuilder.obj
 0002:0000112c       __real@3ca3d70a            000000018008312c     ConvexHullBuilder.obj
 0002:00001130       __real@3eaaaaab            0000000180083130     ConvexHullBuilder.obj
 0002:00001134       __real@3f000000            0000000180083134     ConvexHullBuilder.obj
 0002:00001138       ??_7ConvexHullLib@physx@@6B@ 0000000180083138     ConvexHullLib.obj
 0002:00001160       ??_C@_0EM@GKMCPPP@e?3?2SDK?2PhysX?93?44?2PhysX_3?44?2Sour@ 0000000180083160     ConvexHullLib.obj
 0002:000011ac       __real@358637bd            00000001800831ac     ConvexHullLib.obj
 0002:000011b0       __real@3a83126f            00000001800831b0     ConvexHullLib.obj
 0002:000011b4       __real@3c23d70a            00000001800831b4     ConvexHullLib.obj
 0002:000011b8       __real@3d4ccccd            00000001800831b8     ConvexHullLib.obj
 0002:000011e0       ??_C@_0EO@INKICLGD@e?3?2SDK?2PhysX?93?44?2PhysX_3?44?2Sour@ 00000001800831e0     ConvexHullUtils.obj
 0002:00001230       __real@3e20d97c            0000000180083230     ConvexHullUtils.obj
 0002:00001234       __real@4e6e6b28            0000000180083234     ConvexHullUtils.obj
 0002:00001240       __xmm@00800000008000000080000000800000 0000000180083240     ConvexHullUtils.obj
 0002:00001250       __xmm@3f0000003f0000003f0000003f000000 0000000180083250     ConvexHullUtils.obj
 0002:00001260       __xmm@bf000000bf000000bf000000bf000000 0000000180083260     ConvexHullUtils.obj
 0002:00001290       ??_C@_0DF@LLFJIJGM@Gu?3?3ConvexMesh?3?3loadFromDesc?3?5d@ 0000000180083290     ConvexMeshBuilder.obj
 0002:000012d0       ??_C@_0FA@NDHPGHJI@e?3?2SDK?2PhysX?93?44?2PhysX_3?44?2Sour@ 00000001800832d0     ConvexMeshBuilder.obj
 0002:00001320       ??_C@_0HK@JOGKIEAA@Gu?3?3ConvexMesh?3?5Mesh?5has?5a?5nega@ 0000000180083320     ConvexMeshBuilder.obj
 0002:000013a0       ??_C@_0DH@NJPPHFFD@Gu?3?3ConvexMesh?3?5Error?5computing@ 00000001800833a0     ConvexMeshBuilder.obj
 0002:000013d8       ??_C@_0DJ@LJDLGLDJ@Gu?3?3ConvexMesh?3?3loadConvexHull?3@ 00000001800833d8     ConvexMeshBuilder.obj
 0002:00001420       ??_C@_0HJ@KJANPPOE@ConvexMeshBuilder?3?3computeHullP@ 0000000180083420     ConvexMeshBuilder.obj
 0002:0000149c       ??_C@_06KDGGGLIJ@PxVec3@   000000018008349c     ConvexMeshBuilder.obj
 0002:000014a4       ??_C@_05LMJPANIN@PxU32@    00000001800834a4     ConvexMeshBuilder.obj
 0002:000014b0       ??_C@_0O@JMAGMMGG@PxHullPolygon@ 00000001800834b0     ConvexMeshBuilder.obj
 0002:000014c0       __real@33d6bf95            00000001800834c0     ConvexMeshBuilder.obj
 0002:000014c4       __real@3f13cd3a            00000001800834c4     ConvexMeshBuilder.obj
 0002:000014c8       __real@b3d6bf95            00000001800834c8     ConvexMeshBuilder.obj
 0002:000014cc       __real@bf800000            00000001800834cc     ConvexMeshBuilder.obj
 0002:000014d0       __xmm@80000000000000008000000000000000 00000001800834d0     ConvexMeshBuilder.obj
 0002:000014e0       ??_C@_0DP@PJBJBEGF@Meshmerizer?3?3extractHullPolygon@ 00000001800834e0     ConvexPolygonsBuilder.obj
 0002:00001520       ??_C@_0FE@HBJOFLAO@e?3?2SDK?2PhysX?93?44?2PhysX_3?44?2Sour@ 0000000180083520     ConvexPolygonsBuilder.obj
 0002:00001578       ??_C@_0DL@IAFKOCCK@ConvexHullBuilder?3?5convex?5hull?5@ 0000000180083578     ConvexPolygonsBuilder.obj
 0002:000015c0       ??_C@_0GF@OJLJHAMH@ConvexHullBuilder?3?3CreateTriang@ 00000001800835c0     ConvexPolygonsBuilder.obj
 0002:00001628       __real@3ba3d70a            0000000180083628     ConvexPolygonsBuilder.obj
 0002:00001630       ??_7InflationConvexHullLib@physx@@6B@ 0000000180083630     InflationConvexHullLib.obj
 0002:00001650       ??_C@_0FF@BCILLDCK@e?3?2SDK?2PhysX?93?44?2PhysX_3?44?2Sour@ 0000000180083650     InflationConvexHullLib.obj
 0002:000016a8       __real@1e3ce508            00000001800836a8     InflationConvexHullLib.obj
 0002:000016ac       __real@33d6bf97            00000001800836ac     InflationConvexHullLib.obj
 0002:000016b0       __real@3c8efa35            00000001800836b0     InflationConvexHullLib.obj
 0002:000016b4       __real@3ccccccd            00000001800836b4     InflationConvexHullLib.obj
 0002:000016b8       __real@3e800000            00000001800836b8     InflationConvexHullLib.obj
 0002:000016bc       __real@3f7fa62f            00000001800836bc     InflationConvexHullLib.obj
 0002:000016c0       __real@40a00000            00000001800836c0     InflationConvexHullLib.obj
 0002:000016c4       __real@42340000            00000001800836c4     InflationConvexHullLib.obj
 0002:000016c8       __real@43b40000            00000001800836c8     InflationConvexHullLib.obj
 0002:000016cc       __real@9e3ce508            00000001800836cc     InflationConvexHullLib.obj
 0002:000016d0       __real@bca3d70a            00000001800836d0     InflationConvexHullLib.obj
 0002:000016d4       __real@bf000000            00000001800836d4     InflationConvexHullLib.obj
 0002:000016d8       __real@bf7fa62f            00000001800836d8     InflationConvexHullLib.obj
 0002:000016e0       __xmm@3ca3d70a3c23d70abc23d70a3f800000 00000001800836e0     InflationConvexHullLib.obj
 0002:000016f0       __xmm@bca3d70a3c23d70a3ca3d70a3f800000 00000001800836f0     InflationConvexHullLib.obj
 0002:00001700       ??_7QuickHullConvexHullLib@physx@@6B@ 0000000180083700     QuickHullConvexHullLib.obj
 0002:00001720       ??_C@_0FF@MEIJIEI@e?3?2SDK?2PhysX?93?44?2PhysX_3?44?2Sour@ 0000000180083720     QuickHullConvexHullLib.obj
 0002:00001780       ??_C@_0GA@EPPAEJPM@QuickHullConvexHullLib?3?3findSim@ 0000000180083780     QuickHullConvexHullLib.obj
 0002:000017e0       ??_C@_0FB@NEBIJMML@QuickHullConvexHullLib?3?3findSim@ 00000001800837e0     QuickHullConvexHullLib.obj
 0002:00001840       ??_C@_0FB@CLLCBEMM@QuickHullConvexHullLib?3?3findSim@ 0000000180083840     QuickHullConvexHullLib.obj
 0002:00001894       __real@34c00000            0000000180083894     QuickHullConvexHullLib.obj
 0002:00001898       __real@42c80000            0000000180083898     QuickHullConvexHullLib.obj
 0002:000018c0       __real@00000000            00000001800838c0     VolumeIntegration.obj
 0002:000018c8       __real@3f91111111111111    00000001800838c8     VolumeIntegration.obj
 0002:000018d0       __real@3fa5555555555555    00000001800838d0     VolumeIntegration.obj
 0002:000018d8       __real@3fa999999999999a    00000001800838d8     VolumeIntegration.obj
 0002:000018e0       __real@3fb5555555555555    00000001800838e0     VolumeIntegration.obj
 0002:000018e8       __real@3fc5555555555555    00000001800838e8     VolumeIntegration.obj
 0002:000018f0       __real@3fd5555555555555    00000001800838f0     VolumeIntegration.obj
 0002:000018f8       __real@3fe0000000000000    00000001800838f8     VolumeIntegration.obj
 0002:00001900       __real@3ff0000000000000    0000000180083900     VolumeIntegration.obj
 0002:00001908       __real@4008000000000000    0000000180083908     VolumeIntegration.obj
 0002:00001910       __real@4010000000000000    0000000180083910     VolumeIntegration.obj
 0002:00001918       __real@bf91111111111111    0000000180083918     VolumeIntegration.obj
 0002:00001920       __real@bfa999999999999a    0000000180083920     VolumeIntegration.obj
 0002:00001928       __real@bfb5555555555555    0000000180083928     VolumeIntegration.obj
 0002:00001930       __real@bfc5555555555555    0000000180083930     VolumeIntegration.obj
 0002:00001940       __xmm@3c0888893c0888893c0888893c088889 0000000180083940     VolumeIntegration.obj
 0002:00001950       __xmm@3c8888893c8888893c8888893c888889 0000000180083950     VolumeIntegration.obj
 0002:00001960       __xmm@3d2aaaab3d2aaaab3d2aaaab3d2aaaab 0000000180083960     VolumeIntegration.obj
 0002:00001970       __xmm@3e2aaaab3e2aaaab3e2aaaab3e2aaaab 0000000180083970     VolumeIntegration.obj
 0002:00001980       __xmm@3f811111111111113f81111111111111 0000000180083980     VolumeIntegration.obj
 0002:00001990       __xmm@3f811111111111113f91111111111111 0000000180083990     VolumeIntegration.obj
 0002:000019a0       __xmm@3f911111111111113f91111111111111 00000001800839a0     VolumeIntegration.obj
 0002:000019b0       __xmm@3fa55555555555553fa5555555555555 00000001800839b0     VolumeIntegration.obj
 0002:000019c0       __xmm@3fa55555555555553fc5555555555555 00000001800839c0     VolumeIntegration.obj
 0002:000019d0       ??_C@_0DC@DMHHONHL@Adjacencies?3?3GetBoundaryVertice@ 00000001800839d0     Adjacencies.obj
 0002:00001a10       ??_C@_0ED@LNCINHKM@e?3?2SDK?2PhysX?93?44?2PhysX_3?44?2Sour@ 0000000180083a10     Adjacencies.obj
 0002:00001a58       ??_C@_0CK@KKNAOLHI@Adjacencies?3?3MakeLastRef?3?5NULL?5@ 0000000180083a58     Adjacencies.obj
 0002:00001a88       ??_C@_0DA@FMEHLBKI@Adjacencies?3?3UpdateLink?3?5invali@ 0000000180083a88     Adjacencies.obj
 0002:00001ac0       ??_C@_0EA@CPHOACLK@Adjacencies?3?3CreateDatabase?3?5ca@ 0000000180083ac0     Adjacencies.obj
 0002:00001b20       ??_7PxCooking@physx@@6B@   0000000180083b20     Cooking.obj
 0002:00001b90       ??_7Cooking@physx@@6B@     0000000180083b90     Cooking.obj
 0002:00001c00       ??_C@_0FC@PJIHAFK@Cooking?3?3validateTriangleMesh?3?5@ 0000000180083c00     Cooking.obj
 0002:00001c58       ??_C@_0DP@DEEPIGLO@e?3?2SDK?2PhysX?93?44?2PhysX_3?44?2Sour@ 0000000180083c58     Cooking.obj
 0002:00001ca0       ??_C@_0EK@EKAIJEBL@Cooking?3?3cookConvexMesh?3?5user?9p@ 0000000180083ca0     Cooking.obj
 0002:00001cf0       ??_C@_0FA@GFFGAPML@Cooking?3?3cookConvexMesh?3?5provid@ 0000000180083cf0     Cooking.obj
 0002:00001d40       ??_C@_0EP@PKDCPNNO@Cooking?3?3cookConvexMesh?3?5provid@ 0000000180083d40     Cooking.obj
 0002:00001d90       ??_C@_0EO@LKFMMDE@Cooking?3?3cookConvexMesh?3?5user?9p@ 0000000180083d90     Cooking.obj
 0002:00001de0       __real@7e7fffff            0000000180083de0     Cooking.obj
 0002:00001df0       ??_C@_0EE@DLBEMLE@e?3?2SDK?2PhysX?93?44?2PhysX_3?44?2Sour@ 0000000180083df0     CookingUtils.obj
 0002:00001e40       ??_C@_0EA@GIEHDLOO@e?3?2SDK?2PhysX?93?44?2PhysX_3?44?2Sour@ 0000000180083e40     EdgeList.obj
 0002:00001e80       ??_C@_0CO@GBNJFPN@EdgeList?3?3CreateFacesToEdges?3?5N@ 0000000180083e80     EdgeList.obj
 0002:00001eb0       ??_C@_0CO@EHJBBMNK@EdgeList?3?3ComputeActiveEdges?3?5N@ 0000000180083eb0     EdgeList.obj
 0002:00001ee0       ??_C@_0DI@GBHLFOFP@ActiveEdges?3?3ComputeConvexEdges@ 0000000180083ee0     EdgeList.obj
 0002:00001f18       ??_C@_0DM@JOGBLHDI@ActiveEdges?3?3ComputeConvexEdges@ 0000000180083f18     EdgeList.obj
 0002:00001f60       ??_C@_0ED@FEMJKPEL@ActiveEdges?3?3ComputeConvexEdges@ 0000000180083f60     EdgeList.obj
 0002:00001fb0       ??_C@_0EB@BFDPMFCD@ActiveEdges?3?3ComputeConvexEdges@ 0000000180083fb0     EdgeList.obj
 0002:00001ff4       __real@bf7fbe77            0000000180083ff4     EdgeList.obj
 0002:00002000       ??_C@_0ED@JIHDPKPI@e?3?2SDK?2PhysX?93?44?2PhysX_3?44?2Sour@ 0000000180084000     MeshCleaner.obj
 0002:00002048       ??_7Quantizer@physx@@6B@   0000000180084048     Quantizer.obj
 0002:00002070       ??_7QuantizerImpl@@6B@     0000000180084070     Quantizer.obj
 0002:000020a0       ??_C@_0EB@IODHPNKG@e?3?2SDK?2PhysX?93?44?2PhysX_3?44?2Sour@ 00000001800840a0     Quantizer.obj
 0002:000020e4       __real@38d1b717            00000001800840e4     Quantizer.obj
 0002:000020e8       __real@3f0020c5            00000001800840e8     Quantizer.obj
 0002:000020ec       __real@3f8020c5            00000001800840ec     Quantizer.obj
 0002:000020f0       __sz_PxFoundation_x64_dll  00000001800840f0     PxFoundation_x64:PxFoundation_x64.dll
 0002:00002110       __sz_PhysX3Common_x64_dll  0000000180084110     PhysX3Common_x64:PhysX3Common_x64.dll
 0002:00002128       ??_C@_1BK@DBDEIDLH@?$AAK?$AAE?$AAR?$AAN?$AAE?$AAL?$AA3?$AA2?$AA?4?$AAD?$AAL?$AAL@ 0000000180084128     delayimp:delayhlp.obj
 0002:00002148       ??_C@_0BI@OMNLIJDB@AcquireSRWLockExclusive@ 0000000180084148     delayimp:delayhlp.obj
 0002:00002160       ??_C@_0BI@HMIEPCNJ@ReleaseSRWLockExclusive@ 0000000180084160     delayimp:delayhlp.obj
 0002:00002178       __pfnDliFailureHook2       0000000180084178     delayimp:delayhk1.obj
 0002:00002188       ??_7type_info@@6B@         0000000180084188     LIBCMT:std_type_info_static.obj
 0002:000021f0       _pDefaultRawDllMain        00000001800841f0     LIBCMT:dll_dllmain.obj
 0002:000021f0       _pRawDllMain               00000001800841f0     LIBCMT:dll_dllmain.obj
 0002:00002200       _load_config_used          0000000180084200     LIBCMT:loadcfg.obj
 0002:00002340       __xmm@ffffffffffffffffffffffffffffffff 0000000180084340     LIBCMT:utility.obj
 0002:00002350       _pDestructExceptionObject  0000000180084350     libvcruntime:ehhelpers.obj
 0002:00002a60       ??_C@_08EHJDFFNH@__based?$CI@ 0000000180084a60     libvcruntime:undname.obj
 0002:00002a70       ??_C@_07KOLFKCDI@__cdecl@  0000000180084a70     libvcruntime:undname.obj
 0002:00002a78       ??_C@_08GHMPAG@__pascal@   0000000180084a78     libvcruntime:undname.obj
 0002:00002a88       ??_C@_09IFJBGAPI@__stdcall@ 0000000180084a88     libvcruntime:undname.obj
 0002:00002a98       ??_C@_0L@NPHFGOKO@__thiscall@ 0000000180084a98     libvcruntime:undname.obj
 0002:00002aa8       ??_C@_0L@JMKHOMEK@__fastcall@ 0000000180084aa8     libvcruntime:undname.obj
 0002:00002ab8       ??_C@_0N@BCKKPABJ@__vectorcall@ 0000000180084ab8     libvcruntime:undname.obj
 0002:00002ac8       ??_C@_09HIJEGCPM@__clrcall@ 0000000180084ac8     libvcruntime:undname.obj
 0002:00002ad4       ??_C@_06GHPCKEAG@__eabi@   0000000180084ad4     libvcruntime:undname.obj
 0002:00002ae0       ??_C@_09IOPIDJLG@__swift_1@ 0000000180084ae0     libvcruntime:undname.obj
 0002:00002af0       ??_C@_09KFNFGKHF@__swift_2@ 0000000180084af0     libvcruntime:undname.obj
 0002:00002b00       ??_C@_07JOMMBBKO@__ptr64@  0000000180084b00     libvcruntime:undname.obj
 0002:00002b08       ??_C@_0L@PILCLIHE@__restrict@ 0000000180084b08     libvcruntime:undname.obj
