 PhysX3Common_x64

 Timestamp is 615660a3 (Thu Sep 30 21:13:07 2021)

 Preferred load address is 0000000180000000

 Start         Length     Name                   Class
 0001:00000000 00002920H .text$di                CODE
 0001:00002920 001a1990H .text$mn                CODE
 0001:001a42b0 00000040H .text$mn$00             CODE
 0001:001a42f0 000009f0H .text$x                 CODE
 0002:00000000 000002d0H .idata$5                DATA
 0002:000002d0 00000028H .00cfg                  DATA
 0002:000002f8 00000008H .CRT$XCA                DATA
 0002:00000300 00001458H .CRT$XCU                DATA
 0002:00001758 00000008H .CRT$XCZ                DATA
 0002:00001760 00000008H .CRT$XIA                DATA
 0002:00001768 00000018H .CRT$XIC                DATA
 0002:00001780 00000008H .CRT$XIZ                DATA
 0002:00001788 00000008H .CRT$XPA                DATA
 0002:00001790 00000010H .CRT$XPX                DATA
 0002:000017a0 00000008H .CRT$XPXA               DATA
 0002:000017a8 00000008H .CRT$XPZ                DATA
 0002:000017b0 00000008H .CRT$XTA                DATA
 0002:000017b8 00000008H .CRT$XTZ                DATA
 0002:000017c0 00000000H .gehcont$y              DATA
 0002:000017c0 00000000H .gfids$y                DATA
 0002:000017c0 0000f340H .rdata                  DATA
 0002:00010b00 00000008H .rdata$CastGuardVftablesA DATA
 0002:00010b08 00000008H .rdata$CastGuardVftablesC DATA
 0002:00010b10 00000464H .rdata$r                DATA
 0002:00010f74 000002b8H .rdata$voltmd           DATA
 0002:0001122c 00000444H .rdata$zzzdbg           DATA
 0002:00011670 00000008H .rtc$IAA                DATA
 0002:00011678 00000008H .rtc$IZZ                DATA
 0002:00011680 00000008H .rtc$TAA                DATA
 0002:00011688 00000008H .rtc$TZZ                DATA
 0002:00011690 000138f0H .xdata                  DATA
 0002:00024f80 00000084H .xdata$x                DATA
 0002:00025004 00000020H .didat$2                DATA
 0002:00025024 00000024H .didat$3                DATA
 0002:00025048 00000088H .didat$4                DATA
 0002:000250d0 00000308H .didat$6                DATA
 0002:000253d8 00000088H .didat$7                DATA
 0002:00025460 0000a424H .edata                  DATA
 0002:0002f884 00000014H .idata$2                DATA
 0002:0002f898 00000018H .idata$3                DATA
 0002:0002f8b0 000002d0H .idata$4                DATA
 0002:0002fb80 00000694H .idata$6                DATA
 0003:00000000 000014b0H .data                   DATA
 0003:000014b0 00000500H .data$r                 DATA
 0003:000019b0 000000f0H .data$rs                DATA
 0003:00001aa0 00000090H .didat$5                DATA
 0003:00001b30 000043e0H .bss                    DATA
 0004:00000000 0000acc8H .pdata                  DATA
 0005:00000000 00002304H _RDATA                  DATA
 0006:00000000 000000a0H .rsrc$01                DATA
 0006:000000a0 000004b8H .rsrc$02                DATA

  Address         Publics by Value              Rva+Base               Lib:Object

 0000:00000000       __arm64x_redirection_metadata 0000000000000000     <absolute>
 0000:00000000       __guard_eh_cont_table      0000000000000000     <absolute>
 0000:00000000       __guard_longjmp_count      0000000000000000     <absolute>
 0000:00000000       __arm64x_native_entrypoint 0000000000000000     <absolute>
 0000:00000000       __arm64x_extra_rfe_table   0000000000000000     <absolute>
 0000:00000000       __guard_fids_table         0000000000000000     <absolute>
 0000:00000000       __AbsoluteZero             0000000000000000     <absolute>
 0000:00000000       ___safe_se_handler_count   0000000000000000     <absolute>
 0000:00000000       __dynamic_value_reloc_table 0000000000000000     <absolute>
 0000:00000000       __guard_longjmp_table      0000000000000000     <absolute>
 0000:00000000       __arm64x_extra_rfe_table_size 0000000000000000     <absolute>
 0000:00000000       __guard_check_icall_a64n_fptr 0000000000000000     <absolute>
 0000:00000000       __hybrid_code_map_count    0000000000000000     <absolute>
 0000:00000000       __x64_code_ranges_to_entry_points 0000000000000000     <absolute>
 0000:00000000       __enclave_config           0000000000000000     <absolute>
 0000:00000000       __hybrid_auxiliary_iat     0000000000000000     <absolute>
 0000:00000000       __arm64x_redirection_metadata_count 0000000000000000     <absolute>
 0000:00000000       __x64_code_ranges_to_entry_points_count 0000000000000000     <absolute>
 0000:00000000       __hybrid_code_map          0000000000000000     <absolute>
 0000:00000000       __hybrid_auxiliary_iat_copy 0000000000000000     <absolute>
 0000:00000000       __guard_iat_count          0000000000000000     <absolute>
 0000:00000000       __guard_fids_count         0000000000000000     <absolute>
 0000:00000000       __guard_iat_table          0000000000000000     <absolute>
 0000:00000000       __guard_eh_cont_count      0000000000000000     <absolute>
 0000:00000000       ___safe_se_handler_table   0000000000000000     <absolute>
 0000:00000100       __guard_flags              0000000000000100     <absolute>
 0000:00000000       __ImageBase                0000000180000000     <linker-defined>
 0001:00002920       PxSetPhysXCommonDelayLoadHook 0000000180003920 f   CmWindowsDelayLoadHook.obj
 0001:00002930       ?delayHook@@YAP6A_JXZIPEAUDelayLoadInfo@@@Z 0000000180003930 f   CmWindowsDelayLoadHook.obj
 0001:00002980       ?physXCommonDliNotePreLoadLibrary@Cm@physx@@YAP6A_JXZPEBDPEBVPxDelayLoadHook@2@@Z 0000000180003980 f i CmWindowsDelayLoadHook.obj
 0001:00002c00       ??0CmModuleUpdateLoader@Cm@physx@@QEAA@PEBD@Z 0000000180003c00 f   CmWindowsModuleUpdateLoader.obj
 0001:00002c50       ??1CmModuleUpdateLoader@Cm@physx@@QEAA@XZ 0000000180003c50 f   CmWindowsModuleUpdateLoader.obj
 0001:00002c80       ?LoadModule@CmModuleUpdateLoader@Cm@physx@@QEAAPEAUHINSTANCE__@@PEBD0@Z 0000000180003c80 f   CmWindowsModuleUpdateLoader.obj
 0001:00002ca0       ??0Allocator@shdfnd@physx@@QEAA@PEBD@Z 0000000180003ca0 f i CmWindowsModuleUpdateLoader.obj
 0001:00002cb0       ??0PxFoundation@physx@@QEAA@AEBV01@@Z 0000000180003cb0 f i CmWindowsModuleUpdateLoader.obj
 0001:00002cc0       ??0PxFoundation@physx@@QEAA@XZ 0000000180003cc0 f i CmWindowsModuleUpdateLoader.obj
 0001:00002cd0       ??1PxFoundation@physx@@MEAA@XZ 0000000180003cd0 f i CmWindowsModuleUpdateLoader.obj
 0001:00002ce0       ??4Allocator@shdfnd@physx@@QEAAAEAV012@$$QEAV012@@Z 0000000180003ce0 f i CmWindowsModuleUpdateLoader.obj
 0001:00002cf0       ??4Allocator@shdfnd@physx@@QEAAAEAV012@AEBV012@@Z 0000000180003cf0 f i CmWindowsModuleUpdateLoader.obj
 0001:00002d00       ??4CmModuleUpdateLoader@Cm@physx@@QEAAAEAV012@AEBV012@@Z 0000000180003d00 f i CmWindowsModuleUpdateLoader.obj
 0001:00002d10       ??4MutexImpl@shdfnd@physx@@QEAAAEAV012@AEBV012@@Z 0000000180003d10 f i CmWindowsModuleUpdateLoader.obj
 0001:00002d20       ??4PxFoundation@physx@@QEAAAEAV01@AEBV01@@Z 0000000180003d20 f i CmWindowsModuleUpdateLoader.obj
 0001:00002d30       ??_EPxFoundation@physx@@MEAAPEAXI@Z 0000000180003d30 f i CmWindowsModuleUpdateLoader.obj
 0001:00002dc0       ??_FAllocator@shdfnd@physx@@QEAAXXZ 0000000180003dc0 f i CmWindowsModuleUpdateLoader.obj
 0001:00002dd0       ??_GPxFoundation@physx@@MEAAPEAXI@Z 0000000180003dd0 f i CmWindowsModuleUpdateLoader.obj
 0001:00002e00       ??_I@YAXPEAX_K1P6AX0@Z@Z   0000000180003e00 f i CmWindowsModuleUpdateLoader.obj
 0001:00002e60       ?__empty_global_delete@@YAXPEAX@Z 0000000180003e60 f i CmWindowsModuleUpdateLoader.obj
 0001:00002e70       ?__empty_global_delete@@YAXPEAX_K@Z 0000000180003e70 f i CmWindowsModuleUpdateLoader.obj
 0001:00002e80       ?getAllocator@Foundation@shdfnd@physx@@QEAAAEAVPxAllocatorCallback@3@XZ 0000000180003e80 f i CmWindowsModuleUpdateLoader.obj
 0001:00002e90       ?getAllocatorCallback@Foundation@shdfnd@physx@@UEAAAEAVPxAllocatorCallback@3@XZ 0000000180003e90 f i CmWindowsModuleUpdateLoader.obj
 0001:00002ea0       ?getErrorCallback@Foundation@shdfnd@physx@@UEAAAEAVPxErrorCallback@3@XZ 0000000180003ea0 f i CmWindowsModuleUpdateLoader.obj
 0001:00002eb0       ?getErrorLevel@Foundation@shdfnd@physx@@UEBA?AW4Enum@PxErrorCode@3@XZ 0000000180003eb0 f i CmWindowsModuleUpdateLoader.obj
 0001:00002ec0       ?getInternalErrorCallback@Foundation@shdfnd@physx@@QEAAAEAVPxErrorCallback@3@XZ 0000000180003ec0 f i CmWindowsModuleUpdateLoader.obj
 0001:00002ed0       ?getNamedAllocMap@Foundation@shdfnd@physx@@QEAAAEAV?$HashMap@PEBVNamedAllocator@shdfnd@physx@@PEBDU?$Hash@PEBVNamedAllocator@shdfnd@physx@@@23@VNonTrackingAllocator@23@@23@XZ 0000000180003ed0 f i CmWindowsModuleUpdateLoader.obj
 0001:00002ee0       ?getNamedAllocMutex@Foundation@shdfnd@physx@@QEAAAEAV?$MutexT@VAllocator@shdfnd@physx@@@23@XZ 0000000180003ee0 f i CmWindowsModuleUpdateLoader.obj
 0001:00002ef0       ?getReportAllocationNames@Foundation@shdfnd@physx@@UEBA_NXZ 0000000180003ef0 f i CmWindowsModuleUpdateLoader.obj
 0001:00002f00       ?getTempAllocFreeTable@Foundation@shdfnd@physx@@QEAAAEAV?$Array@PEATTempAllocatorChunk@shdfnd@physx@@VAllocator@23@@23@XZ 0000000180003f00 f i CmWindowsModuleUpdateLoader.obj
 0001:00002f10       ?getTempAllocMutex@Foundation@shdfnd@physx@@QEAAAEAV?$MutexT@VAllocator@shdfnd@physx@@@23@XZ 0000000180003f10 f i CmWindowsModuleUpdateLoader.obj
 0001:00002f20       ?setErrorLevel@Foundation@shdfnd@physx@@UEAAXW4Enum@PxErrorCode@3@@Z 0000000180003f20 f i CmWindowsModuleUpdateLoader.obj
 0001:00002f30       ?setReportAllocationNames@Foundation@shdfnd@physx@@UEAAX_N@Z 0000000180003f30 f i CmWindowsModuleUpdateLoader.obj
 0001:00002f40       ?CompleteBoxPruning@Cm@physx@@YA_NPEBVPxBounds3@2@IAEAV?$Array@IV?$ReflectionAllocator@I@shdfnd@physx@@@shdfnd@2@AEBVAxes@Gu@2@@Z 0000000180003f40 f   CmBoxPruning.obj
 0001:00003260       ?BipartiteBoxPruning@Cm@physx@@YA_NPEBVPxBounds3@2@I0IAEAV?$Array@IV?$ReflectionAllocator@I@shdfnd@physx@@@shdfnd@2@AEBVAxes@Gu@2@@Z 0000000180004260 f   CmBoxPruning.obj
 0001:00003880       ?GetNbHits@RadixSort@Cm@physx@@QEBAIXZ 0000000180004880 f i CmBoxPruning.obj
 0001:00003890       ?GetNbTotalCalls@RadixSort@Cm@physx@@QEBAIXZ 0000000180004890 f i CmBoxPruning.obj
 0001:000038a0       ?GetRanks@RadixSort@Cm@physx@@QEBAPEBIXZ 00000001800048a0 f i CmBoxPruning.obj
 0001:000038b0       ?GetRecyclable@RadixSort@Cm@physx@@QEBAPEAIXZ 00000001800048b0 f i CmBoxPruning.obj
 0001:000038c0       ?growAndPushBack@?$Array@IV?$ReflectionAllocator@I@shdfnd@physx@@@shdfnd@physx@@IEAAAEAIAEBI@Z 00000001800048c0 f i CmBoxPruning.obj
 0001:000039e0       ?invalidateRanks@RadixSort@Cm@physx@@QEAAXXZ 00000001800049e0 f i CmBoxPruning.obj
 0001:000039f0       ?PxCreateCollection@@YAPEAVPxCollection@physx@@XZ 00000001800049f0 f   CmCollection.obj
 0001:00003af0       ?add@Collection@Cm@physx@@UEAAXAEAVPxBase@3@_K@Z 0000000180004af0 f   CmCollection.obj
 0001:00003be0       ?remove@Collection@Cm@physx@@UEAAXAEAVPxBase@3@@Z 0000000180004be0 f   CmCollection.obj
 0001:00003cd0       ?contains@Collection@Cm@physx@@UEBA_NAEAVPxBase@3@@Z 0000000180004cd0 f   CmCollection.obj
 0001:00003d80       ?addId@Collection@Cm@physx@@UEAAXAEAVPxBase@3@_K@Z 0000000180004d80 f   CmCollection.obj
 0001:00003eb0       ?removeId@Collection@Cm@physx@@UEAAX_K@Z 0000000180004eb0 f   CmCollection.obj
 0001:00003f30       ?find@Collection@Cm@physx@@UEBAPEAVPxBase@3@_K@Z 0000000180004f30 f   CmCollection.obj
 0001:00003f60       ?add@Collection@Cm@physx@@UEAAXAEAVPxCollection@3@@Z 0000000180004f60 f   CmCollection.obj
 0001:00004100       ?remove@Collection@Cm@physx@@UEAAXAEAVPxCollection@3@@Z 0000000180005100 f   CmCollection.obj
 0001:00004220       ?getNbObjects@Collection@Cm@physx@@UEBAIXZ 0000000180005220 f   CmCollection.obj
 0001:00004230       ?getObject@Collection@Cm@physx@@UEBAAEAVPxBase@3@I@Z 0000000180005230 f   CmCollection.obj
 0001:00004250       ?getObjects@Collection@Cm@physx@@UEBAIPEAPEAVPxBase@3@II@Z 0000000180005250 f   CmCollection.obj
 0001:000042b0       ?getNbIds@Collection@Cm@physx@@UEBAIXZ 00000001800052b0 f   CmCollection.obj
 0001:000042c0       ?getId@Collection@Cm@physx@@UEBA_KAEBVPxBase@3@@Z 00000001800052c0 f   CmCollection.obj
 0001:00004370       ?getIds@Collection@Cm@physx@@UEBAIPEA_KII@Z 0000000180005370 f   CmCollection.obj
 0001:00004430       ??1PxCollection@physx@@MEAA@XZ 0000000180005430 f i CmCollection.obj
 0001:00004440       ??_GCollection@Cm@physx@@UEAAPEAXI@Z 0000000180005440 f i CmCollection.obj
 0001:00004440       ??_ECollection@Cm@physx@@UEAAPEAXI@Z 0000000180005440 f i CmCollection.obj
 0001:000044f0       ??_GPxCollection@physx@@MEAAPEAXI@Z 00000001800054f0 f i CmCollection.obj
 0001:000044f0       ??_EPxCollection@physx@@MEAAPEAXI@Z 00000001800054f0 f i CmCollection.obj
 0001:00004520       ?create@?$HashBase@V?$Pair@$$CB_KPEAVPxBase@physx@@@shdfnd@physx@@_KU?$Hash@_K@23@UGetKey@?$HashMapBase@_KPEAVPxBase@physx@@U?$Hash@_K@shdfnd@2@VNonTrackingAllocator@42@@internal@23@VNonTrackingAllocator@23@$00@internal@shdfnd@physx@@QEAAPEAV?$Pair@$$CB_KPEAVPxBase@physx@@@34@AEB_KAEA_N@Z 0000000180005520 f i CmCollection.obj
 0001:000046c0       ?create@?$HashBase@V?$Pair@QEAVPxBase@physx@@_K@shdfnd@physx@@PEAVPxBase@3@U?$Hash@PEAVPxBase@physx@@@23@UGetKey@?$HashMapBase@PEAVPxBase@physx@@_KU?$Hash@PEAVPxBase@physx@@@shdfnd@2@VNonTrackingAllocator@42@@internal@23@VNonTrackingAllocator@23@$00@internal@shdfnd@physx@@QEAAPEAV?$Pair@QEAVPxBase@physx@@_K@34@AEBQEAVPxBase@4@AEA_N@Z 00000001800056c0 f i CmCollection.obj
 0001:00004860       ?erase@?$HashBase@V?$Pair@$$CB_KPEAVPxBase@physx@@@shdfnd@physx@@_KU?$Hash@_K@23@UGetKey@?$HashMapBase@_KPEAVPxBase@physx@@U?$Hash@_K@shdfnd@2@VNonTrackingAllocator@42@@internal@23@VNonTrackingAllocator@23@$00@internal@shdfnd@physx@@QEAA_NAEB_K@Z 0000000180005860 f i CmCollection.obj
 0001:00004a00       ?erase@?$HashBase@V?$Pair@QEAVPxBase@physx@@_K@shdfnd@physx@@PEAVPxBase@3@U?$Hash@PEAVPxBase@physx@@@23@UGetKey@?$HashMapBase@PEAVPxBase@physx@@_KU?$Hash@PEAVPxBase@physx@@@shdfnd@2@VNonTrackingAllocator@42@@internal@23@VNonTrackingAllocator@23@$00@internal@shdfnd@physx@@QEAA_NAEBQEAVPxBase@4@@Z 0000000180005a00 f i CmCollection.obj
 0001:00004ba0       ?find@?$HashMapBase@_KPEAVPxBase@physx@@U?$Hash@_K@shdfnd@2@VNonTrackingAllocator@42@@internal@shdfnd@physx@@QEBAPEBV?$Pair@$$CB_KPEAVPxBase@physx@@@34@AEB_K@Z 0000000180005ba0 f i CmCollection.obj
 0001:00004c40       ?release@Collection@Cm@physx@@UEAAXXZ 0000000180005c40 f i CmCollection.obj
 0001:00004c60       ?reserveInternal@?$HashBase@V?$Pair@$$CB_KPEAVPxBase@physx@@@shdfnd@physx@@_KU?$Hash@_K@23@UGetKey@?$HashMapBase@_KPEAVPxBase@physx@@U?$Hash@_K@shdfnd@2@VNonTrackingAllocator@42@@internal@23@VNonTrackingAllocator@23@$00@internal@shdfnd@physx@@AEAAXI@Z 0000000180005c60 f i CmCollection.obj
 0001:00004e40       ?reserveInternal@?$HashBase@V?$Pair@QEAVPxBase@physx@@_K@shdfnd@physx@@PEAVPxBase@3@U?$Hash@PEAVPxBase@physx@@@23@UGetKey@?$HashMapBase@PEAVPxBase@physx@@_KU?$Hash@PEAVPxBase@physx@@@shdfnd@2@VNonTrackingAllocator@42@@internal@23@VNonTrackingAllocator@23@$00@internal@shdfnd@physx@@AEAAXI@Z 0000000180005e40 f i CmCollection.obj
 0001:00005020       ?PxTransformFromPlaneEquation@physx@@YA?AVPxTransform@1@AEBVPxPlane@1@@Z 0000000180006020 f   CmMathUtils.obj
 0001:000051f0       ?PxTransformFromSegment@physx@@YA?AVPxTransform@1@AEBVPxVec3@1@0PEAM@Z 00000001800061f0 f   CmMathUtils.obj
 0001:00005360       ??0PtrTable@Cm@physx@@QEAA@XZ 0000000180006360 f   CmPtrTable.obj
 0001:00005380       ??1PtrTable@Cm@physx@@QEAA@XZ 0000000180006380 f   CmPtrTable.obj
 0001:00005390       ?add@PtrTable@Cm@physx@@QEAAXPEAXAEAVPtrTableStorageManager@23@@Z 0000000180006390 f   CmPtrTable.obj
 0001:00005460       ?replaceWithLast@PtrTable@Cm@physx@@QEAAXIAEAVPtrTableStorageManager@23@@Z 0000000180006460 f   CmPtrTable.obj
 0001:00005560       ?clear@PtrTable@Cm@physx@@QEAAXAEAVPtrTableStorageManager@23@@Z 0000000180006560 f   CmPtrTable.obj
 0001:000055e0       ?find@PtrTable@Cm@physx@@QEBAIPEBX@Z 00000001800065e0 f   CmPtrTable.obj
 0001:00005620       ?exportExtraData@PtrTable@Cm@physx@@QEAAXAEAVPxSerializationContext@3@@Z 0000000180006620 f   CmPtrTable.obj
 0001:00005670       ?importExtraData@PtrTable@Cm@physx@@QEAAXAEAVPxDeserializationContext@3@@Z 0000000180006670 f   CmPtrTable.obj
 0001:000056a0       ?getBinaryMetaData@PtrTable@Cm@physx@@SAXAEAVPxOutputStream@3@@Z 00000001800066a0 f   CmPtrTable.obj
 0001:00005860       ?realloc@PtrTable@Cm@physx@@AEAAXIIAEAVPtrTableStorageManager@23@@Z 0000000180006860 f   CmPtrTable.obj
 0001:000058f0       ??0PtrTable@Cm@physx@@QEAA@W4PxEMPTY@2@@Z 00000001800068f0 f i CmPtrTable.obj
 0001:00005910       ??4PtrTable@Cm@physx@@QEAAAEAU012@AEBU012@@Z 0000000180006910 f i CmPtrTable.obj
 0001:00005920       ?getCount@PtrTable@Cm@physx@@QEBAIXZ 0000000180006920 f i CmPtrTable.obj
 0001:00005930       ?getPtrs@PtrTable@Cm@physx@@QEAAPEAPEAXXZ 0000000180006930 f i CmPtrTable.obj
 0001:00005940       ?getPtrs@PtrTable@Cm@physx@@QEBAPEBQEAXXZ 0000000180006940 f i CmPtrTable.obj
 0001:00005950       ??0RadixSort@Cm@physx@@QEAA@XZ 0000000180006950 f   CmRadixSort.obj
 0001:00005990       ??1RadixSort@Cm@physx@@UEAA@XZ 0000000180006990 f   CmRadixSort.obj
 0001:000059b0       ?Sort@RadixSort@Cm@physx@@QEAAAEAV123@PEBIIW4RadixHint@23@@Z 00000001800069b0 f   CmRadixSort.obj
 0001:00006000       ?Sort@RadixSort@Cm@physx@@QEAAAEAV123@PEBMI@Z 0000000180007000 f   CmRadixSort.obj
 0001:00006760       ?SetBuffers@RadixSort@Cm@physx@@QEAA_NPEAI00PEAPEAI@Z 0000000180007760 f   CmRadixSort.obj
 0001:000067a0       ??_ERadixSort@Cm@physx@@UEAAPEAXI@Z 00000001800077a0 f i CmRadixSort.obj
 0001:00006830       ??_GRadixSort@Cm@physx@@UEAAPEAXI@Z 0000000180007830 f i CmRadixSort.obj
 0001:00006860       ??0RadixSortBuffered@Cm@physx@@QEAA@XZ 0000000180007860 f   CmRadixSortBuffered.obj
 0001:00006890       ??1RadixSortBuffered@Cm@physx@@UEAA@XZ 0000000180007890 f   CmRadixSortBuffered.obj
 0001:00006910       ?Sort@RadixSortBuffered@Cm@physx@@QEAAAEAV123@PEBIIW4RadixHint@23@@Z 0000000180007910 f   CmRadixSortBuffered.obj
 0001:000069b0       ?Sort@RadixSortBuffered@Cm@physx@@QEAAAEAV123@PEBMI@Z 00000001800079b0 f   CmRadixSortBuffered.obj
 0001:00006a40       ?Resize@RadixSortBuffered@Cm@physx@@AEAA_NI@Z 0000000180007a40 f   CmRadixSortBuffered.obj
 0001:00006b30       ??_ERadixSortBuffered@Cm@physx@@UEAAPEAXI@Z 0000000180007b30 f i CmRadixSortBuffered.obj
 0001:00006c40       ??_GRadixSortBuffered@Cm@physx@@UEAAPEAXI@Z 0000000180007c40 f i CmRadixSortBuffered.obj
 0001:00006c80       ?CheckResize@RadixSortBuffered@Cm@physx@@AEAAXI@Z 0000000180007c80 f i CmRadixSortBuffered.obj
 0001:00006cc0       ??6RenderOutput@Cm@physx@@QEAAAEAV012@W4Primitive@012@@Z 0000000180007cc0 f   CmRenderOutput.obj
 0001:00006ce0       ??6RenderOutput@Cm@physx@@QEAAAEAV012@I@Z 0000000180007ce0 f   CmRenderOutput.obj
 0001:00006cf0       ??6RenderOutput@Cm@physx@@QEAAAEAV012@AEBVPxMat44@2@@Z 0000000180007cf0 f   CmRenderOutput.obj
 0001:00006d60       ??6RenderOutput@Cm@physx@@QEAAAEAV012@AEBVPxTransform@2@@Z 0000000180007d60 f   CmRenderOutput.obj
 0001:00006ef0       ??6RenderOutput@Cm@physx@@QEAAAEAV012@VPxVec3@2@@Z 0000000180007ef0 f   CmRenderOutput.obj
 0001:00007440       ??6RenderOutput@Cm@physx@@QEAAAEAV012@AEBUDebugText@12@@Z 0000000180008440 f   CmRenderOutput.obj
 0001:00007660       ?outputCapsule@RenderOutput@Cm@physx@@QEAAAEAV123@MMAEBVPxMat44@3@@Z 0000000180008660 f   CmRenderOutput.obj
 0001:00008140       ??0DebugText@Cm@physx@@QEAA@AEBVPxVec3@2@MPEBDZZ 0000000180009140 f   CmRenderOutput.obj
 0001:000081a0       ??6Cm@physx@@YAAEAVRenderOutput@01@AEAV201@AEBUDebugBox@01@@Z 00000001800091a0 f   CmRenderOutput.obj
 0001:000086a0       ??6Cm@physx@@YAAEAVRenderOutput@01@AEAV201@AEBUDebugArrow@01@@Z 00000001800096a0 f   CmRenderOutput.obj
 0001:00008aa0       ??6Cm@physx@@YAAEAVRenderOutput@01@AEAV201@AEBUDebugBasis@01@@Z 0000000180009aa0 f   CmRenderOutput.obj
 0001:00008ba0       ??6Cm@physx@@YAAEAVRenderOutput@01@AEAV201@AEBUDebugCircle@01@@Z 0000000180009ba0 f   CmRenderOutput.obj
 0001:00008c90       ??6Cm@physx@@YAAEAVRenderOutput@01@AEAV201@AEBUDebugArc@01@@Z 0000000180009c90 f   CmRenderOutput.obj
 0001:00008d90       ??0DebugText@Cm@physx@@QEAA@$$QEAU012@@Z 0000000180009d90 f i CmRenderOutput.obj
 0001:00008e70       ??0DebugText@Cm@physx@@QEAA@AEBU012@@Z 0000000180009e70 f i CmRenderOutput.obj
 0001:00008f50       ??0RenderOutput@Cm@physx@@QEAA@AEAVRenderBuffer@12@@Z 0000000180009f50 f i CmRenderOutput.obj
 0001:00008fa0       ??0RenderOutput@Cm@physx@@QEAA@AEBV012@@Z 0000000180009fa0 f i CmRenderOutput.obj
 0001:00009040       ??4DebugText@Cm@physx@@QEAAAEAU012@$$QEAU012@@Z 000000018000a040 f i CmRenderOutput.obj
 0001:00009170       ??4DebugText@Cm@physx@@QEAAAEAU012@AEBU012@@Z 000000018000a170 f i CmRenderOutput.obj
 0001:000092a0       ?allocate@?$Array@DV?$ReflectionAllocator@D@shdfnd@physx@@@shdfnd@physx@@IEAAPEADI@Z 000000018000a2a0 f i CmRenderOutput.obj
 0001:00009320       ?allocate@?$Array@UPxDebugLine@physx@@V?$ReflectionAllocator@UPxDebugLine@physx@@@shdfnd@2@@shdfnd@physx@@IEAAPEAUPxDebugLine@3@I@Z 000000018000a320 f i CmRenderOutput.obj
 0001:000093c0       ?allocate@?$Array@UPxDebugPoint@physx@@V?$ReflectionAllocator@UPxDebugPoint@physx@@@shdfnd@2@@shdfnd@physx@@IEAAPEAUPxDebugPoint@3@I@Z 000000018000a3c0 f i CmRenderOutput.obj
 0001:00009460       ?allocate@?$Array@UPxDebugText@physx@@V?$ReflectionAllocator@UPxDebugText@physx@@@shdfnd@2@@shdfnd@physx@@IEAAPEAUPxDebugText@3@I@Z 000000018000a460 f i CmRenderOutput.obj
 0001:00009500       ?allocate@?$Array@UPxDebugTriangle@physx@@V?$ReflectionAllocator@UPxDebugTriangle@physx@@@shdfnd@2@@shdfnd@physx@@IEAAPEAUPxDebugTriangle@3@I@Z 000000018000a500 f i CmRenderOutput.obj
 0001:000095a0       ?copy@?$Array@UPxDebugLine@physx@@V?$ReflectionAllocator@UPxDebugLine@physx@@@shdfnd@2@@shdfnd@physx@@KAXPEAUPxDebugLine@3@0PEBU43@@Z 000000018000a5a0 f i CmRenderOutput.obj
 0001:00009750       ?copy@?$Array@UPxDebugPoint@physx@@V?$ReflectionAllocator@UPxDebugPoint@physx@@@shdfnd@2@@shdfnd@physx@@KAXPEAUPxDebugPoint@3@0PEBU43@@Z 000000018000a750 f i CmRenderOutput.obj
 0001:00009850       ?copy@?$Array@UPxDebugText@physx@@V?$ReflectionAllocator@UPxDebugText@physx@@@shdfnd@2@@shdfnd@physx@@KAXPEAUPxDebugText@3@0PEBU43@@Z 000000018000a850 f i CmRenderOutput.obj
 0001:000099c0       ?copy@?$Array@UPxDebugTriangle@physx@@V?$ReflectionAllocator@UPxDebugTriangle@physx@@@shdfnd@2@@shdfnd@physx@@KAXPEAUPxDebugTriangle@3@0PEBU43@@Z 000000018000a9c0 f i CmRenderOutput.obj
 0001:00009bc0       ?growAndPushBack@?$Array@DV?$ReflectionAllocator@D@shdfnd@physx@@@shdfnd@physx@@IEAAAEADAEBD@Z 000000018000abc0 f i CmRenderOutput.obj
 0001:00009c80       ?growAndPushBack@?$Array@UPxDebugLine@physx@@V?$ReflectionAllocator@UPxDebugLine@physx@@@shdfnd@2@@shdfnd@physx@@IEAAAEAUPxDebugLine@3@AEBU43@@Z 000000018000ac80 f i CmRenderOutput.obj
 0001:00009d50       ?growAndPushBack@?$Array@UPxDebugPoint@physx@@V?$ReflectionAllocator@UPxDebugPoint@physx@@@shdfnd@2@@shdfnd@physx@@IEAAAEAUPxDebugPoint@3@AEBU43@@Z 000000018000ad50 f i CmRenderOutput.obj
 0001:00009e10       ?growAndPushBack@?$Array@UPxDebugText@physx@@V?$ReflectionAllocator@UPxDebugText@physx@@@shdfnd@2@@shdfnd@physx@@IEAAAEAUPxDebugText@3@AEBU43@@Z 000000018000ae10 f i CmRenderOutput.obj
 0001:00009ee0       ?growAndPushBack@?$Array@UPxDebugTriangle@physx@@V?$ReflectionAllocator@UPxDebugTriangle@physx@@@shdfnd@2@@shdfnd@physx@@IEAAAEAUPxDebugTriangle@3@AEBU43@@Z 000000018000aee0 f i CmRenderOutput.obj
 0001:00009fe0       ?outputSegment@RenderOutput@Cm@physx@@QEAAXAEBVPxVec3@3@0@Z 000000018000afe0 f i CmRenderOutput.obj
 0001:0000a0a0       ?recreate@?$Array@DV?$ReflectionAllocator@D@shdfnd@physx@@@shdfnd@physx@@IEAAXI@Z 000000018000b0a0 f i CmRenderOutput.obj
 0001:0000a140       ?recreate@?$Array@UPxDebugLine@physx@@V?$ReflectionAllocator@UPxDebugLine@physx@@@shdfnd@2@@shdfnd@physx@@IEAAXI@Z 000000018000b140 f i CmRenderOutput.obj
 0001:0000a1d0       ?reserveSegments@RenderOutput@Cm@physx@@QEAAPEAUPxDebugLine@3@I@Z 000000018000b1d0 f i CmRenderOutput.obj
 0001:0000a240       ?visualizeJointFrames@Cm@physx@@YAXAEAVRenderOutput@12@MAEBVPxTransform@2@1@Z 000000018000b240 f   CmVisualization.obj
 0001:0000a310       ?visualizeLinearLimit@Cm@physx@@YAXAEAVRenderOutput@12@MAEBVPxTransform@2@1M_N@Z 000000018000b310 f   CmVisualization.obj
 0001:0000a5a0       ?visualizeAngularLimit@Cm@physx@@YAXAEAVRenderOutput@12@MAEBVPxTransform@2@MM_N@Z 000000018000b5a0 f   CmVisualization.obj
 0001:0000a770       ?visualizeLimitCone@Cm@physx@@YAXAEAVRenderOutput@12@MAEBVPxTransform@2@MM_N@Z 000000018000b770 f   CmVisualization.obj
 0001:0000aa10       ?visualizeDoubleCone@Cm@physx@@YAXAEAVRenderOutput@12@MAEBVPxTransform@2@M_N@Z 000000018000ba10 f   CmVisualization.obj
 0001:0000ac70       ??DPxQuat@physx@@QEBA?AV01@AEBV01@@Z 000000018000bc70 f i CmVisualization.obj
 0001:0000adb0       ?contactBoxBox@Gu@physx@@YA_NAEBVGeometryUnion@12@0AEBVPxTransform@2@1AEBUNarrowPhaseParams@12@AEAUCache@12@AEAVContactBuffer@12@PEAVRenderOutput@Cm@2@@Z 000000018000bdb0 f   GuContactBoxBox.obj
 0001:0000b0a0       ??0Box@Gu@physx@@QEAA@AEBV012@@Z 000000018000c0a0 f i GuContactBoxBox.obj
 0001:0000b100       ??0Box@Gu@physx@@QEAA@AEBVPxVec3@2@0AEBVPxMat33@2@@Z 000000018000c100 f i GuContactBoxBox.obj
 0001:0000b170       ??0Box@Gu@physx@@QEAA@XZ   000000018000c170 f i GuContactBoxBox.obj
 0001:0000b180       ??0GeometryUnion@Gu@physx@@QEAA@AEBVPxGeometry@2@@Z 000000018000c180 f i GuContactBoxBox.obj
 0001:0000b1a0       ??0GeometryUnion@Gu@physx@@QEAA@W4PxEMPTY@2@@Z 000000018000c1a0 f i GuContactBoxBox.obj
 0001:0000b1b0       ??0GeometryUnion@Gu@physx@@QEAA@XZ 000000018000c1b0 f i GuContactBoxBox.obj
 0001:0000b1c0       ??0MaterialIndicesStruct@physx@@QEAA@W4PxEMPTY@1@@Z 000000018000c1c0 f i GuContactBoxBox.obj
 0001:0000b1d0       ??0MaterialIndicesStruct@physx@@QEAA@XZ 000000018000c1d0 f i GuContactBoxBox.obj
 0001:0000b1e0       ??0PxQuat@physx@@QEAA@AEBVPxMat33@1@@Z 000000018000c1e0 f i GuContactBoxBox.obj
 0001:0000b3c0       ??0PxVec3@physx@@QEAA@XZ   000000018000c3c0 f i GuContactBoxBox.obj
 0001:0000b3d0       ??0VertexInfo@@QEAA@XZ     000000018000c3d0 f i GuContactBoxBox.obj
 0001:0000b3e0       ??1Box@Gu@physx@@QEAA@XZ   000000018000c3e0 f i GuContactBoxBox.obj
 0001:0000b3f0       ??1MaterialIndicesStruct@physx@@QEAA@XZ 000000018000c3f0 f i GuContactBoxBox.obj
 0001:0000b400       ??1PxBase@physx@@MEAA@XZ   000000018000c400 f i GuContactBoxBox.obj
 0001:0000b410       ??1PxConvexMesh@physx@@MEAA@XZ 000000018000c410 f i GuContactBoxBox.obj
 0001:0000b420       ??4Box@Gu@physx@@QEAAAEBV012@AEBV012@@Z 000000018000c420 f i GuContactBoxBox.obj
 0001:0000b480       ??4GeometryUnion@Gu@physx@@QEAAAEAV012@$$QEAV012@@Z 000000018000c480 f i GuContactBoxBox.obj
 0001:0000b4b0       ??4GeometryUnion@Gu@physx@@QEAAAEAV012@AEBV012@@Z 000000018000c4b0 f i GuContactBoxBox.obj
 0001:0000b4e0       ??4MaterialIndicesStruct@physx@@QEAAAEAU01@AEBU01@@Z 000000018000c4e0 f i GuContactBoxBox.obj
 0001:0000b4f0       ??_GPxBase@physx@@MEAAPEAXI@Z 000000018000c4f0 f i GuContactBoxBox.obj
 0001:0000b4f0       ??_EPxBase@physx@@MEAAPEAXI@Z 000000018000c4f0 f i GuContactBoxBox.obj
 0001:0000b520       ??_H@YAXPEAX_K1P6APEAX0@Z@Z 000000018000c520 f i GuContactBoxBox.obj
 0001:0000b570       ?allocate@MaterialIndicesStruct@physx@@QEAAXG@Z 000000018000c570 f i GuContactBoxBox.obj
 0001:0000b5f0       ?computeAABBExtent@Box@Gu@physx@@QEBA?AVPxVec3@3@XZ 000000018000c5f0 f i GuContactBoxBox.obj
 0001:0000b6b0       ?computeBoxPoints@Box@Gu@physx@@QEBAXPEIAVPxVec3@3@@Z 000000018000c6b0 f i GuContactBoxBox.obj
 0001:0000b6f0       ?deallocate@MaterialIndicesStruct@physx@@QEAAXXZ 000000018000c6f0 f i GuContactBoxBox.obj
 0001:0000e110       ?getConcreteTypeName@PxConvexMesh@physx@@UEBAPEBDXZ 000000018000f110 f i GuContactBoxBox.obj
 0001:0000e120       ?getGeometry@GeometryUnion@Gu@physx@@QEBAAEBVPxGeometry@3@XZ 000000018000f120 f i GuContactBoxBox.obj
 0001:0000e130       ?getTransform@Box@Gu@physx@@QEBA?AVPxTransform@3@XZ 000000018000f130 f i GuContactBoxBox.obj
 0001:0000e190       ?getType@GeometryUnion@Gu@physx@@QEBA?AW4Enum@PxGeometryType@3@XZ 000000018000f190 f i GuContactBoxBox.obj
 0001:0000e1a0       ?isKindOf@PxBase@physx@@MEBA_NPEBD@Z 000000018000f1a0 f i GuContactBoxBox.obj
 0001:0000e1d0       ?isKindOf@PxConvexMesh@physx@@MEBA_NPEBD@Z 000000018000f1d0 f i GuContactBoxBox.obj
 0001:0000e220       ?isReleasable@PxBase@physx@@UEBA_NXZ 000000018000f220 f i GuContactBoxBox.obj
 0001:0000e230       ?isValid@Box@Gu@physx@@QEBA_NXZ 000000018000f230 f i GuContactBoxBox.obj
 0001:0000e250       ?rotate@Box@Gu@physx@@QEBA?AVPxVec3@3@AEBV43@@Z 000000018000f250 f i GuContactBoxBox.obj
 0001:0000e2e0       ?rotateInv@Box@Gu@physx@@QEBA?AVPxVec3@3@AEBV43@@Z 000000018000f2e0 f i GuContactBoxBox.obj
 0001:0000e370       ?setAxes@Box@Gu@physx@@QEAAXAEBVPxVec3@3@00@Z 000000018000f370 f i GuContactBoxBox.obj
 0001:0000e3b0       ?setEmpty@Box@Gu@physx@@QEAAXXZ 000000018000f3b0 f i GuContactBoxBox.obj
 0001:0000e3f0       ?transform@Box@Gu@physx@@QEBA?AVPxVec3@3@AEBV43@@Z 000000018000f3f0 f i GuContactBoxBox.obj
 0001:0000e490       ?contactCapsuleBox@Gu@physx@@YA_NAEBVGeometryUnion@12@0AEBVPxTransform@2@1AEBUNarrowPhaseParams@12@AEAUCache@12@AEAVContactBuffer@12@PEAVRenderOutput@Cm@2@@Z 000000018000f490 f   GuContactCapsuleBox.obj
 0001:00010250       ?contactCapsuleCapsule@Gu@physx@@YA_NAEBVGeometryUnion@12@0AEBVPxTransform@2@1AEBUNarrowPhaseParams@12@AEAUCache@12@AEAVContactBuffer@12@PEAVRenderOutput@Cm@2@@Z 0000000180011250 f   GuContactCapsuleCapsule.obj
 0001:00010c10       ??0Segment@Gu@physx@@QEAA@XZ 0000000180011c10 f i GuContactCapsuleCapsule.obj
 0001:00010c20       ??1Segment@Gu@physx@@QEAA@XZ 0000000180011c20 f i GuContactCapsuleCapsule.obj
 0001:00010c30       ?contactCapsuleConvex@Gu@physx@@YA_NAEBVGeometryUnion@12@0AEBVPxTransform@2@1AEBUNarrowPhaseParams@12@AEAUCache@12@AEAVContactBuffer@12@PEAVRenderOutput@Cm@2@@Z 0000000180011c30 f   GuContactCapsuleConvex.obj
 0001:00011ae0       ??$gjk@U?$LocalConvex@VCapsuleV@Gu@physx@@@Gu@physx@@U?$LocalConvex@VConvexHullV@Gu@physx@@@23@@Gu@physx@@YA?AW4GjkStatus@01@AEBU?$LocalConvex@VCapsuleV@Gu@physx@@@01@AEBU?$LocalConvex@VConvexHullV@Gu@physx@@@01@AEBT__m128@@2AEAT5@333@Z 0000000180012ae0 f i GuContactCapsuleConvex.obj
 0001:00012840       ??0ConvexEdge@Gu@physx@@QEAA@XZ 0000000180013840 f i GuContactCapsuleConvex.obj
 0001:00012850       ??0ConvexMesh@Gu@physx@@QEAA@V?$PxFlags@W4Enum@PxBaseFlag@physx@@G@2@@Z 0000000180013850 f i GuContactCapsuleConvex.obj
 0001:000128a0       ??0HullPolygonData@Gu@physx@@QEAA@AEBU012@@Z 00000001800138a0 f i GuContactCapsuleConvex.obj
 0001:000128d0       ??0PolygonalBox@Gu@physx@@QEAA@AEBV012@@Z 00000001800138d0 f i GuContactCapsuleConvex.obj
 0001:00012b50       ??0PxVec3@physx@@QEAA@AEBV01@@Z 0000000180013b50 f i GuContactCapsuleConvex.obj
 0001:00012b70       ??1GjkConvexBase@Gu@physx@@UEAA@XZ 0000000180013b70 f i GuContactCapsuleConvex.obj
 0001:00012b80       ??1RefCountable@Cm@physx@@UEAA@XZ 0000000180013b80 f i GuContactCapsuleConvex.obj
 0001:00012b90       ??4FPUGuard@shdfnd@physx@@QEAAAEAV012@AEBV012@@Z 0000000180013b90 f i GuContactCapsuleConvex.obj
 0001:00012bb0       ??Dphysx@@YA?AVMatrix34@Cm@0@AEBVPxMeshScale@0@AEBVPxTransform@0@@Z 0000000180013bb0 f i GuContactCapsuleConvex.obj
 0001:00013300       ??_EConvexMesh@Gu@physx@@UEAAPEAXI@Z 0000000180014300 f i GuContactCapsuleConvex.obj
 0001:0001340c       ??_EConvexMesh@Gu@physx@@WBA@EAAPEAXI@Z 000000018001440c f i GuContactCapsuleConvex.obj
 0001:00013420       ??_EPxConvexMesh@physx@@MEAAPEAXI@Z 0000000180014420 f i GuContactCapsuleConvex.obj
 0001:000134b0       ??_G?$LocalConvex@VCapsuleV@Gu@physx@@@Gu@physx@@UEAAPEAXI@Z 00000001800144b0 f i GuContactCapsuleConvex.obj
 0001:000134b0       ??_E?$LocalConvex@VCapsuleV@Gu@physx@@@Gu@physx@@UEAAPEAXI@Z 00000001800144b0 f i GuContactCapsuleConvex.obj
 0001:000134e0       ??_E?$LocalConvex@VConvexHullV@Gu@physx@@@Gu@physx@@UEAAPEAXI@Z 00000001800144e0 f i GuContactCapsuleConvex.obj
 0001:000134e0       ??_G?$LocalConvex@VConvexHullV@Gu@physx@@@Gu@physx@@UEAAPEAXI@Z 00000001800144e0 f i GuContactCapsuleConvex.obj
 0001:00013510       ??_EGjkConvex@Gu@physx@@UEAAPEAXI@Z 0000000180014510 f i GuContactCapsuleConvex.obj
 0001:00013510       ??_GGjkConvex@Gu@physx@@UEAAPEAXI@Z 0000000180014510 f i GuContactCapsuleConvex.obj
 0001:00013540       ??_GGjkConvexBase@Gu@physx@@UEAAPEAXI@Z 0000000180014540 f i GuContactCapsuleConvex.obj
 0001:00013540       ??_EGjkConvexBase@Gu@physx@@UEAAPEAXI@Z 0000000180014540 f i GuContactCapsuleConvex.obj
 0001:00013570       ??_GRefCountable@Cm@physx@@UEAAPEAXI@Z 0000000180014570 f i GuContactCapsuleConvex.obj
 0001:00013570       ??_ERefCountable@Cm@physx@@UEAAPEAXI@Z 0000000180014570 f i GuContactCapsuleConvex.obj
 0001:000135a0       ??__G@YAXPEAX0_K1P6APEAX00@Z@Z 00000001800145a0 f i GuContactCapsuleConvex.obj
 0001:00015560       ?getCenter@?$LocalConvex@VCapsuleV@Gu@physx@@@Gu@physx@@UEBA?AT__m128@@XZ 0000000180016560 f i GuContactCapsuleConvex.obj
 0001:00015570       ?getCenter@?$LocalConvex@VConvexHullV@Gu@physx@@@Gu@physx@@UEBA?AT__m128@@XZ 0000000180016570 f i GuContactCapsuleConvex.obj
 0001:00015580       ?getIndexBuffer@ConvexMesh@Gu@physx@@UEBAPEBEXZ 0000000180016580 f i GuContactCapsuleConvex.obj
 0001:000155c0       ?getInverse@PxMat33@physx@@QEBA?BV12@XZ 00000001800165c0 f i GuContactCapsuleConvex.obj
 0001:00015810       ?getNbPolygons@ConvexMesh@Gu@physx@@UEBAIXZ 0000000180016810 f i GuContactCapsuleConvex.obj
 0001:00015820       ?getNbVertices@ConvexMesh@Gu@physx@@UEBAIXZ 0000000180016820 f i GuContactCapsuleConvex.obj
 0001:00015830       ?getSweepMargin@?$LocalConvex@VCapsuleV@Gu@physx@@@Gu@physx@@UEBA?AT__m128@@XZ 0000000180016830 f i GuContactCapsuleConvex.obj
 0001:00015840       ?getSweepMargin@?$LocalConvex@VConvexHullV@Gu@physx@@@Gu@physx@@UEBA?AT__m128@@XZ 0000000180016840 f i GuContactCapsuleConvex.obj
 0001:00015860       ?getSweepMargin@GjkConvex@Gu@physx@@UEBA?AT__m128@@XZ 0000000180016860 f i GuContactCapsuleConvex.obj
 0001:00015880       ?getVertices@ConvexMesh@Gu@physx@@UEBAPEBVPxVec3@3@XZ 0000000180016880 f i GuContactCapsuleConvex.obj
 0001:000158a0       ?hillClimbing@ConvexHullV@Gu@physx@@QEBAIAEBT__m128@@@Z 00000001800168a0 f i GuContactCapsuleConvex.obj
 0001:00015ad0       ?init@FastVertex2ShapeScaling@Cm@physx@@QEAAXAEBVPxVec3@3@AEBVPxQuat@3@@Z 0000000180016ad0 f i GuContactCapsuleConvex.obj
 0001:00015eb0       ?onRefCountZero@RefCountable@Cm@physx@@UEAAXXZ 0000000180016eb0 f i GuContactCapsuleConvex.obj
 0001:00015ed0       ?requiresObjects@ConvexMesh@Gu@physx@@UEAAXAEAVPxProcessPxBaseCallback@3@@Z 0000000180016ed0 f i GuContactCapsuleConvex.obj
 0001:00015ee0       ?support@?$LocalConvex@VCapsuleV@Gu@physx@@@Gu@physx@@UEBA?AT__m128@@AEBT4@@Z 0000000180016ee0 f i GuContactCapsuleConvex.obj
 0001:00015f40       ?support@?$LocalConvex@VCapsuleV@Gu@physx@@@Gu@physx@@UEBA?AT__m128@@AEBT4@AEAHPEAT4@@Z 0000000180016f40 f i GuContactCapsuleConvex.obj
 0001:00015fb0       ?support@?$LocalConvex@VConvexHullV@Gu@physx@@@Gu@physx@@UEBA?AT__m128@@AEBT4@@Z 0000000180016fb0 f i GuContactCapsuleConvex.obj
 0001:00016090       ?support@?$LocalConvex@VConvexHullV@Gu@physx@@@Gu@physx@@UEBA?AT__m128@@AEBT4@AEAHPEAT4@@Z 0000000180017090 f i GuContactCapsuleConvex.obj
 0001:00016160       ?support@GjkConvex@Gu@physx@@UEBA?AT__m128@@AEBT4@@Z 0000000180017160 f i GuContactCapsuleConvex.obj
 0001:00016180       ?support@GjkConvex@Gu@physx@@UEBA?AT__m128@@AEBT4@AEAHPEAT4@@Z 0000000180017180 f i GuContactCapsuleConvex.obj
 0001:000161b0       ?supportPoint@?$LocalConvex@VCapsuleV@Gu@physx@@@Gu@physx@@UEBA?AT__m128@@HPEAT4@@Z 00000001800171b0 f i GuContactCapsuleConvex.obj
 0001:000161e0       ?supportPoint@?$LocalConvex@VConvexHullV@Gu@physx@@@Gu@physx@@UEBA?AT__m128@@HPEAT4@@Z 00000001800171e0 f i GuContactCapsuleConvex.obj
 0001:00016230       ?supportPoint@GjkConvex@Gu@physx@@UEBA?AT__m128@@HPEAT4@@Z 0000000180017230 f i GuContactCapsuleConvex.obj
 0001:00016250       ?supportVertexIndex@ConvexHullV@Gu@physx@@QEBAIAEBT__m128@@@Z 0000000180017250 f i GuContactCapsuleConvex.obj
 0001:000162f0       ?contactCapsuleMesh@Gu@physx@@YA_NAEBVGeometryUnion@12@0AEBVPxTransform@2@1AEBUNarrowPhaseParams@12@AEAUCache@12@AEAVContactBuffer@12@PEAVRenderOutput@Cm@2@@Z 00000001800172f0 f   GuContactCapsuleMesh.obj
 0001:00016830       ?contactCapsuleHeightfield@Gu@physx@@YA_NAEBVGeometryUnion@12@0AEBVPxTransform@2@1AEBUNarrowPhaseParams@12@AEAUCache@12@AEAVContactBuffer@12@PEAVRenderOutput@Cm@2@@Z 0000000180017830 f   GuContactCapsuleMesh.obj
 0001:00017870       ??0HeightFieldData@Gu@physx@@QEAA@$$QEAU012@@Z 0000000180018870 f i GuContactCapsuleMesh.obj
 0001:000178e0       ??0HeightFieldData@Gu@physx@@QEAA@AEBU012@@Z 00000001800188e0 f i GuContactCapsuleMesh.obj
 0001:00017950       ??0HeightFieldData@Gu@physx@@QEAA@W4PxEMPTY@2@@Z 0000000180018950 f i GuContactCapsuleMesh.obj
 0001:00017960       ??0HeightFieldData@Gu@physx@@QEAA@XZ 0000000180018960 f i GuContactCapsuleMesh.obj
 0001:00017970       ??0HeightFieldTraceUtil@Gu@physx@@QEAA@AEBVPxHeightFieldGeometry@2@@Z 0000000180018970 f i GuContactCapsuleMesh.obj
 0001:000179b0       ??0HeightFieldUtil@Gu@physx@@QEAA@AEBVPxHeightFieldGeometry@2@@Z 00000001800189b0 f i GuContactCapsuleMesh.obj
 0001:000179f0       ??0HeightFieldUtil@Gu@physx@@QEAA@XZ 00000001800189f0 f i GuContactCapsuleMesh.obj
 0001:00017a00       ??1?$EntityReport@I@Gu@physx@@UEAA@XZ 0000000180018a00 f i GuContactCapsuleMesh.obj
 0001:00017a10       ??1?$MeshHitCallback@UPxRaycastHit@physx@@@Gu@physx@@UEAA@XZ 0000000180018a10 f i GuContactCapsuleMesh.obj
 0001:00017a20       ??1HeightFieldData@Gu@physx@@QEAA@XZ 0000000180018a20 f i GuContactCapsuleMesh.obj
 0001:00017a30       ??1PxHeightField@physx@@MEAA@XZ 0000000180018a30 f i GuContactCapsuleMesh.obj
 0001:00017a40       ??4HeightFieldData@Gu@physx@@QEAAAEAU012@$$QEAU012@@Z 0000000180018a40 f i GuContactCapsuleMesh.obj
 0001:00017ab0       ??4HeightFieldData@Gu@physx@@QEAAAEAU012@AEBU012@@Z 0000000180018ab0 f i GuContactCapsuleMesh.obj
 0001:00017b20       ??4HeightFieldTraceUtil@Gu@physx@@QEAAAEAV012@$$QEAV012@@Z 0000000180018b20 f i GuContactCapsuleMesh.obj
 0001:00017b40       ??4HeightFieldTraceUtil@Gu@physx@@QEAAAEAV012@AEBV012@@Z 0000000180018b40 f i GuContactCapsuleMesh.obj
 0001:00017b60       ??4HeightFieldUtil@Gu@physx@@QEAAAEAV012@$$QEAV012@@Z 0000000180018b60 f i GuContactCapsuleMesh.obj
 0001:00017b90       ??4HeightFieldUtil@Gu@physx@@QEAAAEAV012@AEBV012@@Z 0000000180018b90 f i GuContactCapsuleMesh.obj
 0001:00017bb0       ??_G?$EntityReport@I@Gu@physx@@UEAAPEAXI@Z 0000000180018bb0 f i GuContactCapsuleMesh.obj
 0001:00017bb0       ??_E?$EntityReport@I@Gu@physx@@UEAAPEAXI@Z 0000000180018bb0 f i GuContactCapsuleMesh.obj
 0001:00017be0       ??_G?$MeshHitCallback@UPxRaycastHit@physx@@@Gu@physx@@UEAAPEAXI@Z 0000000180018be0 f i GuContactCapsuleMesh.obj
 0001:00017be0       ??_E?$MeshHitCallback@UPxRaycastHit@physx@@@Gu@physx@@UEAAPEAXI@Z 0000000180018be0 f i GuContactCapsuleMesh.obj
 0001:00018f80       ?ceilUp@HeightFieldTraceUtil@Gu@physx@@SAMM@Z 0000000180019f80 f i GuContactCapsuleMesh.obj
 0001:00018fc0       ?clipShapeNormalToVertexVoronoi@HeightFieldUtil@Gu@physx@@QEBA_NAEAVPxVec3@3@III@Z 0000000180019fc0 f i GuContactCapsuleMesh.obj
 0001:000192b0       ?computePointNormal@HeightFieldUtil@Gu@physx@@QEBA?AVPxVec3@3@IAEBV43@AEBVPxTransform@3@MMMMAEAM@Z 000000018001a2b0 f i GuContactCapsuleMesh.obj
 0001:000196d0       ?floorDown@HeightFieldTraceUtil@Gu@physx@@SAMM@Z 000000018001a6d0 f i GuContactCapsuleMesh.obj
 0001:00019710       ?getConcreteTypeName@PxHeightField@physx@@UEBAPEBDXZ 000000018001a710 f i GuContactCapsuleMesh.obj
 0001:00019720       ?getConvexEdgeThreshold@HeightField@Gu@physx@@UEBAMXZ 000000018001a720 f i GuContactCapsuleMesh.obj
 0001:00019730       ?getFeatureIndex@HeightFieldUtil@Gu@physx@@SAII@Z 000000018001a730 f i GuContactCapsuleMesh.obj
 0001:00019740       ?getFeatureType@HeightFieldUtil@Gu@physx@@SA?AW4Feature@123@I@Z 000000018001a740 f i GuContactCapsuleMesh.obj
 0001:00019750       ?getFlags@HeightField@Gu@physx@@UEBA?AV?$PxFlags@W4Enum@PxHeightFieldFlag@physx@@G@3@XZ 000000018001a750 f i GuContactCapsuleMesh.obj
 0001:00019760       ?getFormat@HeightField@Gu@physx@@UEBA?AW4Enum@PxHeightFieldFormat@3@XZ 000000018001a760 f i GuContactCapsuleMesh.obj
 0001:00019770       ?getHeight@HeightField@Gu@physx@@UEBAMMM@Z 000000018001a770 f i GuContactCapsuleMesh.obj
 0001:000197b0       ?getHeightAtShapePoint2@HeightFieldUtil@Gu@physx@@QEBAMIMM@Z 000000018001a7b0 f i GuContactCapsuleMesh.obj
 0001:000197e0       ?getHeightAtShapePoint@HeightFieldUtil@Gu@physx@@QEBAMMM@Z 000000018001a7e0 f i GuContactCapsuleMesh.obj
 0001:00019840       ?getHeightField@HeightFieldUtil@Gu@physx@@QEBAAEBVHeightField@23@XZ 000000018001a840 f i GuContactCapsuleMesh.obj
 0001:00019850       ?getHeightFieldGeometry@HeightFieldUtil@Gu@physx@@QEBAAEBVPxHeightFieldGeometry@3@XZ 000000018001a850 f i GuContactCapsuleMesh.obj
 0001:00019860       ?getHeightInternal2@HeightField@Gu@physx@@QEBAMIMM@Z 000000018001a860 f i GuContactCapsuleMesh.obj
 0001:000199d0       ?getNbColumns@HeightField@Gu@physx@@UEBAIXZ 000000018001a9d0 f i GuContactCapsuleMesh.obj
 0001:000199e0       ?getNbRows@HeightField@Gu@physx@@UEBAIXZ 000000018001a9e0 f i GuContactCapsuleMesh.obj
 0001:000199f0       ?getNormalAtShapePoint2@HeightFieldUtil@Gu@physx@@QEBA?AVPxVec3@3@IMM@Z 000000018001a9f0 f i GuContactCapsuleMesh.obj
 0001:00019a40       ?getNormalAtShapePoint@HeightFieldUtil@Gu@physx@@QEBA?AVPxVec3@3@MM@Z 000000018001aa40 f i GuContactCapsuleMesh.obj
 0001:00019b00       ?getNormal_2@HeightField@Gu@physx@@QEBA?AVPxVec3@3@IMMMMM@Z 000000018001ab00 f i GuContactCapsuleMesh.obj
 0001:00019c10       ?getOneOverColumnScale@HeightFieldUtil@Gu@physx@@QEBAMXZ 000000018001ac10 f i GuContactCapsuleMesh.obj
 0001:00019c20       ?getOneOverHeightScale@HeightFieldUtil@Gu@physx@@QEBAMXZ 000000018001ac20 f i GuContactCapsuleMesh.obj
 0001:00019c30       ?getOneOverRowScale@HeightFieldUtil@Gu@physx@@QEBAMXZ 000000018001ac30 f i GuContactCapsuleMesh.obj
 0001:00019c40       ?getPaddedBounds@HeightFieldData@Gu@physx@@QEBAAEBVCenterExtentsPadded@23@XZ 000000018001ac40 f i GuContactCapsuleMesh.obj
 0001:00019c50       ?getSample@HeightField@Gu@physx@@UEBAAEBUPxHeightFieldSample@3@II@Z 000000018001ac50 f i GuContactCapsuleMesh.obj
 0001:00019c60       ?getSampleStride@HeightField@Gu@physx@@UEBAIXZ 000000018001ac60 f i GuContactCapsuleMesh.obj
 0001:00019c70       ?getThickness@HeightField@Gu@physx@@UEBAMXZ 000000018001ac70 f i GuContactCapsuleMesh.obj
 0001:00019c80       ?getTimestamp@HeightField@Gu@physx@@UEBAIXZ 000000018001ac80 f i GuContactCapsuleMesh.obj
 0001:00019c90       ?getTriangleMaterialIndex@HeightField@Gu@physx@@UEBAGI@Z 000000018001ac90 f i GuContactCapsuleMesh.obj
 0001:00019cc0       ?getTriangleNormal@HeightField@Gu@physx@@UEBA?AVPxVec3@3@I@Z 000000018001acc0 f i GuContactCapsuleMesh.obj
 0001:00019ce0       ?getTriangleNormalInternal@HeightField@Gu@physx@@QEBA?AVPxVec3@3@I@Z 000000018001ace0 f i GuContactCapsuleMesh.obj
 0001:00019e30       ?getVertexNormal@HeightFieldUtil@Gu@physx@@QEBA?AVPxVec3@3@I@Z 000000018001ae30 f i GuContactCapsuleMesh.obj
 0001:00019e70       ?hf2shapen@HeightFieldUtil@Gu@physx@@QEBA?AVPxVec3@3@AEBV43@@Z 000000018001ae70 f i GuContactCapsuleMesh.obj
 0001:00019eb0       ?hf2shapep@HeightFieldUtil@Gu@physx@@QEBA?AVPxVec3@3@AEBV43@@Z 000000018001aeb0 f i GuContactCapsuleMesh.obj
 0001:00019ef0       ?hf2worldn@HeightFieldUtil@Gu@physx@@QEBA?AVPxVec3@3@AEBVPxTransform@3@AEBV43@@Z 000000018001aef0 f i GuContactCapsuleMesh.obj
 0001:0001a060       ?hf2worldp@HeightFieldUtil@Gu@physx@@QEBA?AVPxVec3@3@AEBVPxTransform@3@AEBV43@@Z 000000018001b060 f i GuContactCapsuleMesh.obj
 0001:0001a1e0       ?initialize@HeightFieldUtil@Gu@physx@@QEAAXAEBVPxHeightFieldGeometry@3@AEBVHeightField@23@@Z 000000018001b1e0 f i GuContactCapsuleMesh.obj
 0001:0001a220       ?initialize@HeightFieldUtil@Gu@physx@@QEAAXXZ 000000018001b220 f i GuContactCapsuleMesh.obj
 0001:0001a250       ?isCollisionVertex@HeightFieldUtil@Gu@physx@@QEBA_NIII@Z 000000018001b250 f i GuContactCapsuleMesh.obj
 0001:0001a270       ?isKindOf@PxHeightField@physx@@MEBA_NPEBD@Z 000000018001b270 f i GuContactCapsuleMesh.obj
 0001:0001a2c0       ?isQueryVertex@HeightFieldUtil@Gu@physx@@QEBA_NIII@Z 000000018001b2c0 f i GuContactCapsuleMesh.obj
 0001:0001a380       ?isShapePointOnHeightField@HeightFieldUtil@Gu@physx@@QEBA_NMM@Z 000000018001b380 f i GuContactCapsuleMesh.obj
 0001:0001a3d0       ?makeFeatureCode@HeightFieldUtil@Gu@physx@@SAIIW4Feature@123@@Z 000000018001b3d0 f i GuContactCapsuleMesh.obj
 0001:0001a8c0       ?shape2hfp@HeightFieldUtil@Gu@physx@@QEBA?AVPxVec3@3@AEBV43@@Z 000000018001b8c0 f i GuContactCapsuleMesh.obj
 0001:0001a900       ?transformFast@PxBounds3@physx@@SA?AV12@AEBVPxTransform@2@AEBV12@@Z 000000018001b900 f i GuContactCapsuleMesh.obj
 0001:0001ace0       ?transformQueryBounds@FastVertex2ShapeScaling@Cm@physx@@QEBAXAEAVPxVec3@3@0AEAVPxMat33@3@@Z 000000018001bce0 f i GuContactCapsuleMesh.obj
 0001:0001af20       ?contactBoxConvex@Gu@physx@@YA_NAEBVGeometryUnion@12@0AEBVPxTransform@2@1AEBUNarrowPhaseParams@12@AEAUCache@12@AEAVContactBuffer@12@PEAVRenderOutput@Cm@2@@Z 000000018001bf20 f   GuContactConvexConvex.obj
 0001:0001b0c0       ?contactConvexConvex@Gu@physx@@YA_NAEBVGeometryUnion@12@0AEBVPxTransform@2@1AEBUNarrowPhaseParams@12@AEAUCache@12@AEAVContactBuffer@12@PEAVRenderOutput@Cm@2@@Z 000000018001c0c0 f   GuContactConvexConvex.obj
 0001:0001b210       ??0SeparatingAxes@Gu@physx@@QEAA@$$QEAV012@@Z 000000018001c210 f i GuContactConvexConvex.obj
 0001:0001b320       ??0SeparatingAxes@Gu@physx@@QEAA@AEBV012@@Z 000000018001c320 f i GuContactConvexConvex.obj
 0001:0001b430       ??0SeparatingAxes@Gu@physx@@QEAA@XZ 000000018001c430 f i GuContactConvexConvex.obj
 0001:0001b440       ??4SeparatingAxes@Gu@physx@@QEAAAEAV012@$$QEAV012@@Z 000000018001c440 f i GuContactConvexConvex.obj
 0001:0001b550       ??4SeparatingAxes@Gu@physx@@QEAAAEAV012@AEBV012@@Z 000000018001c550 f i GuContactConvexConvex.obj
 0001:0001f760       ?getAxes@SeparatingAxes@Gu@physx@@QEBAPEBVPxVec3@3@XZ 0000000180020760 f i GuContactConvexConvex.obj
 0001:0001f770       ?getNumAxes@SeparatingAxes@Gu@physx@@QEBAIXZ 0000000180020770 f i GuContactConvexConvex.obj
 0001:0001fa80       ?reset@SeparatingAxes@Gu@physx@@QEAAXXZ 0000000180020a80 f i GuContactConvexConvex.obj
 0001:0001fa90       ?transformPlaneToShapeSpace@FastVertex2ShapeScaling@Cm@physx@@QEBAXAEBVPxVec3@3@MAEAV43@AEAM@Z 0000000180020a90 f i GuContactConvexConvex.obj
 0001:0001fb80       ?contactBoxMesh@Gu@physx@@YA_NAEBVGeometryUnion@12@0AEBVPxTransform@2@1AEBUNarrowPhaseParams@12@AEAUCache@12@AEAVContactBuffer@12@PEAVRenderOutput@Cm@2@@Z 0000000180020b80 f   GuContactConvexMesh.obj
 0001:0001fd40       ?contactConvexMesh@Gu@physx@@YA_NAEBVGeometryUnion@12@0AEBVPxTransform@2@1AEBUNarrowPhaseParams@12@AEAUCache@12@AEAVContactBuffer@12@PEAVRenderOutput@Cm@2@@Z 0000000180020d40 f   GuContactConvexMesh.obj
 0001:0001fef0       ?contactBoxHeightfield@Gu@physx@@YA_NAEBVGeometryUnion@12@0AEBVPxTransform@2@1AEBUNarrowPhaseParams@12@AEAUCache@12@AEAVContactBuffer@12@PEAVRenderOutput@Cm@2@@Z 0000000180020ef0 f   GuContactConvexMesh.obj
 0001:00020050       ?contactConvexHeightfield@Gu@physx@@YA_NAEBVGeometryUnion@12@0AEBVPxTransform@2@1AEBUNarrowPhaseParams@12@AEAUCache@12@AEAVContactBuffer@12@PEAVRenderOutput@Cm@2@@Z 0000000180021050 f   GuContactConvexMesh.obj
 0001:000205f0       ??0?$CacheMap@UCachedEdge@Gu@physx@@$0IA@@Gu@physx@@QEAA@XZ 00000001800215f0 f i GuContactConvexMesh.obj
 0001:000206b0       ??0?$CacheMap@UCachedVertex@Gu@physx@@$0IA@@Gu@physx@@QEAA@XZ 00000001800216b0 f i GuContactConvexMesh.obj
 0001:00020770       ??0CachedEdge@Gu@physx@@QEAA@XZ 0000000180021770 f i GuContactConvexMesh.obj
 0001:00020780       ??0CachedVertex@Gu@physx@@QEAA@XZ 0000000180021780 f i GuContactConvexMesh.obj
 0001:00020ca0       ??_GConvexMeshContactGenerationCallback@@UEAAPEAXI@Z 0000000180021ca0 f i GuContactConvexMesh.obj
 0001:00020ca0       ??_EConvexMeshContactGenerationCallback@@UEAAPEAXI@Z 0000000180021ca0 f i GuContactConvexMesh.obj
 0001:00020cd0       ?addData@?$CacheMap@UCachedEdge@Gu@physx@@$0IA@@Gu@physx@@QEAA_NAEBUCachedEdge@23@@Z 0000000180021cd0 f i GuContactConvexMesh.obj
 0001:00020db0       ?addData@?$CacheMap@UCachedVertex@Gu@physx@@$0IA@@Gu@physx@@QEAA_NAEBUCachedVertex@23@@Z 0000000180021db0 f i GuContactConvexMesh.obj
 0001:00020e40       ?allocate@?$ReflectionAllocator@I@shdfnd@physx@@QEAAPEAX_KPEBDH@Z 0000000180021e40 f i GuContactConvexMesh.obj
 0001:00024380       ?processHit@ConvexMeshContactGenerationCallback@@UEAA_NAEBUPxRaycastHit@physx@@AEBVPxVec3@3@11AEAMPEBI@Z 0000000180025380 f i GuContactConvexMesh.obj
 0001:00024c50       ?recreate@?$Array@IV?$InlineAllocator@$0BBAA@V?$ReflectionAllocator@I@shdfnd@physx@@@shdfnd@physx@@@shdfnd@physx@@IEAAXI@Z 0000000180025c50 f i GuContactConvexMesh.obj
 0001:00025c80       ?contactPlaneBox@Gu@physx@@YA_NAEBVGeometryUnion@12@0AEBVPxTransform@2@1AEBUNarrowPhaseParams@12@AEAUCache@12@AEAVContactBuffer@12@PEAVRenderOutput@Cm@2@@Z 0000000180026c80 f   GuContactPlaneBox.obj
 0001:00026880       ?contactPlaneCapsule@Gu@physx@@YA_NAEBVGeometryUnion@12@0AEBVPxTransform@2@1AEBUNarrowPhaseParams@12@AEAUCache@12@AEAVContactBuffer@12@PEAVRenderOutput@Cm@2@@Z 0000000180027880 f   GuContactPlaneCapsule.obj
 0001:00026e90       ?contactPlaneConvex@Gu@physx@@YA_NAEBVGeometryUnion@12@0AEBVPxTransform@2@1AEBUNarrowPhaseParams@12@AEAUCache@12@AEAVContactBuffer@12@PEAVRenderOutput@Cm@2@@Z 0000000180027e90 f   GuContactPlaneConvex.obj
 0001:000277c0       ?findRotationMatrixFromZ@Gu@physx@@YA?AVPxMat33@2@AEBVPxVec3@2@@Z 00000001800287c0 f   GuContactPolygonPolygon.obj
 0001:00027a00       ?contactPolygonPolygonExt@Gu@physx@@YA_NIPEBVPxVec3@2@PEBEAEBVMatrix34@Cm@2@AEBVPxPlane@2@AEBVPxMat33@2@I01234AEBV32@22IIAEAVContactBuffer@12@_N5M@Z 0000000180028a00 f   GuContactPolygonPolygon.obj
 0001:0002ae10       ?contactSphereBox@Gu@physx@@YA_NAEBVGeometryUnion@12@0AEBVPxTransform@2@1AEBUNarrowPhaseParams@12@AEAUCache@12@AEAVContactBuffer@12@PEAVRenderOutput@Cm@2@@Z 000000018002be10 f   GuContactSphereBox.obj
 0001:0002b3f0       ?contactSphereCapsule@Gu@physx@@YA_NAEBVGeometryUnion@12@0AEBVPxTransform@2@1AEBUNarrowPhaseParams@12@AEAUCache@12@AEAVContactBuffer@12@PEAVRenderOutput@Cm@2@@Z 000000018002c3f0 f   GuContactSphereCapsule.obj
 0001:0002b790       ?contactSphereMesh@Gu@physx@@YA_NAEBVGeometryUnion@12@0AEBVPxTransform@2@1AEBUNarrowPhaseParams@12@AEAUCache@12@AEAVContactBuffer@12@PEAVRenderOutput@Cm@2@@Z 000000018002c790 f   GuContactSphereMesh.obj
 0001:0002c8e0       ?contactSphereHeightfield@Gu@physx@@YA_NAEBVGeometryUnion@12@0AEBVPxTransform@2@1AEBUNarrowPhaseParams@12@AEAUCache@12@AEAVContactBuffer@12@PEAVRenderOutput@Cm@2@@Z 000000018002d8e0 f   GuContactSphereMesh.obj
 0001:0002dba0       ??0TriangleData@@QEAA@XZ   000000018002eba0 f i GuContactSphereMesh.obj
 0001:0002eee0       ?contactSpherePlane@Gu@physx@@YA_NAEBVGeometryUnion@12@0AEBVPxTransform@2@1AEBUNarrowPhaseParams@12@AEAUCache@12@AEAVContactBuffer@12@PEAVRenderOutput@Cm@2@@Z 000000018002fee0 f   GuContactSpherePlane.obj
 0001:0002f0e0       ?contactSphereSphere@Gu@physx@@YA_NAEBVGeometryUnion@12@0AEBVPxTransform@2@1AEBUNarrowPhaseParams@12@AEAUCache@12@AEAVContactBuffer@12@PEAVRenderOutput@Cm@2@@Z 00000001800300e0 f   GuContactSphereSphere.obj
 0001:0002f250       ?selectNormal@Gu@physx@@YA_NEMM@Z 0000000180030250 f   GuFeatureCode.obj
 0001:0002f2d0       ?legacyContactBoxHeightfield@Gu@physx@@YA_NAEBVGeometryUnion@12@0AEBVPxTransform@2@1AEBUNarrowPhaseParams@12@AEAUCache@12@AEAVContactBuffer@12@PEAVRenderOutput@Cm@2@@Z 00000001800302d0 f   GuLegacyContactBoxHeightField.obj
 0001:00031100       ??$traceSegment@UGuContactTraceSegmentCallback@Gu@physx@@$00$0A@@HeightFieldTraceUtil@Gu@physx@@QEBAXAEBVPxVec3@2@0MPEAUGuContactTraceSegmentCallback@12@AEBVPxBounds3@2@_NPEBV32@@Z 0000000180032100 f i GuLegacyContactBoxHeightField.obj
 0001:00031eb0       ?underFaceHit@GuContactTraceSegmentCallback@Gu@physx@@QEAA_NAEBVHeightFieldUtil@23@AEBVPxVec3@3@1MMMI@Z 0000000180032eb0 f i GuLegacyContactBoxHeightField.obj
 0001:00032280       ?legacyContactCapsuleHeightfield@Gu@physx@@YA_NAEBVGeometryUnion@12@0AEBVPxTransform@2@1AEBUNarrowPhaseParams@12@AEAUCache@12@AEAVContactBuffer@12@PEAVRenderOutput@Cm@2@@Z 0000000180033280 f   GuLegacyContactCapsuleHeightField.obj
 0001:00034190       ?legacyContactConvexHeightfield@Gu@physx@@YA_NAEBVGeometryUnion@12@0AEBVPxTransform@2@1AEBUNarrowPhaseParams@12@AEAUCache@12@AEAVContactBuffer@12@PEAVRenderOutput@Cm@2@@Z 0000000180035190 f   GuLegacyContactConvexHeightField.obj
 0001:00036190       ?legacyContactSphereHeightfield@Gu@physx@@YA_NAEBVGeometryUnion@12@0AEBVPxTransform@2@1AEBUNarrowPhaseParams@12@AEAUCache@12@AEAVContactBuffer@12@PEAVRenderOutput@Cm@2@@Z 0000000180037190 f   GuLegacyContactSphereHeightField.obj
 0001:000361e0       ?GuContactSphereHeightFieldShared@@YA_NAEBVGeometryUnion@Gu@physx@@0AEBVPxTransform@3@1AEBUNarrowPhaseParams@23@AEAUCache@23@AEAVContactBuffer@23@PEAVRenderOutput@Cm@3@_N@Z 00000001800371e0 f   GuLegacyContactSphereHeightField.obj
 0001:00037ab0       ?barycentricCoordinates@Gu@physx@@YAXAEBT__m128@@00AEAT3@@Z 0000000180038ab0 f   GuBarycentricCoordinates.obj
 0001:00037b20       ?barycentricCoordinates@Gu@physx@@YAXAEBT__m128@@000AEAT3@1@Z 0000000180038b20 f   GuBarycentricCoordinates.obj
 0001:00037c70       ?barycentricCoordinates@Gu@physx@@YAXAEBT__m128@@00AEAT3@1@Z 0000000180038c70 f   GuBarycentricCoordinates.obj
 0001:00037d60       ?addAxis@SeparatingAxes@Gu@physx@@QEAA_NAEBVPxVec3@3@@Z 0000000180038d60 f   GuSeparatingAxes.obj
 0001:00037e20       ??0BigConvexData@physx@@QEAA@XZ 0000000180038e20 f   GuBigConvexData.obj
 0001:00037e50       ??1BigConvexData@physx@@QEAA@XZ 0000000180038e50 f   GuBigConvexData.obj
 0001:00037ee0       ?Load@BigConvexData@physx@@QEAA_NAEAVPxInputStream@2@@Z 0000000180038ee0 f   GuBigConvexData.obj
 0001:00038000       ?ComputeOffset@BigConvexData@physx@@QEBAIAEBVPxVec3@2@@Z 0000000180039000 f   GuBigConvexData.obj
 0001:00038100       ?ComputeNearestOffset@BigConvexData@physx@@QEBAIAEBVPxVec3@2@@Z 0000000180039100 f   GuBigConvexData.obj
 0001:00038210       ?exportExtraData@BigConvexData@physx@@QEAAXAEAVPxSerializationContext@2@@Z 0000000180039210 f   GuBigConvexData.obj
 0001:00038290       ?importExtraData@BigConvexData@physx@@QEAAXAEAVPxDeserializationContext@2@@Z 0000000180039290 f   GuBigConvexData.obj
 0001:00038310       ?CreateOffsets@BigConvexData@physx@@IEAAXXZ 0000000180039310 f   GuBigConvexData.obj
 0001:00038360       ?VLoad@BigConvexData@physx@@IEAA_NAEAVPxInputStream@2@@Z 0000000180039360 f   GuBigConvexData.obj
 0001:00038500       ??0BigConvexData@physx@@QEAA@W4PxEMPTY@1@@Z 0000000180039500 f i GuBigConvexData.obj
 0001:00038510       ??4BigConvexData@physx@@QEAAAEAV01@AEBV01@@Z 0000000180039510 f i GuBigConvexData.obj
 0001:00038530       ?GetAdjacentVerts@BigConvexData@physx@@QEBAPEBEXZ 0000000180039530 f i GuBigConvexData.obj
 0001:00038540       ?GetNbNeighbors@BigConvexData@physx@@QEBAGI@Z 0000000180039540 f i GuBigConvexData.obj
 0001:00038550       ?GetNbSamples@BigConvexData@physx@@QEBAIXZ 0000000180039550 f i GuBigConvexData.obj
 0001:00038560       ?GetNbVerts@BigConvexData@physx@@QEBAIXZ 0000000180039560 f i GuBigConvexData.obj
 0001:00038570       ?GetNeighbors@BigConvexData@physx@@QEBAPEBEI@Z 0000000180039570 f i GuBigConvexData.obj
 0001:00038580       ?GetOffset@BigConvexData@physx@@QEBAGI@Z 0000000180039580 f i GuBigConvexData.obj
 0001:00038590       ?GetSubdiv@BigConvexData@physx@@QEBAIXZ 0000000180039590 f i GuBigConvexData.obj
 0001:000385a0       ?GetValencies@BigConvexData@physx@@QEBAPEBUValency@Gu@2@XZ 00000001800395a0 f i GuBigConvexData.obj
 0001:000385b0       ?GetValency@BigConvexData@physx@@QEBAGI@Z 00000001800395b0 f i GuBigConvexData.obj
 0001:000385c0       ?__global_array_delete@@YAXPEAX@Z 00000001800395c0 f i GuBigConvexData.obj
 0001:000385d0       ?__global_array_delete@@YAXPEAX_K@Z 00000001800395d0 f i GuBigConvexData.obj
 0001:000385e0       ?__global_delete@@YAXPEAX@Z 00000001800395e0 f i GuBigConvexData.obj
 0001:000385f0       ?__global_delete@@YAXPEAX_K@Z 00000001800395f0 f i GuBigConvexData.obj
 0001:00038600       ?getScaledConvex@Gu@physx@@YAXAEAPEAVPxVec3@2@AEAPEAEPEAV32@PEAE_NPEBV32@PEBEIAEBVFastVertex2ShapeScaling@Cm@2@@Z 0000000180039600 f   GuConvexHelper.obj
 0001:00038740       ?getConvexData@Gu@physx@@YA_NAEBVGeometryUnion@12@AEAVFastVertex2ShapeScaling@Cm@2@AEAVPxBounds3@2@AEAUPolygonalData@12@@Z 0000000180039740 f   GuConvexHelper.obj
 0001:000389c0       ?findUniqueConvexEdges@Gu@physx@@YAIIPEIAUConvexEdge@12@IPEIBUHullPolygonData@12@PEIBE@Z 00000001800399c0 f   GuConvexHelper.obj
 0001:00038b00       ?exportExtraData@ConvexMesh@Gu@physx@@UEAAXAEAVPxSerializationContext@3@@Z 0000000180039b00 f   GuConvexMesh.obj
 0001:00038bd0       ?importExtraData@ConvexMesh@Gu@physx@@QEAAXAEAVPxDeserializationContext@3@@Z 0000000180039bd0 f   GuConvexMesh.obj
 0001:00038c90       ?onRefCountZero@ConvexMesh@Gu@physx@@UEAAXXZ 0000000180039c90 f   GuConvexMesh.obj
 0001:00038d80       ?createObject@ConvexMesh@Gu@physx@@SAPEAV123@AEAPEAEAEAVPxDeserializationContext@3@@Z 0000000180039d80 f   GuConvexMesh.obj
 0001:00038e00       ??0ConvexMesh@Gu@physx@@QEAA@XZ 0000000180039e00 f   GuConvexMesh.obj
 0001:00038eb0       ??0ConvexMesh@Gu@physx@@QEAA@AEAVGuMeshFactory@2@AEAUConvexHullData@12@@Z 0000000180039eb0 f   GuConvexMesh.obj
 0001:00038fb0       ?load@ConvexMesh@Gu@physx@@QEAA_NAEAVPxInputStream@3@@Z 0000000180039fb0 f   GuConvexMesh.obj
 0001:00039260       ?release@ConvexMesh@Gu@physx@@UEAAXXZ 000000018003a260 f   GuConvexMesh.obj
 0001:000392a0       ?getPolygonData@ConvexMesh@Gu@physx@@UEBA_NIAEAUPxHullPolygon@3@@Z 000000018003a2a0 f   GuConvexMesh.obj
 0001:000392f0       ?isGpuCompatible@ConvexMesh@Gu@physx@@UEBA_NXZ 000000018003a2f0 f   GuConvexMesh.obj
 0001:00039320       ?getReferenceCount@ConvexMesh@Gu@physx@@UEBAIXZ 000000018003a320 f   GuConvexMesh.obj
 0001:00039330       ?acquireReference@ConvexMesh@Gu@physx@@UEAAXXZ 000000018003a330 f   GuConvexMesh.obj
 0001:00039340       ?getMassInformation@ConvexMesh@Gu@physx@@UEBAXAEAMAEAVPxMat33@3@AEAVPxVec3@3@@Z 000000018003a340 f   GuConvexMesh.obj
 0001:000393c0       ?getLocalBounds@ConvexMesh@Gu@physx@@UEBA?AVPxBounds3@3@XZ 000000018003a3c0 f   GuConvexMesh.obj
 0001:00039450       ??1ConvexMesh@Gu@physx@@UEAA@XZ 000000018003a450 f   GuConvexMesh.obj
 0001:000399a0       ?notifyReleaseConvexMesh@GuMeshFactory@physx@@MEAAXAEBVPxConvexMesh@2@@Z 000000018003a9a0 f i GuConvexMesh.obj
 0001:000399b0       ?notifyReleaseHeightField@GuMeshFactory@physx@@MEAAXAEBVPxHeightField@2@@Z 000000018003a9b0 f i GuConvexMesh.obj
 0001:000399c0       ?notifyReleaseTriangleMesh@GuMeshFactory@physx@@MEAAXAEBVPxTriangleMesh@2@@Z 000000018003a9c0 f i GuConvexMesh.obj
 0001:000399d0       ?computeHullOBB@Gu@physx@@YAXAEAVBox@12@AEBVPxBounds3@2@MAEBVMatrix34@Cm@2@2AEBVFastVertex2ShapeScaling@62@_N@Z 000000018003a9d0 f   GuConvexUtilsInternal.obj
 0001:00039e90       ?computeVertexSpaceOBB@Gu@physx@@YAXAEAVBox@12@AEBV312@AEBVPxTransform@2@AEBVPxMeshScale@2@@Z 000000018003ae90 f   GuConvexUtilsInternal.obj
 0001:0003a250       ?computeOBBAroundConvex@Gu@physx@@YAXAEAVBox@12@AEBVPxConvexMeshGeometry@2@PEBVPxConvexMesh@2@AEBVPxTransform@2@@Z 000000018003b250 f   GuConvexUtilsInternal.obj
 0001:0003ab60       ??Dphysx@@YA?AVMatrix34@Cm@0@AEBVPxMeshScale@0@AEBV120@@Z 000000018003bb60 f i GuConvexUtilsInternal.obj
 0001:0003b130       ?transform@physx@@YA?AVBox@Gu@1@AEBVMatrix34@Cm@1@AEBV231@@Z 000000018003c130 f i GuConvexUtilsInternal.obj
 0001:0003b380       ?localSearch@physx@@YAXAEAIAEBVPxVec3@1@PEBV21@PEBUBigConvexRawData@Gu@1@@Z 000000018003c380 f   GuHillClimbing.obj
 0001:0003b4b0       ??0PolygonalBox@Gu@physx@@QEAA@AEBVPxVec3@2@@Z 000000018003c4b0 f   GuShapeConvex.obj
 0001:0003b680       ?getPolygonalData@PolygonalBox@Gu@physx@@QEBAXPEIAUPolygonalData@23@@Z 000000018003c680 f   GuShapeConvex.obj
 0001:0003b6f0       ?getPolygonalData_Convex@Gu@physx@@YAXPEIAUPolygonalData@12@PEIBUConvexHullData@12@AEBVFastVertex2ShapeScaling@Cm@2@@Z 000000018003c6f0 f   GuShapeConvex.obj
 0001:0003cb80       ??0HullPolygonData@Gu@physx@@QEAA@XZ 000000018003db80 f i GuShapeConvex.obj
 0001:0003cb90       ?distancePointBoxSquared@Gu@physx@@YAMAEBVPxVec3@2@00AEBVPxMat33@2@PEAV32@@Z 000000018003db90 f   GuDistancePointBox.obj
 0001:0003cce0       ?closestPtPointTriangle@Gu@physx@@YA?AVPxVec3@2@AEBV32@000AEAM1@Z 000000018003dce0 f   GuDistancePointTriangle.obj
 0001:0003d200       ?distancePointTriangleSquared@Gu@physx@@YA?AT__m128@@AEBT3@000AEAT3@11@Z 000000018003e200 f   GuDistancePointTriangle.obj
 0001:0003d600       ?distanceSegmentBoxSquared@Gu@physx@@YAMAEBVPxVec3@2@000AEBVPxMat33@2@PEAMPEAV32@@Z 000000018003e600 f   GuDistanceSegmentBox.obj
 0001:0003e7d0       ?distanceSegmentSegmentSquared@Gu@physx@@YAMAEBVPxVec3@2@0M00MPEAM1@Z 000000018003f7d0 f   GuDistanceSegmentSegment.obj
 0001:0003ef20       ?distanceSegmentSegmentSquared@Gu@physx@@YAMAEBVPxVec3@2@000PEAM1@Z 000000018003ff20 f   GuDistanceSegmentSegment.obj
 0001:0003f1c0       ?distanceSegmentSegmentSquared@Gu@physx@@YA?AT__m128@@AEBT3@000AEAT3@1@Z 00000001800401c0 f   GuDistanceSegmentSegment.obj
 0001:0003f390       ?distanceSegmentSegmentSquared4@Gu@physx@@YA?AT__m128@@AEBT3@000000000AEAT3@1@Z 0000000180040390 f   GuDistanceSegmentSegment.obj
 0001:0003f6b0       ?distanceSegmentTriangleSquared@Gu@physx@@YAMAEBVPxVec3@2@0000PEAM11@Z 00000001800406b0 f   GuDistanceSegmentTriangle.obj
 0001:00040d40       ?distanceSegmentTriangleSquared@Gu@physx@@YA?AT__m128@@AEBT3@0000AEAT3@1@Z 0000000180041d40 f   GuDistanceSegmentTriangle.obj
 0001:00041480       ?sweepBoxBox@Gu@physx@@YA_NAEBVBox@12@0AEBVPxVec3@2@MV?$PxFlags@W4Enum@PxHitFlag@physx@@G@2@AEAUPxSweepHit@2@@Z 0000000180042480 f   GuSweepBoxBox.obj
 0001:00042a40       ?sweepBoxSphere@Gu@physx@@YA_NAEBVBox@12@MAEBVPxVec3@2@1MAEAMAEAV42@V?$PxFlags@W4Enum@PxHitFlag@physx@@G@2@@Z 0000000180043a40 f   GuSweepBoxSphere.obj
 0001:000434e0       ?sweepBoxTriangle@Gu@physx@@YA_NAEBVPxTriangle@2@AEBVPxBounds3@2@AEBVPxVec3@2@2AEAV52@3AEAM_N@Z 00000001800444e0 f   GuSweepBoxTriangle_FeatureBased.obj
 0001:00044d20       ?triBoxSweepTestBoxSpace@Gu@physx@@YAHAEBVPxTriangle@2@AEBVPxVec3@2@11MAEAM_N@Z 0000000180045d20 f   GuSweepBoxTriangle_SAT.obj
 0001:00045660       ?sweepCapsuleBox@Gu@physx@@YA_NAEBVCapsule@12@AEBVPxTransform@2@AEBVPxVec3@2@2MAEAV52@AEAM3V?$PxFlags@W4Enum@PxHitFlag@physx@@G@2@@Z 0000000180046660 f   GuSweepCapsuleBox.obj
 0001:000459d0       ??0PxTriangle@physx@@QEAA@XZ 00000001800469d0 f i GuSweepCapsuleBox.obj
 0001:000459e0       ??1PxTriangle@physx@@QEAA@XZ 00000001800469e0 f i GuSweepCapsuleBox.obj
 0001:000469c0       ?sweepCapsuleCapsule@Gu@physx@@YA_NAEBVCapsule@12@0AEBVPxVec3@2@MAEAMAEAV42@3IAEAG@Z 00000001800479c0 f   GuSweepCapsuleCapsule.obj
 0001:00047790       ??0Capsule@Gu@physx@@QEAA@XZ 0000000180048790 f i GuSweepCapsuleCapsule.obj
 0001:000477a0       ??1Capsule@Gu@physx@@QEAA@XZ 00000001800487a0 f i GuSweepCapsuleCapsule.obj
 0001:000477b0       ?distancePointSegmentSquared@Gu@physx@@YAMAEBVSegment@12@AEBVPxVec3@2@PEAM@Z 00000001800487b0 f i GuSweepCapsuleCapsule.obj
 0001:00047b30       ?sweepCapsuleTriangles_Precise@Gu@physx@@YA_NIPEIBVPxTriangle@2@AEBVCapsule@12@AEBVPxVec3@2@MPEIBIAEAUPxSweepHit@2@AEAV52@V?$PxFlags@W4Enum@PxHitFlag@physx@@G@2@_NPEBVBoxPadded@12@@Z 0000000180048b30 f   GuSweepCapsuleTriangle.obj
 0001:00049be0       ?sweepSphereCapsule@Gu@physx@@YA_NAEBVSphere@12@AEBVCapsule@12@AEBVPxVec3@2@MAEAMAEAV52@4V?$PxFlags@W4Enum@PxHitFlag@physx@@G@2@@Z 000000018004abe0 f   GuSweepSphereCapsule.obj
 0001:0004a280       ?sweepSphereSphere@Gu@physx@@YA_NAEBVPxVec3@2@M0M0AEAMAEAV32@@Z 000000018004b280 f   GuSweepSphereSphere.obj
 0001:0004a510       ?sweepSphereVSTri@Gu@physx@@YA_NPEIBVPxVec3@2@AEBV32@1M1AEAMAEA_N_N@Z 000000018004b510 f   GuSweepSphereTriangle.obj
 0001:0004b400       ?sweepSphereVSQuad@Gu@physx@@YA_NPEIBVPxVec3@2@AEBV32@1M1AEAM@Z 000000018004c400 f   GuSweepSphereTriangle.obj
 0001:0004c890       ?sweepSphereTriangles@Gu@physx@@YA_NIPEIBVPxTriangle@2@AEBVPxVec3@2@M1MPEIBIAEAUPxSweepHit@2@AEAV42@_N555@Z 000000018004d890 f   GuSweepSphereTriangle.obj
 0001:0004d140       ?computeSphereTriImpactData@Gu@physx@@YAXAEAVPxVec3@2@0AEBV32@1MAEBVPxTriangle@2@@Z 000000018004e140 f   GuSweepTriangleUtils.obj
 0001:0004d3e0       ?computeBoxTriImpactData@Gu@physx@@YAXAEAVPxVec3@2@0AEBV32@1AEBVPxTriangle@2@M@Z 000000018004e3e0 f   GuSweepTriangleUtils.obj
 0001:0004d670       ?computeEdgeEdgeNormal@Gu@physx@@YAXAEAVPxVec3@2@AEBV32@1111M@Z 000000018004e670 f   GuSweepTriangleUtils.obj
 0001:0004d930       ??$gjk@U?$LocalConvex@VTriangleV@Gu@physx@@@Gu@physx@@U?$LocalConvex@VBoxV@Gu@physx@@@23@@Gu@physx@@YA?AW4GjkStatus@01@AEBU?$LocalConvex@VTriangleV@Gu@physx@@@01@AEBU?$LocalConvex@VBoxV@Gu@physx@@@01@AEBT__m128@@2AEAT5@333@Z 000000018004e930 f i GuSweepTriangleUtils.obj
 0001:0004e620       ??_E?$LocalConvex@VBoxV@Gu@physx@@@Gu@physx@@UEAAPEAXI@Z 000000018004f620 f i GuSweepTriangleUtils.obj
 0001:0004e620       ??_G?$LocalConvex@VBoxV@Gu@physx@@@Gu@physx@@UEAAPEAXI@Z 000000018004f620 f i GuSweepTriangleUtils.obj
 0001:0004e650       ??_E?$LocalConvex@VTriangleV@Gu@physx@@@Gu@physx@@UEAAPEAXI@Z 000000018004f650 f i GuSweepTriangleUtils.obj
 0001:0004e650       ??_G?$LocalConvex@VTriangleV@Gu@physx@@@Gu@physx@@UEAAPEAXI@Z 000000018004f650 f i GuSweepTriangleUtils.obj
 0001:0004e680       ?getCenter@?$LocalConvex@VBoxV@Gu@physx@@@Gu@physx@@UEBA?AT__m128@@XZ 000000018004f680 f i GuSweepTriangleUtils.obj
 0001:0004e690       ?getCenter@?$LocalConvex@VTriangleV@Gu@physx@@@Gu@physx@@UEBA?AT__m128@@XZ 000000018004f690 f i GuSweepTriangleUtils.obj
 0001:0004e6a0       ?getSweepMargin@?$LocalConvex@VBoxV@Gu@physx@@@Gu@physx@@UEBA?AT__m128@@XZ 000000018004f6a0 f i GuSweepTriangleUtils.obj
 0001:0004e6c0       ?getSweepMargin@?$LocalConvex@VTriangleV@Gu@physx@@@Gu@physx@@UEBA?AT__m128@@XZ 000000018004f6c0 f i GuSweepTriangleUtils.obj
 0001:0004e930       ?support@?$LocalConvex@VBoxV@Gu@physx@@@Gu@physx@@UEBA?AT__m128@@AEBT4@@Z 000000018004f930 f i GuSweepTriangleUtils.obj
 0001:0004e960       ?support@?$LocalConvex@VBoxV@Gu@physx@@@Gu@physx@@UEBA?AT__m128@@AEBT4@AEAHPEAT4@@Z 000000018004f960 f i GuSweepTriangleUtils.obj
 0001:0004e9a0       ?support@?$LocalConvex@VTriangleV@Gu@physx@@@Gu@physx@@UEBA?AT__m128@@AEBT4@@Z 000000018004f9a0 f i GuSweepTriangleUtils.obj
 0001:0004ea30       ?support@?$LocalConvex@VTriangleV@Gu@physx@@@Gu@physx@@UEBA?AT__m128@@AEBT4@AEAHPEAT4@@Z 000000018004fa30 f i GuSweepTriangleUtils.obj
 0001:0004eb10       ?supportPoint@?$LocalConvex@VBoxV@Gu@physx@@@Gu@physx@@UEBA?AT__m128@@HPEAT4@@Z 000000018004fb10 f i GuSweepTriangleUtils.obj
 0001:0004eb50       ?supportPoint@?$LocalConvex@VTriangleV@Gu@physx@@@Gu@physx@@UEBA?AT__m128@@HPEAT4@@Z 000000018004fb50 f i GuSweepTriangleUtils.obj
 0001:0004eb70       ?epaPenetration@Gu@physx@@YA?AW4GjkStatus@12@AEBUGjkConvex@12@0PEIAE1EAEAT__m128@@222_N@Z 000000018004fb70 f   GuEPA.obj
 0001:0004fa40       ?isValid2@Facet@Gu@physx@@QEAA?AT__m128@@IIIPEIBT4@0AEBT4@@Z 0000000180050a40 f   GuEPA.obj
 0001:0004fb30       ?silhouette@Facet@Gu@physx@@QEAAXAEBT__m128@@PEIBT4@1AEAVEdgeBuffer@23@AEAV?$InlineDeferredIDPool@$0EA@@Cm@3@@Z 0000000180050b30 f   GuEPA.obj
 0001:0004fd00       ?PenetrationDepth@EPA@Gu@physx@@QEAA?AW4GjkStatus@23@AEBUGjkConvex@23@0PEIBT__m128@@11HAEAT6@222_N@Z 0000000180050d00 f   GuEPA.obj
 0001:00050810       ?expandPoint@EPA@Gu@physx@@QEAA_NAEBUGjkConvex@23@0AEAHAEBT__m128@@@Z 0000000180051810 f   GuEPA.obj
 0001:00050900       ?expandSegment@EPA@Gu@physx@@QEAA_NAEBUGjkConvex@23@0AEAHAEBT__m128@@@Z 0000000180051900 f   GuEPA.obj
 0001:00050a90       ?expandTriangle@EPA@Gu@physx@@QEAA_NAEAHAEBT__m128@@@Z 0000000180051a90 f   GuEPA.obj
 0001:00050b40       ?addFacet@EPA@Gu@physx@@QEAAPEAVFacet@23@IIIAEBT__m128@@@Z 0000000180051b40 f   GuEPA.obj
 0001:00050d10       ??0Edge@Gu@physx@@QEAA@XZ  0000000180051d10 f i GuEPA.obj
 0001:00050d20       ??0Facet@Gu@physx@@QEAA@XZ 0000000180051d20 f i GuEPA.obj
 0001:00051000       ?closestPtPointTetrahedron@Gu@physx@@YA?AT__m128@@PEIAT3@00AEAI@Z 0000000180052000 f   GuGJKSimplex.obj
 0001:00051780       ?closestPtPointTetrahedron@Gu@physx@@YA?AT__m128@@PEIAT3@00PEIAH1AEAI@Z 0000000180052780 f   GuGJKSimplex.obj
 0001:00053230       ?testGjk@Gu@physx@@YA?AW4GjkStatus@12@AEAUGjkConvex@12@0AEBT__m128@@1AEAT5@222@Z 0000000180054230 f   GuGJKTest.obj
 0001:00053240       ?testGjkPenetration@Gu@physx@@YA?AW4GjkStatus@12@AEAUGjkConvex@12@0AEBT__m128@@1AEAT5@222@Z 0000000180054240 f   GuGJKTest.obj
 0001:000532d0       ?testGjkPenetration@Gu@physx@@YA?AW4GjkStatus@12@AEAUGjkConvex@12@0AEBT__m128@@1AEAT5@222PEAE3E@Z 00000001800542d0 f   GuGJKTest.obj
 0001:00053360       ?testEpaPenetration@Gu@physx@@YA?AW4GjkStatus@12@AEAUGjkConvex@12@0AEAT__m128@@111@Z 0000000180054360 f   GuGJKTest.obj
 0001:000533d0       ?testEpaPenetration@Gu@physx@@YA?AW4GjkStatus@12@AEAUGjkConvex@12@0AEAT__m128@@111PEAE2E@Z 00000001800543d0 f   GuGJKTest.obj
 0001:00053450       ?testGjkRaycast@Gu@physx@@YA_NAEAUGjkConvex@12@0AEBT__m128@@111AEAT4@22M@Z 0000000180054450 f   GuGJKTest.obj
 0001:00053460       ??$gjk@UGjkConvex@Gu@physx@@U123@@Gu@physx@@YA?AW4GjkStatus@01@AEBUGjkConvex@01@0AEBT__m128@@1AEAT4@222@Z 0000000180054460 f i GuGJKTest.obj
 0001:00054080       ??$gjkPenetration@UGjkConvex@Gu@physx@@U123@@Gu@physx@@YA?AW4GjkStatus@01@AEBUGjkConvex@01@0AEBT__m128@@1AEAT4@222PEIAE3AEAE_N@Z 0000000180055080 f i GuGJKTest.obj
 0001:00055610       ??$gjkRaycast@UGjkConvex@Gu@physx@@U123@@Gu@physx@@YA_NAEBUGjkConvex@01@0AEBT__m128@@111AEAT3@22M@Z 0000000180056610 f i GuGJKTest.obj
 0001:000561b0       ?intersectOBBOBB@Gu@physx@@YA_NAEBVPxVec3@2@0AEBVPxMat33@2@001_N@Z 00000001800571b0 f   GuIntersectionBoxBox.obj
 0001:00056810       ?intersectCapsuleTriangle@Gu@physx@@YA_NAEBVPxVec3@2@000AEBVCapsule@12@AEBUCapsuleTriangleOverlapData@12@@Z 0000000180057810 f   GuIntersectionCapsuleTriangle.obj
 0001:000573a0       ?intersectEdgeEdge@Gu@physx@@YA_NAEBVPxVec3@2@0000AEAMAEAV32@@Z 00000001800583a0 f   GuIntersectionEdgeEdge.obj
 0001:000576d0       ?rayAABBIntersect@Gu@physx@@YA_NAEBVPxVec3@2@000AEAV32@@Z 00000001800586d0 f   GuIntersectionRayBox.obj
 0001:000578e0       ?rayAABBIntersect2@Gu@physx@@YAIAEBVPxVec3@2@000AEAV32@AEAM@Z 00000001800588e0 f   GuIntersectionRayBox.obj
 0001:00057b00       ?intersectRayAABB@Gu@physx@@YAHAEBVPxVec3@2@000AEAM1@Z 0000000180058b00 f   GuIntersectionRayBox.obj
 0001:00057c30       ?intersectRayAABB@Gu@physx@@YAHAEBVPxVec3@2@0000AEAM1@Z 0000000180058c30 f   GuIntersectionRayBox.obj
 0001:00057e30       ?intersectRayAABB2@Gu@physx@@YA_NAEBVPxVec3@2@000MAEAM1@Z 0000000180058e30 f   GuIntersectionRayBox.obj
 0001:00057fe0       ?intersectRayAABB2@Gu@physx@@YA_NAEBT__m128@@0000AEAT3@1@Z 0000000180058fe0 f   GuIntersectionRayBox.obj
 0001:000580a0       ?intersectRayCapsuleInternal@Gu@physx@@YAIAEBVPxVec3@2@000MQEAM@Z 00000001800590a0 f   GuIntersectionRayCapsule.obj
 0001:00058930       ?intersectRaySphereBasic@Gu@physx@@YA_NAEBVPxVec3@2@0M0MAEAMPEAV32@@Z 0000000180059930 f   GuIntersectionRaySphere.obj
 0001:00058a90       ?intersectRaySphere@Gu@physx@@YA_NAEBVPxVec3@2@0M0MAEAMPEAV32@@Z 0000000180059a90 f   GuIntersectionRaySphere.obj
 0001:00058cd0       ?intersectSphereBox@Gu@physx@@YA_NAEBVSphere@12@AEBVBox@12@@Z 0000000180059cd0 f   GuIntersectionSphereBox.obj
 0001:00058f00       ?intersectTriangleBox_ReferenceCode@Gu@physx@@YAHAEBVPxVec3@2@0000@Z 0000000180059f00 f   GuIntersectionTriangleBox.obj
 0001:00059720       ?intersectTriangleBox_Unsafe@Gu@physx@@YAHAEBVPxVec3@2@0000@Z 000000018005a720 f   GuIntersectionTriangleBox.obj
 0001:00059b00       ?intersectTriangleBox@Gu@physx@@YAHAEBVBoxPadded@12@AEBVPxVec3@2@11@Z 000000018005ab00 f   GuIntersectionTriangleBox.obj
 0001:0005a0e0       ?intersectTriangleBoxBV4@@YAHAEBVPxVec3@physx@@00AEBVPxMat33@2@00@Z 000000018005b0e0 f   GuIntersectionTriangleBox.obj
 0001:0005a520       ??0BV32Tree@Gu@physx@@QEAA@W4PxEMPTY@2@@Z 000000018005b520 f   GuBV32.obj
 0001:0005a540       ?exportExtraData@BV32Tree@Gu@physx@@QEAAXAEAVPxSerializationContext@3@@Z 000000018005b540 f   GuBV32.obj
 0001:0005a590       ?importExtraData@BV32Tree@Gu@physx@@QEAAXAEAVPxDeserializationContext@3@@Z 000000018005b590 f   GuBV32.obj
 0001:0005a5c0       ??0BV32Tree@Gu@physx@@QEAA@XZ 000000018005b5c0 f   GuBV32.obj
 0001:0005a5f0       ??0BV32Tree@Gu@physx@@QEAA@PEAVSourceMesh@12@AEBVPxBounds3@2@@Z 000000018005b5f0 f   GuBV32.obj
 0001:0005a6b0       ??1BV32Tree@Gu@physx@@QEAA@XZ 000000018005b6b0 f   GuBV32.obj
 0001:0005a6c0       ?load@BV32Tree@Gu@physx@@QEAA_NAEAVPxInputStream@3@_N@Z 000000018005b6c0 f   GuBV32.obj
 0001:0005a8e0       ?calculateLeafNode@BV32Tree@Gu@physx@@QEAAXAEAUBV32Data@23@@Z 000000018005b8e0 f   GuBV32.obj
 0001:0005ab20       ?createSOAformatNode@BV32Tree@Gu@physx@@QEAAXAEAUBV32DataPacked@23@AEBUBV32Data@23@IAEAI2@Z 000000018005bb20 f   GuBV32.obj
 0001:0005af70       ?reset@BV32Tree@Gu@physx@@QEAAXXZ 000000018005bf70 f   GuBV32.obj
 0001:0005af90       ??4BV32Tree@Gu@physx@@QEAAXAEAV012@@Z 000000018005bf90 f   GuBV32.obj
 0001:0005aff0       ?init@BV32Tree@Gu@physx@@QEAA_NPEAVSourceMesh@23@AEBVPxBounds3@3@@Z 000000018005bff0 f   GuBV32.obj
 0001:0005b090       ?release@BV32Tree@Gu@physx@@QEAAXXZ 000000018005c090 f   GuBV32.obj
 0001:0005b120       ?BuildBV32Ex@Gu@physx@@YA_NAEAVBV32Tree@12@AEAVSourceMesh@12@MI@Z 000000018005c120 f   GuBV32Build.obj
 0001:0005b2e0       ??0BV32Data@Gu@physx@@QEAA@XZ 000000018005c2e0 f i GuBV32Build.obj
 0001:0005b310       ??0BV32Node@@QEAA@XZ       000000018005c310 f i GuBV32Build.obj
 0001:0005c380       ??0SourceMesh@Gu@physx@@QEAA@XZ 000000018005d380 f   GuBV4.obj
 0001:0005c3b0       ??1SourceMesh@Gu@physx@@QEAA@XZ 000000018005d3b0 f   GuBV4.obj
 0001:0005c410       ?reset@SourceMesh@Gu@physx@@QEAAXXZ 000000018005d410 f   GuBV4.obj
 0001:0005c430       ??4SourceMesh@Gu@physx@@QEAAXAEAV012@@Z 000000018005d430 f   GuBV4.obj
 0001:0005c480       ?remapTopology@SourceMesh@Gu@physx@@QEAAXPEBI@Z 000000018005d480 f   GuBV4.obj
 0001:0005c740       ?isValid@SourceMesh@Gu@physx@@QEBA_NXZ 000000018005d740 f   GuBV4.obj
 0001:0005c770       ??0BV4Tree@Gu@physx@@QEAA@W4PxEMPTY@2@@Z 000000018005d770 f   GuBV4.obj
 0001:0005c780       ?exportExtraData@BV4Tree@Gu@physx@@QEAAXAEAVPxSerializationContext@3@@Z 000000018005d780 f   GuBV4.obj
 0001:0005c7d0       ?importExtraData@BV4Tree@Gu@physx@@QEAAXAEAVPxDeserializationContext@3@@Z 000000018005d7d0 f   GuBV4.obj
 0001:0005c800       ??0BV4Tree@Gu@physx@@QEAA@XZ 000000018005d800 f   GuBV4.obj
 0001:0005c830       ??0BV4Tree@Gu@physx@@QEAA@PEAVSourceMesh@12@AEBVPxBounds3@2@@Z 000000018005d830 f   GuBV4.obj
 0001:0005c900       ??1BV4Tree@Gu@physx@@QEAA@XZ 000000018005d900 f   GuBV4.obj
 0001:0005c910       ?load@BV4Tree@Gu@physx@@QEAA_NAEAVPxInputStream@3@_N@Z 000000018005d910 f   GuBV4.obj
 0001:0005cb80       ?reset@BV4Tree@Gu@physx@@QEAAXXZ 000000018005db80 f   GuBV4.obj
 0001:0005cbb0       ??4BV4Tree@Gu@physx@@QEAAXAEAV012@@Z 000000018005dbb0 f   GuBV4.obj
 0001:0005cc40       ?init@BV4Tree@Gu@physx@@QEAA_NPEAVSourceMesh@23@AEBVPxBounds3@3@@Z 000000018005dc40 f   GuBV4.obj
 0001:0005cce0       ?release@BV4Tree@Gu@physx@@QEAAXXZ 000000018005dce0 f   GuBV4.obj
 0001:0005cd50       ??0IndTri16@Gu@physx@@QEAA@XZ 000000018005dd50 f i GuBV4.obj
 0001:0005cd60       ??0IndTri32@Gu@physx@@QEAA@XZ 000000018005dd60 f i GuBV4.obj
 0001:0005cd70       ??1IndTri16@Gu@physx@@QEAA@XZ 000000018005dd70 f i GuBV4.obj
 0001:0005cd80       ??1IndTri32@Gu@physx@@QEAA@XZ 000000018005dd80 f i GuBV4.obj
 0001:0005cd90       ??_EIndTri16@Gu@physx@@QEAAPEAXI@Z 000000018005dd90 f i GuBV4.obj
 0001:0005ce10       ??_EIndTri32@Gu@physx@@QEAAPEAXI@Z 000000018005de10 f i GuBV4.obj
 0001:0005ce90       ??0AABBTree@Gu@physx@@QEAA@XZ 000000018005de90 f   GuBV4Build.obj
 0001:0005ceb0       ??1AABBTree@Gu@physx@@QEAA@XZ 000000018005deb0 f   GuBV4Build.obj
 0001:0005cec0       ?buildFromMesh@AABBTree@Gu@physx@@QEAA_NAEAVSourceMesh@23@I@Z 000000018005dec0 f   GuBV4Build.obj
 0001:0005d2e0       ?release@AABBTree@Gu@physx@@QEAAXXZ 000000018005e2e0 f   GuBV4Build.obj
 0001:0005d390       ?walk@AABBTree@Gu@physx@@QEBAIP6A_NPEBVAABBTreeNode@23@IPEAX@Z1@Z 000000018005e390 f   GuBV4Build.obj
 0001:0005d450       ?BuildBV4Ex@Gu@physx@@YA_NAEAVBV4Tree@12@AEAVSourceMesh@12@MI@Z 000000018005e450 f   GuBV4Build.obj
 0001:0005d6e0       ??0BVData@@QEAA@XZ         000000018005e6e0 f   GuBV4Build.obj
 0001:0005d720       ??1BV4BuildParams@@QEAA@XZ 000000018005e720 f   GuBV4Build.obj
 0001:0005d730       ?allocateNode@BV4BuildParams@@QEAAPEAUBV4Node@@XZ 000000018005e730 f   GuBV4Build.obj
 0001:0005d850       ?releaseNodes@BV4BuildParams@@QEAAXXZ 000000018005e850 f   GuBV4Build.obj
 0001:0005d910       ??0AABBTreeNode@Gu@physx@@QEAA@XZ 000000018005e910 f i GuBV4Build.obj
 0001:0005d930       ??0BV4Node@@QEAA@XZ        000000018005e930 f i GuBV4Build.obj
 0001:0005d9e0       ??1AABBTreeNode@Gu@physx@@QEAA@XZ 000000018005e9e0 f i GuBV4Build.obj
 0001:0005d9f0       ??1BV4Node@@QEAA@XZ        000000018005e9f0 f i GuBV4Build.obj
 0001:0005da00       ??1BVData@@QEAA@XZ         000000018005ea00 f i GuBV4Build.obj
 0001:0005da10       ??_EAABBTreeNode@Gu@physx@@QEAAPEAXI@Z 000000018005ea10 f i GuBV4Build.obj
 0001:0005f670       ?Sweep_AABB_BV4@@YAHAEBVBox@Gu@physx@@AEBVPxVec3@3@MAEBVBV4Tree@23@PEIAVSweepHit@23@I@Z 0000000180060670 f   GuBV4_AABBSweep.obj
 0001:0005fbc0       ?Sweep_AABB_BV4_CB@@YAXAEBVBox@Gu@physx@@AEBVPxVec3@3@MAEBVBV4Tree@23@PEIBVPxMat44@3@P6A_NPEAXAEBVSweepHit@23@@Z4I_N@Z 0000000180060bc0 f   GuBV4_AABBSweep.obj
 0001:0005fd60       ?GenericSweep_AABB_CB@@YAXAEBVBox@Gu@physx@@AEBVPxVec3@3@MAEBVBV4Tree@23@P6A_NPEAX111IAEAM@Z3I@Z 0000000180060d60 f   GuBV4_AABBSweep.obj
 0001:00066c30       ?transform@PxMat44@physx@@QEBA?BVPxVec4@2@AEBV32@@Z 0000000180067c30 f i GuBV4_AABBSweep.obj
 0001:00067920       ?BV4_OverlapBoxAny@@YAHAEBVBox@Gu@physx@@AEBVBV4Tree@23@PEIBVPxMat44@3@@Z 0000000180068920 f   GuBV4_BoxOverlap.obj
 0001:000680e0       ?BV4_OverlapBoxAll@@YAIAEBVBox@Gu@physx@@AEBVBV4Tree@23@PEIBVPxMat44@3@PEAIIAEA_N@Z 00000001800690e0 f   GuBV4_BoxOverlap.obj
 0001:000688f0       ?BV4_OverlapBoxCB@@YAXAEBVBox@Gu@physx@@AEBVBV4Tree@23@P6A_NPEAXAEBVPxVec3@3@33IPEBI@Z2@Z 00000001800698f0 f   GuBV4_BoxOverlap.obj
 0001:00068db0       ?BV4_OverlapCapsuleAny@@YAHAEBVCapsule@Gu@physx@@AEBVBV4Tree@23@PEIBVPxMat44@3@@Z 0000000180069db0 f   GuBV4_BoxOverlap.obj
 0001:00069460       ?BV4_OverlapCapsuleAll@@YAIAEBVCapsule@Gu@physx@@AEBVBV4Tree@23@PEIBVPxMat44@3@PEAIIAEA_N@Z 000000018006a460 f   GuBV4_BoxOverlap.obj
 0001:00069b70       ?BV4_OverlapCapsuleCB@@YAXAEBVCapsule@Gu@physx@@AEBVBV4Tree@23@PEIBVPxMat44@3@P6A_NPEAXAEBVPxVec3@3@44IPEBI@Z3@Z 000000018006ab70 f   GuBV4_BoxOverlap.obj
 0001:0006e1f0       ?BV4_CapsuleSweepSingle@@YAHAEBVCapsule@Gu@physx@@AEBVPxVec3@3@MAEBVBV4Tree@23@PEIAVSweepHit@23@I@Z 000000018006f1f0 f   GuBV4_CapsuleSweep.obj
 0001:0006e840       ?BV4_CapsuleSweepCB@@YAXAEBVCapsule@Gu@physx@@AEBVPxVec3@3@MAEBVBV4Tree@23@PEIBVPxMat44@3@P6A_NPEAXAEBVSweepHit@23@@Z4I_N@Z 000000018006f840 f   GuBV4_CapsuleSweep.obj
 0001:00074660       ?computeBasis@shdfnd@physx@@YAXAEBVPxVec3@2@0AEAV32@11@Z 0000000180075660 f i GuBV4_CapsuleSweep.obj
 0001:00075d20       ?transform@PxMat44@physx@@QEBA?BVPxVec3@2@AEBV32@@Z 0000000180076d20 f i GuBV4_CapsuleSweep.obj
 0001:00076b40       ?BV4_CapsuleSweepSingleAA@@YAHAEBVCapsule@Gu@physx@@AEBVPxVec3@3@MAEBVBV4Tree@23@PEIAVSweepHit@23@I@Z 0000000180077b40 f   GuBV4_CapsuleSweepAA.obj
 0001:00079bb0       ?Sweep_OBB_BV4@@YAHAEBVBox@Gu@physx@@AEBVPxVec3@3@MAEBVBV4Tree@23@PEIAVSweepHit@23@I@Z 000000018007abb0 f   GuBV4_OBBSweep.obj
 0001:0007a100       ?Sweep_OBB_BV4_CB@@YAXAEBVBox@Gu@physx@@AEBVPxVec3@3@MAEBVBV4Tree@23@PEIBVPxMat44@3@P6A_NPEAXAEBVSweepHit@23@@Z4I_N@Z 000000018007b100 f   GuBV4_OBBSweep.obj
 0001:0007a280       ?GenericSweep_OBB_CB@@YAXAEBVBox@Gu@physx@@AEBVPxVec3@3@MAEBVBV4Tree@23@P6A_NPEAX111IAEAM@Z3I@Z 000000018007b280 f   GuBV4_OBBSweep.obj
 0001:0007a370       ?BV4_BoxSweepSingle@@YAHAEBVBox@Gu@physx@@AEBVPxVec3@3@MAEBVBV4Tree@23@PEIBVPxMat44@3@PEIAVSweepHit@23@I@Z 000000018007b370 f   GuBV4_OBBSweep.obj
 0001:0007aaa0       ?BV4_BoxSweepCB@@YAXAEBVBox@Gu@physx@@AEBVPxVec3@3@MAEBVBV4Tree@23@PEIBVPxMat44@3@P6A_NPEAXAEBVSweepHit@23@@Z4I_N@Z 000000018007baa0 f   GuBV4_OBBSweep.obj
 0001:0007b340       ?BV4_GenericSweepCB@@YAXAEBVBox@Gu@physx@@AEBVPxVec3@3@MAEBVBV4Tree@23@P6A_NPEAX111IAEAM@Z3_N@Z 000000018007c340 f   GuBV4_OBBSweep.obj
 0001:000825a0       ??DPxMat33@physx@@QEBA?BVPxVec3@1@AEBV21@@Z 00000001800835a0 f i GuBV4_OBBSweep.obj
 0001:00083e40       ?BV4_RaycastSingle@@YAHAEBVPxVec3@physx@@0AEBVBV4Tree@Gu@2@PEIBVPxMat44@2@PEIAUPxRaycastHit@2@MMIV?$PxFlags@W4Enum@PxHitFlag@physx@@G@2@@Z 0000000180084e40 f   GuBV4_Raycast.obj
 0001:000843b0       ?BV4_RaycastCB@@YAXAEBVPxVec3@physx@@0AEBVBV4Tree@Gu@2@PEIBVPxMat44@2@MMIP6A?AW4HitCode@42@PEAX000IMMM@Z3@Z 00000001800853b0 f   GuBV4_Raycast.obj
 0001:000847e0       ?BV4_RaycastAll@@YAIAEBVPxVec3@physx@@0AEBVBV4Tree@Gu@2@PEIBVPxMat44@2@PEIAUPxRaycastHit@2@IMMIV?$PxFlags@W4Enum@PxHitFlag@physx@@G@2@@Z 00000001800857e0 f   GuBV4_Raycast.obj
 0001:00087140       ?BV4_OverlapSphereAny@@YAHAEBVSphere@Gu@physx@@AEBVBV4Tree@23@PEIBVPxMat44@3@@Z 0000000180088140 f   GuBV4_SphereOverlap.obj
 0001:00087400       ?BV4_OverlapSphereAll@@YAIAEBVSphere@Gu@physx@@AEBVBV4Tree@23@PEIBVPxMat44@3@PEAIIAEA_N@Z 0000000180088400 f   GuBV4_SphereOverlap.obj
 0001:00087720       ?BV4_OverlapSphereCB@@YAXAEBVSphere@Gu@physx@@AEBVBV4Tree@23@PEIBVPxMat44@3@P6A_NPEAXAEBVPxVec3@3@44IPEBI@Z3@Z 0000000180088720 f   GuBV4_SphereOverlap.obj
 0001:0008a6b0       ?BV4_SphereSweepSingle@@YAHAEBVSphere@Gu@physx@@AEBVPxVec3@3@MAEBVBV4Tree@23@PEIBVPxMat44@3@PEIAVSweepHit@23@I@Z 000000018008b6b0 f   GuBV4_SphereSweep.obj
 0001:0008ada0       ?BV4_SphereSweepCB@@YAXAEBVSphere@Gu@physx@@AEBVPxVec3@3@MAEBVBV4Tree@23@PEIBVPxMat44@3@P6A_NPEAXAEBVSweepHit@23@@Z4I_N@Z 000000018008bda0 f   GuBV4_SphereSweep.obj
 0001:0008b180       ?BV4_GenericSweepCB_Old@@YAXAEBVPxVec3@physx@@00MAEBVBV4Tree@Gu@2@PEIBVPxMat44@2@P6A_NPEAX000IAEAM@Z3@Z 000000018008c180 f   GuBV4_SphereSweep.obj
 0001:0008fe70       ?getTriangle@PxMeshQuery@physx@@SAXAEBVPxTriangleMeshGeometry@2@AEBVPxTransform@2@IAEAVPxTriangle@2@PEAI3@Z 0000000180090e70 f   GuMeshQuery.obj
 0001:00090230       ?getTriangle@PxMeshQuery@physx@@SAXAEBVPxHeightFieldGeometry@2@AEBVPxTransform@2@IAEAVPxTriangle@2@PEAI3@Z 0000000180091230 f   GuMeshQuery.obj
 0001:000902b0       ?findOverlapTriangleMesh@PxMeshQuery@physx@@SAIAEBVPxGeometry@2@AEBVPxTransform@2@AEBVPxTriangleMeshGeometry@2@1PEAIIIAEA_N@Z 00000001800912b0 f   GuMeshQuery.obj
 0001:000905c0       ?findOverlapHeightField@PxMeshQuery@physx@@SAIAEBVPxGeometry@2@AEBVPxTransform@2@AEBVPxHeightFieldGeometry@2@1PEAIIIAEA_N@Z 00000001800915c0 f   GuMeshQuery.obj
 0001:00090cc0       ?sweep@PxMeshQuery@physx@@SA_NAEBVPxVec3@2@MAEBVPxGeometry@2@AEBVPxTransform@2@IPEBVPxTriangle@2@AEAUPxSweepHit@2@V?$PxFlags@W4Enum@PxHitFlag@physx@@G@2@PEBIM_N@Z 0000000180091cc0 f   GuMeshQuery.obj
 0001:00090f50       ?intersectOBB_Particles@Gu@physx@@YAXPEBVTriangleMesh@12@AEBVBox@12@AEAU?$MeshHitCallback@UPxRaycastHit@physx@@@12@_N3@Z 0000000180091f50 f   GuMeshQuery.obj
 0001:000910f0       ??Dphysx@@YA?AVMatrix34@Cm@0@AEBVPxTransform@0@AEBVPxMeshScale@0@@Z 00000001800920f0 f i GuMeshQuery.obj
 0001:00091740       ?raycast_triangleMesh_BV4@Gu@physx@@YAIPEBVTriangleMesh@12@AEBVPxTriangleMeshGeometry@2@AEBVPxTransform@2@AEBVPxVec3@2@3MV?$PxFlags@W4Enum@PxHitFlag@physx@@G@2@IPEIAUPxRaycastHit@2@@Z 0000000180092740 f   GuMidphaseBV4.obj
 0001:00092550       ?intersectSphereVsMesh_BV4@Gu@physx@@YA_NAEBVSphere@12@AEBVTriangleMesh@12@AEBVPxTransform@2@AEBVPxMeshScale@2@PEAULimitedResults@12@@Z 0000000180093550 f   GuMidphaseBV4.obj
 0001:00092c90       ?intersectBoxVsMesh_BV4@Gu@physx@@YA_NAEBVBox@12@AEBVTriangleMesh@12@AEBVPxTransform@2@AEBVPxMeshScale@2@PEAULimitedResults@12@@Z 0000000180093c90 f   GuMidphaseBV4.obj
 0001:000937b0       ?intersectCapsuleVsMesh_BV4@Gu@physx@@YA_NAEBVCapsule@12@AEBVTriangleMesh@12@AEBVPxTransform@2@AEBVPxMeshScale@2@PEAULimitedResults@12@@Z 00000001800947b0 f   GuMidphaseBV4.obj
 0001:00093ff0       ?intersectOBB_BV4@Gu@physx@@YAXPEBVTriangleMesh@12@AEBVBox@12@AEAU?$MeshHitCallback@UPxRaycastHit@physx@@@12@_N3@Z 0000000180094ff0 f   GuMidphaseBV4.obj
 0001:00094020       ?sweepCapsule_MeshGeom_BV4@Gu@physx@@YA_NPEBVTriangleMesh@12@AEBVPxTriangleMeshGeometry@2@AEBVPxTransform@2@AEBVCapsule@12@AEBVPxVec3@2@MAEAUPxSweepHit@2@V?$PxFlags@W4Enum@PxHitFlag@physx@@G@2@M@Z 0000000180095020 f   GuMidphaseBV4.obj
 0001:00094b30       ?sweepBox_MeshGeom_BV4@Gu@physx@@YA_NPEBVTriangleMesh@12@AEBVPxTriangleMeshGeometry@2@AEBVPxTransform@2@AEBVBox@12@AEBVPxVec3@2@MAEAUPxSweepHit@2@V?$PxFlags@W4Enum@PxHitFlag@physx@@G@2@M@Z 0000000180095b30 f   GuMidphaseBV4.obj
 0001:00096250       ?sweepConvex_MeshGeom_BV4@Gu@physx@@YAXPEBVTriangleMesh@12@AEBVBox@12@AEBVPxVec3@2@MAEAUSweepConvexMeshHitCallback@12@_N@Z 0000000180097250 f   GuMidphaseBV4.obj
 0001:000973c0       ??0PxVec4@physx@@QEAA@XZ   00000001800983c0 f i GuMidphaseBV4.obj
 0001:000973d0       ??1SweepBoxMeshHitCallback@Gu@physx@@UEAA@XZ 00000001800983d0 f i GuMidphaseBV4.obj
 0001:00097bf0       ?computeSweepData@physx@@YAMAEBVPxTriangleMeshGeometry@1@AEAVPxVec3@1@11M@Z 0000000180098bf0 f i GuMidphaseBV4.obj
 0001:00097f80       ?transform@PxMeshScale@physx@@QEBA?AVPxVec3@2@AEBV32@@Z 0000000180098f80 f i GuMidphaseBV4.obj
 0001:000981c0       ?raycast_triangleMesh_RTREE@Gu@physx@@YAIPEBVTriangleMesh@12@AEBVPxTriangleMeshGeometry@2@AEBVPxTransform@2@AEBVPxVec3@2@3MV?$PxFlags@W4Enum@PxHitFlag@physx@@G@2@IPEIAUPxRaycastHit@2@@Z 00000001800991c0 f   GuMidphaseRTree.obj
 0001:00098960       ?intersectSphereVsMesh_RTREE@Gu@physx@@YA_NAEBVSphere@12@AEBVTriangleMesh@12@AEBVPxTransform@2@AEBVPxMeshScale@2@PEAULimitedResults@12@@Z 0000000180099960 f   GuMidphaseRTree.obj
 0001:00098990       ?intersectBoxVsMesh_RTREE@Gu@physx@@YA_NAEBVBox@12@AEBVTriangleMesh@12@AEBVPxTransform@2@AEBVPxMeshScale@2@PEAULimitedResults@12@@Z 0000000180099990 f   GuMidphaseRTree.obj
 0001:00098a10       ?intersectCapsuleVsMesh_RTREE@Gu@physx@@YA_NAEBVCapsule@12@AEBVTriangleMesh@12@AEBVPxTransform@2@AEBVPxMeshScale@2@PEAULimitedResults@12@@Z 0000000180099a10 f   GuMidphaseRTree.obj
 0001:00098a90       ?intersectOBB_RTREE@Gu@physx@@YAXPEBVTriangleMesh@12@AEBVBox@12@AEAU?$MeshHitCallback@UPxRaycastHit@physx@@@12@_N3@Z 0000000180099a90 f   GuMidphaseRTree.obj
 0001:00098ac0       ?sweepCapsule_MeshGeom_RTREE@Gu@physx@@YA_NPEBVTriangleMesh@12@AEBVPxTriangleMeshGeometry@2@AEBVPxTransform@2@AEBVCapsule@12@AEBVPxVec3@2@MAEAUPxSweepHit@2@V?$PxFlags@W4Enum@PxHitFlag@physx@@G@2@M@Z 0000000180099ac0 f   GuMidphaseRTree.obj
 0001:000992c0       ?sweepBox_MeshGeom_RTREE@Gu@physx@@YA_NPEBVTriangleMesh@12@AEBVPxTriangleMeshGeometry@2@AEBVPxTransform@2@AEBVBox@12@AEBVPxVec3@2@MAEAUPxSweepHit@2@V?$PxFlags@W4Enum@PxHitFlag@physx@@G@2@M@Z 000000018009a2c0 f   GuMidphaseRTree.obj
 0001:0009a820       ?sweepConvex_MeshGeom_RTREE@Gu@physx@@YAXPEBVTriangleMesh@12@AEBVBox@12@AEBVPxVec3@2@MAEAUSweepConvexMeshHitCallback@12@_N@Z 000000018009b820 f   GuMidphaseRTree.obj
 0001:0009a880       ?collideOBB@MeshRayCollider@@SAXAEBVBox@Gu@physx@@_NPEBVRTreeTriangleMesh@34@AEAU?$MeshHitCallback@UPxRaycastHit@physx@@@34@1@Z 000000018009b880 f   GuMidphaseRTree.obj
 0001:0009bc30       ??$collide@$00$00@MeshRayCollider@@SAXAEBVPxVec3@physx@@0M_NPEBVRTreeTriangleMesh@Gu@2@AEAU?$MeshHitCallback@UPxRaycastHit@physx@@@42@PEBV12@@Z 000000018009cc30 f i GuMidphaseRTree.obj
 0001:0009bfb0       ??$collide@$00$0A@@MeshRayCollider@@SAXAEBVPxVec3@physx@@0M_NPEBVRTreeTriangleMesh@Gu@2@AEAU?$MeshHitCallback@UPxRaycastHit@physx@@@42@PEBV12@@Z 000000018009cfb0 f i GuMidphaseRTree.obj
 0001:0009c1f0       ??$collide@$0A@$00@MeshRayCollider@@SAXAEBVPxVec3@physx@@0M_NPEBVRTreeTriangleMesh@Gu@2@AEAU?$MeshHitCallback@UPxRaycastHit@physx@@@42@PEBV12@@Z 000000018009d1f0 f i GuMidphaseRTree.obj
 0001:0009c590       ??$collide@$0A@$0A@@MeshRayCollider@@SAXAEBVPxVec3@physx@@0M_NPEBVRTreeTriangleMesh@Gu@2@AEAU?$MeshHitCallback@UPxRaycastHit@physx@@@42@PEBV12@@Z 000000018009d590 f i GuMidphaseRTree.obj
 0001:0009e940       ??0?$RayRTreeCallback@$00$0A@@@QEAA@MAEAU?$MeshHitCallback@UPxRaycastHit@physx@@@Gu@physx@@HPEBXPEBVPxVec3@3@AEBV43@3M_N2@Z 000000018009f940 f i GuMidphaseRTree.obj
 0001:0009ea70       ??1?$RayRTreeCallback@$00$00@@UEAA@XZ 000000018009fa70 f i GuMidphaseRTree.obj
 0001:0009eb00       ??1?$RayRTreeCallback@$00$0A@@@UEAA@XZ 000000018009fb00 f i GuMidphaseRTree.obj
 0001:0009eb90       ??1?$RayRTreeCallback@$0A@$00@@UEAA@XZ 000000018009fb90 f i GuMidphaseRTree.obj
 0001:0009ec20       ??1?$RayRTreeCallback@$0A@$0A@@@UEAA@XZ 000000018009fc20 f i GuMidphaseRTree.obj
 0001:0009ecb0       ??1Callback@RTree@Gu@physx@@UEAA@XZ 000000018009fcb0 f i GuMidphaseRTree.obj
 0001:0009ecc0       ??1CallbackRaycast@RTree@Gu@physx@@UEAA@XZ 000000018009fcc0 f i GuMidphaseRTree.obj
 0001:0009eccc       ??_E?$RayRTreeCallback@$00$00@@W7EAAPEAXI@Z 000000018009fccc f i GuMidphaseRTree.obj
 0001:0009ecd8       ??_E?$RayRTreeCallback@$00$0A@@@W7EAAPEAXI@Z 000000018009fcd8 f i GuMidphaseRTree.obj
 0001:0009ece4       ??_E?$RayRTreeCallback@$0A@$00@@W7EAAPEAXI@Z 000000018009fce4 f i GuMidphaseRTree.obj
 0001:0009ecf0       ??_E?$RayRTreeCallback@$0A@$0A@@@W7EAAPEAXI@Z 000000018009fcf0 f i GuMidphaseRTree.obj
 0001:0009ed00       ??_E?$RayRTreeCallback@$00$00@@UEAAPEAXI@Z 000000018009fd00 f i GuMidphaseRTree.obj
 0001:0009ed00       ??_G?$RayRTreeCallback@$00$00@@UEAAPEAXI@Z 000000018009fd00 f i GuMidphaseRTree.obj
 0001:0009ed40       ??_G?$RayRTreeCallback@$00$0A@@@UEAAPEAXI@Z 000000018009fd40 f i GuMidphaseRTree.obj
 0001:0009ed40       ??_E?$RayRTreeCallback@$00$0A@@@UEAAPEAXI@Z 000000018009fd40 f i GuMidphaseRTree.obj
 0001:0009ed80       ??_E?$RayRTreeCallback@$0A@$00@@UEAAPEAXI@Z 000000018009fd80 f i GuMidphaseRTree.obj
 0001:0009ed80       ??_G?$RayRTreeCallback@$0A@$00@@UEAAPEAXI@Z 000000018009fd80 f i GuMidphaseRTree.obj
 0001:0009edc0       ??_G?$RayRTreeCallback@$0A@$0A@@@UEAAPEAXI@Z 000000018009fdc0 f i GuMidphaseRTree.obj
 0001:0009edc0       ??_E?$RayRTreeCallback@$0A@$0A@@@UEAAPEAXI@Z 000000018009fdc0 f i GuMidphaseRTree.obj
 0001:0009ee00       ??_ECallback@RTree@Gu@physx@@UEAAPEAXI@Z 000000018009fe00 f i GuMidphaseRTree.obj
 0001:0009ee00       ??_GCallback@RTree@Gu@physx@@UEAAPEAXI@Z 000000018009fe00 f i GuMidphaseRTree.obj
 0001:0009ee30       ??_ECallbackRaycast@RTree@Gu@physx@@UEAAPEAXI@Z 000000018009fe30 f i GuMidphaseRTree.obj
 0001:0009ee30       ??_GCallbackRaycast@RTree@Gu@physx@@UEAAPEAXI@Z 000000018009fe30 f i GuMidphaseRTree.obj
 0001:0009ee60       ??_GRayMeshColliderCallback@@UEAAPEAXI@Z 000000018009fe60 f i GuMidphaseRTree.obj
 0001:0009ee60       ??_ERayMeshColliderCallback@@UEAAPEAXI@Z 000000018009fe60 f i GuMidphaseRTree.obj
 0001:0009f090       ?processHit@RayMeshColliderCallback@@UEAA_NAEBUPxRaycastHit@physx@@AEBVPxVec3@3@11AEAMPEBI@Z 00000001800a0090 f i GuMidphaseRTree.obj
 0001:0009f820       ?processResults@?$RayRTreeCallback@$00$00@@UEAA_NIPEAI@Z 00000001800a0820 f i GuMidphaseRTree.obj
 0001:0009fbd0       ?processResults@?$RayRTreeCallback@$00$00@@UEAA_NIPEAIAEAM@Z 00000001800a0bd0 f i GuMidphaseRTree.obj
 0001:0009ff60       ?processResults@?$RayRTreeCallback@$00$0A@@@UEAA_NIPEAI@Z 00000001800a0f60 f i GuMidphaseRTree.obj
 0001:000a01f0       ?processResults@?$RayRTreeCallback@$00$0A@@@UEAA_NIPEAIAEAM@Z 00000001800a11f0 f i GuMidphaseRTree.obj
 0001:000a0490       ?processResults@?$RayRTreeCallback@$0A@$00@@UEAA_NIPEAI@Z 00000001800a1490 f i GuMidphaseRTree.obj
 0001:000a0af0       ?processResults@?$RayRTreeCallback@$0A@$00@@UEAA_NIPEAIAEAM@Z 00000001800a1af0 f i GuMidphaseRTree.obj
 0001:000a1160       ?processResults@?$RayRTreeCallback@$0A@$0A@@@UEAA_NIPEAI@Z 00000001800a2160 f i GuMidphaseRTree.obj
 0001:000a13f0       ?processResults@?$RayRTreeCallback@$0A@$0A@@@UEAA_NIPEAIAEAM@Z 00000001800a23f0 f i GuMidphaseRTree.obj
 0001:000a1690       ?profile@Callback@RTree@Gu@physx@@UEAAXXZ 00000001800a2690 f i GuMidphaseRTree.obj
 0001:000a16a0       ?transformBoxOrthonormal@physx@@YA?AVBox@Gu@1@AEBV231@AEBVPxTransform@1@@Z 00000001800a26a0 f i GuMidphaseRTree.obj
 0001:000a1b30       ?checkOverlapAABB_triangleGeom@Gu@physx@@YA_NAEBVPxGeometry@2@AEBVPxTransform@2@AEBVPxBounds3@2@@Z 00000001800a2b30 f   GuOverlapTestsMesh.obj
 0001:000a1c40       ?GeomOverlapCallback_SphereMesh@@YA_NAEBVPxGeometry@physx@@AEBVPxTransform@2@01PEAUTriggerCache@Gu@2@@Z 00000001800a2c40 f   GuOverlapTestsMesh.obj
 0001:000a1cb0       ?GeomOverlapCallback_CapsuleMesh@@YA_NAEBVPxGeometry@physx@@AEBVPxTransform@2@01PEAUTriggerCache@Gu@2@@Z 00000001800a2cb0 f   GuOverlapTestsMesh.obj
 0001:000a1dd0       ?GeomOverlapCallback_BoxMesh@@YA_NAEBVPxGeometry@physx@@AEBVPxTransform@2@01PEAUTriggerCache@Gu@2@@Z 00000001800a2dd0 f   GuOverlapTestsMesh.obj
 0001:000a1ee0       ?GeomOverlapCallback_ConvexMesh@@YA_NAEBVPxGeometry@physx@@AEBVPxTransform@2@01PEAUTriggerCache@Gu@2@@Z 00000001800a2ee0 f   GuOverlapTestsMesh.obj
 0001:000a24d0       ??$gjk@U?$RelativeConvex@VTriangleV@Gu@physx@@@Gu@physx@@U?$LocalConvex@VConvexHullV@Gu@physx@@@23@@Gu@physx@@YA?AW4GjkStatus@01@AEBU?$RelativeConvex@VTriangleV@Gu@physx@@@01@AEBU?$LocalConvex@VConvexHullV@Gu@physx@@@01@AEBT__m128@@2AEAT5@333@Z 00000001800a34d0 f i GuOverlapTestsMesh.obj
 0001:000a3360       ??0ConvexVsMeshOverlapCallback@@QEAA@AEBVConvexMesh@Gu@physx@@AEBVPxMeshScale@3@AEBVFastVertex2ShapeScaling@Cm@3@AEBVPxTransform@3@3_NAEBVBox@23@@Z 00000001800a4360 f i GuOverlapTestsMesh.obj
 0001:000a3c10       ??1ConvexVsMeshOverlapCallback@@UEAA@XZ 00000001800a4c10 f i GuOverlapTestsMesh.obj
 0001:000a3c20       ??_E?$RelativeConvex@VTriangleV@Gu@physx@@@Gu@physx@@UEAAPEAXI@Z 00000001800a4c20 f i GuOverlapTestsMesh.obj
 0001:000a3c20       ??_G?$RelativeConvex@VTriangleV@Gu@physx@@@Gu@physx@@UEAAPEAXI@Z 00000001800a4c20 f i GuOverlapTestsMesh.obj
 0001:000a3c50       ??_EConvexVsMeshOverlapCallback@@UEAAPEAXI@Z 00000001800a4c50 f i GuOverlapTestsMesh.obj
 0001:000a3c50       ??_GConvexVsMeshOverlapCallback@@UEAAPEAXI@Z 00000001800a4c50 f i GuOverlapTestsMesh.obj
 0001:000a3c80       ?getCenter@?$RelativeConvex@VTriangleV@Gu@physx@@@Gu@physx@@UEBA?AT__m128@@XZ 00000001800a4c80 f i GuOverlapTestsMesh.obj
 0001:000a3cc0       ?getSweepMargin@?$RelativeConvex@VTriangleV@Gu@physx@@@Gu@physx@@UEBA?AT__m128@@XZ 00000001800a4cc0 f i GuOverlapTestsMesh.obj
 0001:000a3cd0       ?processHit@ConvexVsMeshOverlapCallback@@UEAA_NAEBUPxRaycastHit@physx@@AEBVPxVec3@3@11AEAMPEBI@Z 00000001800a4cd0 f i GuOverlapTestsMesh.obj
 0001:000a4050       ?support@?$RelativeConvex@VTriangleV@Gu@physx@@@Gu@physx@@UEBA?AT__m128@@AEBT4@@Z 00000001800a5050 f i GuOverlapTestsMesh.obj
 0001:000a4150       ?support@?$RelativeConvex@VTriangleV@Gu@physx@@@Gu@physx@@UEBA?AT__m128@@AEBT4@AEAHPEAT4@@Z 00000001800a5150 f i GuOverlapTestsMesh.obj
 0001:000a4290       ?supportPoint@?$RelativeConvex@VTriangleV@Gu@physx@@@Gu@physx@@UEBA?AT__m128@@HPEAT4@@Z 00000001800a5290 f i GuOverlapTestsMesh.obj
 0001:000a42e0       ??0RTree@Gu@physx@@QEAA@W4PxEMPTY@2@@Z 00000001800a52e0 f   GuRTree.obj
 0001:000a42f0       ?exportExtraData@RTree@Gu@physx@@QEAAXAEAVPxSerializationContext@3@@Z 00000001800a52f0 f   GuRTree.obj
 0001:000a4340       ?importExtraData@RTree@Gu@physx@@QEAAXAEAVPxDeserializationContext@3@@Z 00000001800a5340 f   GuRTree.obj
 0001:000a4370       ?load@RTree@Gu@physx@@QEAA_NAEAVPxInputStream@3@I_N@Z 00000001800a5370 f   GuRTree.obj
 0001:000a4670       ?refitAllStaticTree@RTree@Gu@physx@@QEAAXAEAUCallbackRefit@123@PEAVPxBounds3@3@@Z 00000001800a5670 f   GuRTree.obj
 0001:000a4bd0       ?validate@RTree@Gu@physx@@QEAAXPEAUCallbackRefit@123@@Z 00000001800a5bd0 f   GuRTree.obj
 0001:000a4d30       ?computeBottomLevelCount@RTree@Gu@physx@@QEBAII@Z 00000001800a5d30 f   GuRTree.obj
 0001:000a4e20       ?validateRecursive@RTree@Gu@physx@@IEAAXIURTreeNodeQ@23@PEAURTreePage@23@PEAUCallbackRefit@123@@Z 00000001800a5e20 f   GuRTree.obj
 0001:000a4f50       ?traverseAABB@RTree@Gu@physx@@QEBAXAEBVPxVec3@3@0IPEAIPEAUCallback@123@@Z 00000001800a5f50 f   GuRTreeQueries.obj
 0001:000a5110       ?traverseOBB@RTree@Gu@physx@@QEBAXAEBVBox@23@IPEAIPEAUCallback@123@@Z 00000001800a6110 f   GuRTreeQueries.obj
 0001:000a59f0       ??$traverseRay@$00@RTree@Gu@physx@@QEBAXAEBVPxVec3@2@0IPEAIPEAUCallbackRaycast@012@PEBV32@M@Z 00000001800a69f0 f i GuRTreeQueries.obj
 0001:000a5d90       ??$traverseRay@$0A@@RTree@Gu@physx@@QEBAXAEBVPxVec3@2@0IPEAIPEAUCallbackRaycast@012@PEBV32@M@Z 00000001800a6d90 f i GuRTreeQueries.obj
 0001:000a60e0       ??0SweepShapeMeshHitCallback@Gu@physx@@QEAA@W4Enum@CallbackMode@12@AEBV?$PxFlags@W4Enum@PxHitFlag@physx@@G@2@_NM@Z 00000001800a70e0 f   GuSweepsMesh.obj
 0001:000a6120       ??0SweepCapsuleMeshHitCallback@Gu@physx@@QEAA@AEAUPxSweepHit@2@AEBVMatrix34@Cm@2@M_NAEBVCapsule@12@AEBVPxVec3@2@AEBV?$PxFlags@W4Enum@PxHitFlag@physx@@G@2@2M@Z 00000001800a7120 f   GuSweepsMesh.obj
 0001:000a61f0       ?processHit@SweepCapsuleMeshHitCallback@Gu@physx@@UEAA_NAEBUPxRaycastHit@3@AEBVPxVec3@3@11AEAMPEBI@Z 00000001800a71f0 f   GuSweepsMesh.obj
 0001:000a6730       ?finalizeHit@SweepCapsuleMeshHitCallback@Gu@physx@@QEBA_NAEAUPxSweepHit@3@AEBVCapsule@23@AEBVPxTriangleMeshGeometry@3@AEBVPxTransform@3@_N@Z 00000001800a7730 f   GuSweepsMesh.obj
 0001:000a68e0       ??0SweepBoxMeshHitCallback@Gu@physx@@QEAA@W4Enum@CallbackMode@12@AEBVMatrix34Padded@12@M_NAEBVBox@12@AEBVPxVec3@2@44AEBV?$PxFlags@W4Enum@PxHitFlag@physx@@G@2@M2M@Z 00000001800a78e0 f   GuSweepsMesh.obj
 0001:000a69f0       ?processHit@SweepBoxMeshHitCallback@Gu@physx@@UEAA_NAEBUPxRaycastHit@3@AEBVPxVec3@3@11AEAMPEBI@Z 00000001800a79f0 f   GuSweepsMesh.obj
 0001:000a7220       ?finalizeHit@SweepBoxMeshHitCallback@Gu@physx@@QEBA_NAEAUPxSweepHit@3@AEBVPxTriangleMeshGeometry@3@AEBVPxTransform@3@2AEBVPxVec3@3@_N4@Z 00000001800a8220 f   GuSweepsMesh.obj
 0001:000a78f0       ??0SweepConvexMeshHitCallback@Gu@physx@@QEAA@AEBUConvexHullData@12@AEBVPxMeshScale@2@AEBVFastVertex2ShapeScaling@Cm@2@AEBVPxTransform@2@3AEBVPxVec3@2@MV?$PxFlags@W4Enum@PxHitFlag@physx@@G@2@_NM6M@Z 00000001800a88f0 f   GuSweepsMesh.obj
 0001:000a8270       ?processHit@SweepConvexMeshHitCallback@Gu@physx@@UEAA_NAEBUPxRaycastHit@3@AEBVPxVec3@3@11AEAMPEBI@Z 00000001800a9270 f   GuSweepsMesh.obj
 0001:000a89c0       ?finalizeHit@SweepConvexMeshHitCallback@Gu@physx@@QEAA_NAEAUPxSweepHit@3@AEBVPxTriangleMeshGeometry@3@AEBVPxTransform@3@AEBVPxConvexMeshGeometry@3@2AEBVPxVec3@3@M_N555@Z 00000001800a99c0 f   GuSweepsMesh.obj
 0001:000a8ea0       ?sweepCapsule_MeshGeom@@YA_NAEBVPxGeometry@physx@@AEBVPxTransform@2@AEBVPxCapsuleGeometry@2@1AEBVCapsule@Gu@2@AEBVPxVec3@2@MAEAUPxSweepHit@2@V?$PxFlags@W4Enum@PxHitFlag@physx@@G@2@M@Z 00000001800a9ea0 f   GuSweepsMesh.obj
 0001:000a8f40       ?sweepBox_MeshGeom@@YA_NAEBVPxGeometry@physx@@AEBVPxTransform@2@AEBVPxBoxGeometry@2@1AEBVBox@Gu@2@AEBVPxVec3@2@MAEAUPxSweepHit@2@V?$PxFlags@W4Enum@PxHitFlag@physx@@G@2@M@Z 00000001800a9f40 f   GuSweepsMesh.obj
 0001:000a8fe0       ?sweepConvex_MeshGeom@@YA_NAEBVPxGeometry@physx@@AEBVPxTransform@2@AEBVPxConvexMeshGeometry@2@1AEBVPxVec3@2@MAEAUPxSweepHit@2@V?$PxFlags@W4Enum@PxHitFlag@physx@@G@2@M@Z 00000001800a9fe0 f   GuSweepsMesh.obj
 0001:000a9940       ??$gjkPenetration@U?$LocalConvex@VTriangleV@Gu@physx@@@Gu@physx@@U?$LocalConvex@VShrunkBoxV@Gu@physx@@@23@@Gu@physx@@YA?AW4GjkStatus@01@AEBU?$LocalConvex@VTriangleV@Gu@physx@@@01@AEBU?$LocalConvex@VShrunkBoxV@Gu@physx@@@01@AEBT__m128@@2AEAT5@333PEIAE4AEAE_N@Z 00000001800aa940 f i GuSweepsMesh.obj
 0001:000aaf90       ??$gjkPenetration@U?$LocalConvex@VTriangleV@Gu@physx@@@Gu@physx@@U?$LocalConvex@VShrunkConvexHullV@Gu@physx@@@23@@Gu@physx@@YA?AW4GjkStatus@01@AEBU?$LocalConvex@VTriangleV@Gu@physx@@@01@AEBU?$LocalConvex@VShrunkConvexHullV@Gu@physx@@@01@AEBT__m128@@2AEAT5@333PEIAE4AEAE_N@Z 00000001800abf90 f i GuSweepsMesh.obj
 0001:000ac900       ??$gjkRaycast@U?$LocalConvex@VTriangleV@Gu@physx@@@Gu@physx@@U?$LocalConvex@VBoxV@Gu@physx@@@23@@Gu@physx@@YA_NAEBU?$LocalConvex@VTriangleV@Gu@physx@@@01@AEBU?$LocalConvex@VBoxV@Gu@physx@@@01@AEBT__m128@@222AEAT4@33M@Z 00000001800ad900 f i GuSweepsMesh.obj
 0001:000ad550       ??$gjkRaycast@U?$LocalConvex@VTriangleV@Gu@physx@@@Gu@physx@@U?$LocalConvex@VConvexHullV@Gu@physx@@@23@@Gu@physx@@YA_NAEBU?$LocalConvex@VTriangleV@Gu@physx@@@01@AEBU?$LocalConvex@VConvexHullV@Gu@physx@@@01@AEBT__m128@@222AEAT4@33M@Z 00000001800ae550 f i GuSweepsMesh.obj
 0001:000ae320       ??$gjkRaycastPenetration@U?$LocalConvex@VTriangleV@Gu@physx@@@Gu@physx@@U?$LocalConvex@VBoxV@Gu@physx@@@23@@Gu@physx@@YA_NAEBU?$LocalConvex@VTriangleV@Gu@physx@@@01@AEBU?$LocalConvex@VBoxV@Gu@physx@@@01@AEBT__m128@@222AEAT4@33M_N@Z 00000001800af320 f i GuSweepsMesh.obj
 0001:000ae550       ??$gjkRaycastPenetration@U?$LocalConvex@VTriangleV@Gu@physx@@@Gu@physx@@U?$LocalConvex@VConvexHullV@Gu@physx@@@23@@Gu@physx@@YA_NAEBU?$LocalConvex@VTriangleV@Gu@physx@@@01@AEBU?$LocalConvex@VConvexHullV@Gu@physx@@@01@AEBT__m128@@222AEAT4@33M_N@Z 00000001800af550 f i GuSweepsMesh.obj
 0001:000ae780       ??1SweepConvexMeshHitCallback@Gu@physx@@UEAA@XZ 00000001800af780 f i GuSweepsMesh.obj
 0001:000ae790       ??_G?$LocalConvex@VShrunkBoxV@Gu@physx@@@Gu@physx@@UEAAPEAXI@Z 00000001800af790 f i GuSweepsMesh.obj
 0001:000ae790       ??_E?$LocalConvex@VShrunkBoxV@Gu@physx@@@Gu@physx@@UEAAPEAXI@Z 00000001800af790 f i GuSweepsMesh.obj
 0001:000ae7c0       ??_G?$LocalConvex@VShrunkConvexHullV@Gu@physx@@@Gu@physx@@UEAAPEAXI@Z 00000001800af7c0 f i GuSweepsMesh.obj
 0001:000ae7c0       ??_E?$LocalConvex@VShrunkConvexHullV@Gu@physx@@@Gu@physx@@UEAAPEAXI@Z 00000001800af7c0 f i GuSweepsMesh.obj
 0001:000ae7f0       ??_ESweepBoxMeshHitCallback@Gu@physx@@UEAAPEAXI@Z 00000001800af7f0 f i GuSweepsMesh.obj
 0001:000ae7f0       ??_GSweepBoxMeshHitCallback@Gu@physx@@UEAAPEAXI@Z 00000001800af7f0 f i GuSweepsMesh.obj
 0001:000ae820       ??_ESweepCapsuleMeshHitCallback@Gu@physx@@UEAAPEAXI@Z 00000001800af820 f i GuSweepsMesh.obj
 0001:000ae820       ??_GSweepCapsuleMeshHitCallback@Gu@physx@@UEAAPEAXI@Z 00000001800af820 f i GuSweepsMesh.obj
 0001:000ae850       ??_GSweepConvexMeshHitCallback@Gu@physx@@UEAAPEAXI@Z 00000001800af850 f i GuSweepsMesh.obj
 0001:000ae850       ??_ESweepConvexMeshHitCallback@Gu@physx@@UEAAPEAXI@Z 00000001800af850 f i GuSweepsMesh.obj
 0001:000ae880       ??_ESweepShapeMeshHitCallback@Gu@physx@@UEAAPEAXI@Z 00000001800af880 f i GuSweepsMesh.obj
 0001:000ae880       ??_GSweepShapeMeshHitCallback@Gu@physx@@UEAAPEAXI@Z 00000001800af880 f i GuSweepsMesh.obj
 0001:000ae8b0       ?getCenter@?$LocalConvex@VShrunkBoxV@Gu@physx@@@Gu@physx@@UEBA?AT__m128@@XZ 00000001800af8b0 f i GuSweepsMesh.obj
 0001:000ae8c0       ?getCenter@?$LocalConvex@VShrunkConvexHullV@Gu@physx@@@Gu@physx@@UEBA?AT__m128@@XZ 00000001800af8c0 f i GuSweepsMesh.obj
 0001:000ae8d0       ?getSweepMargin@?$LocalConvex@VShrunkBoxV@Gu@physx@@@Gu@physx@@UEBA?AT__m128@@XZ 00000001800af8d0 f i GuSweepsMesh.obj
 0001:000ae8f0       ?getSweepMargin@?$LocalConvex@VShrunkConvexHullV@Gu@physx@@@Gu@physx@@UEBA?AT__m128@@XZ 00000001800af8f0 f i GuSweepsMesh.obj
 0001:000ae910       ?support@?$LocalConvex@VShrunkBoxV@Gu@physx@@@Gu@physx@@UEBA?AT__m128@@AEBT4@@Z 00000001800af910 f i GuSweepsMesh.obj
 0001:000ae950       ?support@?$LocalConvex@VShrunkBoxV@Gu@physx@@@Gu@physx@@UEBA?AT__m128@@AEBT4@AEAHPEAT4@@Z 00000001800af950 f i GuSweepsMesh.obj
 0001:000ae9b0       ?support@?$LocalConvex@VShrunkConvexHullV@Gu@physx@@@Gu@physx@@UEBA?AT__m128@@AEBT4@@Z 00000001800af9b0 f i GuSweepsMesh.obj
 0001:000aedb0       ?support@?$LocalConvex@VShrunkConvexHullV@Gu@physx@@@Gu@physx@@UEBA?AT__m128@@AEBT4@AEAHPEAT4@@Z 00000001800afdb0 f i GuSweepsMesh.obj
 0001:000af200       ?supportPoint@?$LocalConvex@VShrunkBoxV@Gu@physx@@@Gu@physx@@UEBA?AT__m128@@HPEAT4@@Z 00000001800b0200 f i GuSweepsMesh.obj
 0001:000af260       ?supportPoint@?$LocalConvex@VShrunkConvexHullV@Gu@physx@@@Gu@physx@@UEBA?AT__m128@@HPEAT4@@Z 00000001800b0260 f i GuSweepsMesh.obj
 0001:000af920       ?exportExtraData@TriangleMesh@Gu@physx@@UEAAXAEAVPxSerializationContext@3@@Z 00000001800b0920 f   GuTriangleMesh.obj
 0001:000afa60       ?importExtraData@TriangleMesh@Gu@physx@@QEAAXAEAVPxDeserializationContext@3@@Z 00000001800b0a60 f   GuTriangleMesh.obj
 0001:000afb70       ?release@TriangleMesh@Gu@physx@@UEAAXXZ 00000001800b0b70 f   GuTriangleMesh.obj
 0001:000afbb0       ?onRefCountZero@TriangleMesh@Gu@physx@@UEAAXXZ 00000001800b0bb0 f   GuTriangleMesh.obj
 0001:000afc50       ??0TriangleMesh@Gu@physx@@QEAA@AEAVGuMeshFactory@2@AEAVTriangleMeshData@12@@Z 00000001800b0c50 f   GuTriangleMesh.obj
 0001:000afde0       ??1TriangleMesh@Gu@physx@@UEAA@XZ 00000001800b0de0 f   GuTriangleMesh.obj
 0001:000aff90       ?getVerticesForModification@TriangleMesh@Gu@physx@@UEAAPEAVPxVec3@3@XZ 00000001800b0f90 f   GuTriangleMesh.obj
 0001:000affd0       ?refitBVH@TriangleMesh@Gu@physx@@UEAA?AVPxBounds3@3@XZ 00000001800b0fd0 f   GuTriangleMesh.obj
 0001:000b0090       ??1PxTriangleMesh@physx@@MEAA@XZ 00000001800b1090 f i GuTriangleMesh.obj
 0001:000b009c       ??_ETriangleMesh@Gu@physx@@WBA@EAAPEAXI@Z 00000001800b109c f i GuTriangleMesh.obj
 0001:000b00b0       ??_EPxTriangleMesh@physx@@MEAAPEAXI@Z 00000001800b10b0 f i GuTriangleMesh.obj
 0001:000b00b0       ??_GPxTriangleMesh@physx@@MEAAPEAXI@Z 00000001800b10b0 f i GuTriangleMesh.obj
 0001:000b00e0       ??_GTriangleMesh@Gu@physx@@UEAAPEAXI@Z 00000001800b10e0 f i GuTriangleMesh.obj
 0001:000b00e0       ??_ETriangleMesh@Gu@physx@@UEAAPEAXI@Z 00000001800b10e0 f i GuTriangleMesh.obj
 0001:000b0140       ?acquireReference@TriangleMesh@Gu@physx@@UEAAXXZ 00000001800b1140 f i GuTriangleMesh.obj
 0001:000b0150       ?getLocalBounds@TriangleMesh@Gu@physx@@UEBA?AVPxBounds3@3@XZ 00000001800b1150 f i GuTriangleMesh.obj
 0001:000b01e0       ?getNbTriangles@TriangleMesh@Gu@physx@@UEBAIXZ 00000001800b11e0 f i GuTriangleMesh.obj
 0001:000b01f0       ?getNbVertices@TriangleMesh@Gu@physx@@UEBAIXZ 00000001800b11f0 f i GuTriangleMesh.obj
 0001:000b0200       ?getReferenceCount@TriangleMesh@Gu@physx@@UEBAIXZ 00000001800b1200 f i GuTriangleMesh.obj
 0001:000b0210       ?getTriangleMaterialIndex@TriangleMesh@Gu@physx@@UEBAGI@Z 00000001800b1210 f i GuTriangleMesh.obj
 0001:000b0230       ?getTriangleMeshFlags@TriangleMesh@Gu@physx@@UEBA?AV?$PxFlags@W4Enum@PxTriangleMeshFlag@physx@@E@3@XZ 00000001800b1230 f i GuTriangleMesh.obj
 0001:000b0240       ?getTriangles@TriangleMesh@Gu@physx@@UEBAPEBXXZ 00000001800b1240 f i GuTriangleMesh.obj
 0001:000b0250       ?getTrianglesRemap@TriangleMesh@Gu@physx@@UEBAPEBIXZ 00000001800b1250 f i GuTriangleMesh.obj
 0001:000b0260       ?getVertices@TriangleMesh@Gu@physx@@UEBAPEBVPxVec3@3@XZ 00000001800b1260 f i GuTriangleMesh.obj
 0001:000b0270       ?isKindOf@PxTriangleMesh@physx@@MEBA_NPEBD@Z 00000001800b1270 f i GuTriangleMesh.obj
 0001:000b02c0       ?requiresObjects@TriangleMesh@Gu@physx@@UEAAXAEAVPxProcessPxBaseCallback@3@@Z 00000001800b12c0 f i GuTriangleMesh.obj
 0001:000b02d0       ?exportExtraData@BV4TriangleMesh@Gu@physx@@UEAAXAEAVPxSerializationContext@3@@Z 00000001800b12d0 f   GuTriangleMeshBV4.obj
 0001:000b0310       ?importExtraData@BV4TriangleMesh@Gu@physx@@QEAAXAEAVPxDeserializationContext@3@@Z 00000001800b1310 f   GuTriangleMeshBV4.obj
 0001:000b0390       ?createObject@BV4TriangleMesh@Gu@physx@@SAPEAVTriangleMesh@23@AEAPEAEAEAVPxDeserializationContext@3@@Z 00000001800b1390 f   GuTriangleMeshBV4.obj
 0001:000b0490       ??0BV4TriangleMesh@Gu@physx@@QEAA@AEAVGuMeshFactory@2@AEAVTriangleMeshData@12@@Z 00000001800b1490 f   GuTriangleMeshBV4.obj
 0001:000b0530       ??1BV4TriangleMesh@Gu@physx@@UEAA@XZ 00000001800b1530 f i GuTriangleMeshBV4.obj
 0001:000b0574       ??_EBV4TriangleMesh@Gu@physx@@WBA@EAAPEAXI@Z 00000001800b1574 f i GuTriangleMeshBV4.obj
 0001:000b0580       ??_EBV4TriangleMesh@Gu@physx@@UEAAPEAXI@Z 00000001800b1580 f i GuTriangleMeshBV4.obj
 0001:000b0580       ??_GBV4TriangleMesh@Gu@physx@@UEAAPEAXI@Z 00000001800b1580 f i GuTriangleMeshBV4.obj
 0001:000b0610       ?getConcreteTypeName@BV4TriangleMesh@Gu@physx@@UEBAPEBDXZ 00000001800b1610 f i GuTriangleMeshBV4.obj
 0001:000b0620       ?getMidphaseID@BV4TriangleMesh@Gu@physx@@UEBA?AW4Enum@PxMeshMidPhase@3@XZ 00000001800b1620 f i GuTriangleMeshBV4.obj
 0001:000b0630       ?exportExtraData@RTreeTriangleMesh@Gu@physx@@UEAAXAEAVPxSerializationContext@3@@Z 00000001800b1630 f   GuTriangleMeshRTree.obj
 0001:000b0670       ?importExtraData@RTreeTriangleMesh@Gu@physx@@QEAAXAEAVPxDeserializationContext@3@@Z 00000001800b1670 f   GuTriangleMeshRTree.obj
 0001:000b06b0       ?createObject@RTreeTriangleMesh@Gu@physx@@SAPEAVTriangleMesh@23@AEAPEAEAEAVPxDeserializationContext@3@@Z 00000001800b16b0 f   GuTriangleMeshRTree.obj
 0001:000b0770       ??0RTreeTriangleMesh@Gu@physx@@QEAA@AEAVGuMeshFactory@2@AEAVTriangleMeshData@12@@Z 00000001800b1770 f   GuTriangleMeshRTree.obj
 0001:000b08f0       ?getVerticesForModification@RTreeTriangleMesh@Gu@physx@@UEAAPEAVPxVec3@3@XZ 00000001800b18f0 f   GuTriangleMeshRTree.obj
 0001:000b0900       ?refitBVH@RTreeTriangleMesh@Gu@physx@@UEAA?AVPxBounds3@3@XZ 00000001800b1900 f   GuTriangleMeshRTree.obj
 0001:000b0b20       ??1CallbackRefit@RTree@Gu@physx@@UEAA@XZ 00000001800b1b20 f i GuTriangleMeshRTree.obj
 0001:000b0b30       ??1RTreeTriangleMesh@Gu@physx@@UEAA@XZ 00000001800b1b30 f i GuTriangleMeshRTree.obj
 0001:000b0ba0       ??_ERTreeTriangleMesh@Gu@physx@@WBA@EAAPEAXI@Z 00000001800b1ba0 f i GuTriangleMeshRTree.obj
 0001:000b0bb0       ??_E?$RefitCallback@G@physx@@UEAAPEAXI@Z 00000001800b1bb0 f i GuTriangleMeshRTree.obj
 0001:000b0bb0       ??_G?$RefitCallback@G@physx@@UEAAPEAXI@Z 00000001800b1bb0 f i GuTriangleMeshRTree.obj
 0001:000b0be0       ??_G?$RefitCallback@I@physx@@UEAAPEAXI@Z 00000001800b1be0 f i GuTriangleMeshRTree.obj
 0001:000b0be0       ??_E?$RefitCallback@I@physx@@UEAAPEAXI@Z 00000001800b1be0 f i GuTriangleMeshRTree.obj
 0001:000b0c10       ??_GCallbackRefit@RTree@Gu@physx@@UEAAPEAXI@Z 00000001800b1c10 f i GuTriangleMeshRTree.obj
 0001:000b0c10       ??_ECallbackRefit@RTree@Gu@physx@@UEAAPEAXI@Z 00000001800b1c10 f i GuTriangleMeshRTree.obj
 0001:000b0c40       ??_ERTreeTriangleMesh@Gu@physx@@UEAAPEAXI@Z 00000001800b1c40 f i GuTriangleMeshRTree.obj
 0001:000b0c40       ??_GRTreeTriangleMesh@Gu@physx@@UEAAPEAXI@Z 00000001800b1c40 f i GuTriangleMeshRTree.obj
 0001:000b0d00       ?getConcreteTypeName@RTreeTriangleMesh@Gu@physx@@UEBAPEBDXZ 00000001800b1d00 f i GuTriangleMeshRTree.obj
 0001:000b0d10       ?getMidphaseID@RTreeTriangleMesh@Gu@physx@@UEBA?AW4Enum@PxMeshMidPhase@3@XZ 00000001800b1d10 f i GuTriangleMeshRTree.obj
 0001:000b0d20       ?recomputeBounds@?$RefitCallback@G@physx@@UEAAXIAEAT__m128@@0@Z 00000001800b1d20 f i GuTriangleMeshRTree.obj
 0001:000b1050       ?recomputeBounds@?$RefitCallback@I@physx@@UEAAXIAEAT__m128@@0@Z 00000001800b2050 f i GuTriangleMeshRTree.obj
 0001:000b1370       ?exportExtraData@HeightField@Gu@physx@@UEAAXAEAVPxSerializationContext@3@@Z 00000001800b2370 f   GuHeightField.obj
 0001:000b13d0       ?importExtraData@HeightField@Gu@physx@@QEAAXAEAVPxDeserializationContext@3@@Z 00000001800b23d0 f   GuHeightField.obj
 0001:000b1400       ?createObject@HeightField@Gu@physx@@SAPEAV123@AEAPEAEAEAVPxDeserializationContext@3@@Z 00000001800b2400 f   GuHeightField.obj
 0001:000b1490       ??0HeightField@Gu@physx@@QEAA@PEAVGuMeshFactory@2@@Z 00000001800b2490 f   GuHeightField.obj
 0001:000b1500       ??0HeightField@Gu@physx@@QEAA@AEAVGuMeshFactory@2@AEAUHeightFieldData@12@@Z 00000001800b2500 f   GuHeightField.obj
 0001:000b15e0       ?release@HeightField@Gu@physx@@UEAAXXZ 00000001800b25e0 f   GuHeightField.obj
 0001:000b1620       ?saveCells@HeightField@Gu@physx@@UEBAIPEAXI@Z 00000001800b2620 f   GuHeightField.obj
 0001:000b1660       ?modifySamples@HeightField@Gu@physx@@UEAA_NHHAEBVPxHeightFieldDesc@3@_N@Z 00000001800b2660 f   GuHeightField.obj
 0001:000b19d0       ?acquireReference@HeightField@Gu@physx@@UEAAXXZ 00000001800b29d0 f   GuHeightField.obj
 0001:000b19e0       ?getReferenceCount@HeightField@Gu@physx@@UEBAIXZ 00000001800b29e0 f   GuHeightField.obj
 0001:000b19f0       ?onRefCountZero@HeightField@Gu@physx@@UEAAXXZ 00000001800b29f0 f   GuHeightField.obj
 0001:000b1a90       ?loadFromDesc@HeightField@Gu@physx@@QEAA_NAEBVPxHeightFieldDesc@3@@Z 00000001800b2a90 f   GuHeightField.obj
 0001:000b1cc0       ?load@HeightField@Gu@physx@@QEAA_NAEAVPxInputStream@3@@Z 00000001800b2cc0 f   GuHeightField.obj
 0001:000b2040       ?computeCellCoordinates@HeightField@Gu@physx@@QEBAIMMAEAM0@Z 00000001800b3040 f   GuHeightField.obj
 0001:000b2150       ?isSolidVertex@HeightField@Gu@physx@@QEBA_NIIIGAEA_N@Z 00000001800b3150 f   GuHeightField.obj
 0001:000b22d0       ?isCollisionVertexPreca@HeightField@Gu@physx@@QEBA_NIIIG@Z 00000001800b32d0 f   GuHeightField.obj
 0001:000b2370       ?parseTrianglesForCollisionVertices@HeightField@Gu@physx@@QEAAXG@Z 00000001800b3370 f   GuHeightField.obj
 0001:000b2870       ?computeExtreme@HeightField@Gu@physx@@QEBAMIIII@Z 00000001800b3870 f   GuHeightField.obj
 0001:000b2960       ?releaseMemory@HeightField@Gu@physx@@QEAAXXZ 00000001800b3960 f   GuHeightField.obj
 0001:000b29b0       ??1HeightField@Gu@physx@@UEAA@XZ 00000001800b39b0 f   GuHeightField.obj
 0001:000b2a30       ?getVertexEdgeIndices@physx@@YAIAEBVHeightField@Gu@1@IIIQEAUEdgeData@1@@Z 00000001800b3a30 f   GuHeightField.obj
 0001:000b2c20       ?getEdgeTriangleIndices@physx@@YAIAEBVHeightField@Gu@1@AEBUEdgeData@1@PEIAI@Z 00000001800b3c20 f   GuHeightField.obj
 0001:000b2d50       ??0?$BitMapBase@VNonTrackingAllocator@shdfnd@physx@@@Cm@physx@@QEAA@XZ 00000001800b3d50 f i GuHeightField.obj
 0001:000b2d60       ??1?$BitMapBase@VNonTrackingAllocator@shdfnd@physx@@@Cm@physx@@QEAA@XZ 00000001800b3d60 f i GuHeightField.obj
 0001:000b2dc0       ??_EHeightField@Gu@physx@@UEAAPEAXI@Z 00000001800b3dc0 f i GuHeightField.obj
 0001:000b2f38       ??_EHeightField@Gu@physx@@WBA@EAAPEAXI@Z 00000001800b3f38 f i GuHeightField.obj
 0001:000b2f50       ??_EPxHeightField@physx@@MEAAPEAXI@Z 00000001800b3f50 f i GuHeightField.obj
 0001:000b2fe0       ?isConvexVertex@HeightField@Gu@physx@@QEBA_NIII@Z 00000001800b3fe0 f i GuHeightField.obj
 0001:000b30d0       ?requiresObjects@HeightField@Gu@physx@@UEAAXAEAVPxProcessPxBaseCallback@3@@Z 00000001800b40d0 f i GuHeightField.obj
 0001:000b30e0       ?resizeAndClear@?$BitMapBase@VNonTrackingAllocator@shdfnd@physx@@@Cm@physx@@QEAAXI@Z 00000001800b40e0 f i GuHeightField.obj
 0001:000b31a0       ?computeLocalBounds@HeightFieldUtil@Gu@physx@@QEBAXAEAVPxBounds3@3@@Z 00000001800b41a0 f   GuHeightFieldUtil.obj
 0001:000b3270       ?getFaceIndexAtShapePoint@HeightFieldUtil@Gu@physx@@QEBAIMM@Z 00000001800b4270 f   GuHeightFieldUtil.obj
 0001:000b3330       ?getFaceIndexAtShapePointNoTest@HeightFieldUtil@Gu@physx@@QEBAIMM@Z 00000001800b4330 f   GuHeightFieldUtil.obj
 0001:000b33e0       ?getFaceIndexAtShapePointNoTest2@HeightFieldUtil@Gu@physx@@QEBAIIMM@Z 00000001800b43e0 f   GuHeightFieldUtil.obj
 0001:000b3450       ?getVertexNormal@HeightFieldUtil@Gu@physx@@QEBA?AVPxVec3@3@III@Z 00000001800b4450 f   GuHeightFieldUtil.obj
 0001:000b37d0       ?getVertexFaceIndex@HeightFieldUtil@Gu@physx@@QEBAIIII@Z 00000001800b47d0 f   GuHeightFieldUtil.obj
 0001:000b3a20       ?getEdge@HeightFieldUtil@Gu@physx@@QEBAXIIIIAEAVPxVec3@3@0@Z 00000001800b4a20 f   GuHeightFieldUtil.obj
 0001:000b3c60       ?getEdgeFaceIndex@HeightFieldUtil@Gu@physx@@QEBAII@Z 00000001800b4c60 f   GuHeightFieldUtil.obj
 0001:000b3e50       ?getEdgeFaceIndex@HeightFieldUtil@Gu@physx@@QEBAIIIII@Z 00000001800b4e50 f   GuHeightFieldUtil.obj
 0001:000b4000       ?getEdgeFaceIndex@HeightFieldUtil@Gu@physx@@QEBAIIIPEIBI@Z 00000001800b5000 f   GuHeightFieldUtil.obj
 0001:000b40a0       ?findClosestPointsOnCell@HeightFieldUtil@Gu@physx@@QEBAIIIVPxVec3@3@PEIAV43@PEIAI_N33@Z 00000001800b50a0 f   GuHeightFieldUtil.obj
 0001:000b4820       ?findProjectionOnTriangle@HeightFieldUtil@Gu@physx@@QEBA_NIIIAEBVPxVec3@3@AEAV43@@Z 00000001800b5820 f   GuHeightFieldUtil.obj
 0001:000b4ad0       ?findClosestPointOnEdge@HeightFieldUtil@Gu@physx@@QEBAMIIIIAEBVPxVec3@3@AEAV43@@Z 00000001800b5ad0 f   GuHeightFieldUtil.obj
 0001:000b4dc0       ?getTriangle@HeightFieldUtil@Gu@physx@@QEBAIAEBVPxTransform@3@AEAVPxTriangle@3@PEAI2I_N3@Z 00000001800b5dc0 f   GuHeightFieldUtil.obj
 0001:000b58b0       ?overlapAABBTriangles@HeightFieldUtil@Gu@physx@@QEBA_NAEBVPxTransform@3@AEBVPxBounds3@3@IPEAV?$EntityReport@I@23@@Z 00000001800b68b0 f   GuHeightFieldUtil.obj
 0001:000b5ee0       ?getTriangleAdjacencyIndices@HeightField@Gu@physx@@QEBAXIIIIAEAI00@Z 00000001800b6ee0 f i GuHeightFieldUtil.obj
 0001:000b60c0       ?getTriangleIndex@HeightField@Gu@physx@@QEBAIMM@Z 00000001800b70c0 f i GuHeightFieldUtil.obj
 0001:000b6130       ?getTriangleVertexIndices@HeightField@Gu@physx@@QEBAXIAEAI00@Z 00000001800b7130 f i GuHeightFieldUtil.obj
 0001:000b61f0       ?checkOverlapAABB_heightFieldGeom@Gu@physx@@YA_NAEBVPxGeometry@2@AEBVPxTransform@2@AEBVPxBounds3@2@@Z 00000001800b71f0 f   GuOverlapTestsHF.obj
 0001:000b6670       ?GeomOverlapCallback_SphereHeightfield@@YA_NAEBVPxGeometry@physx@@AEBVPxTransform@2@01PEAUTriggerCache@Gu@2@@Z 00000001800b7670 f   GuOverlapTestsHF.obj
 0001:000b6850       ?GeomOverlapCallback_CapsuleHeightfield@@YA_NAEBVPxGeometry@physx@@AEBVPxTransform@2@01PEAUTriggerCache@Gu@2@@Z 00000001800b7850 f   GuOverlapTestsHF.obj
 0001:000b6a90       ?GeomOverlapCallback_BoxHeightfield@@YA_NAEBVPxGeometry@physx@@AEBVPxTransform@2@01PEAUTriggerCache@Gu@2@@Z 00000001800b7a90 f   GuOverlapTestsHF.obj
 0001:000b6dc0       ?GeomOverlapCallback_ConvexHeightfield@@YA_NAEBVPxGeometry@physx@@AEBVPxTransform@2@01PEAUTriggerCache@Gu@2@@Z 00000001800b7dc0 f   GuOverlapTestsHF.obj
 0001:000b6e30       ??$traceSegment@UTriggerTraceSegmentCallback@Gu@physx@@$0A@$0A@@HeightFieldTraceUtil@Gu@physx@@QEBAXAEBVPxVec3@2@0MPEAUTriggerTraceSegmentCallback@12@AEBVPxBounds3@2@_NPEBV32@@Z 00000001800b7e30 f i GuOverlapTestsHF.obj
 0001:000bae00       ?sweepCapsule_HeightFieldGeom@@YA_NAEBVPxGeometry@physx@@AEBVPxTransform@2@AEBVPxCapsuleGeometry@2@1AEBVCapsule@Gu@2@AEBVPxVec3@2@MAEAUPxSweepHit@2@V?$PxFlags@W4Enum@PxHitFlag@physx@@G@2@M@Z 00000001800bbe00 f   GuSweepsHF.obj
 0001:000bb770       ?sweepConvex_HeightFieldGeom@@YA_NAEBVPxGeometry@physx@@AEBVPxTransform@2@AEBVPxConvexMeshGeometry@2@1AEBVPxVec3@2@MAEAUPxSweepHit@2@V?$PxFlags@W4Enum@PxHitFlag@physx@@G@2@M@Z 00000001800bc770 f   GuSweepsHF.obj
 0001:000bc140       ?sweepBox_HeightFieldGeom@@YA_NAEBVPxGeometry@physx@@AEBVPxTransform@2@AEBVPxBoxGeometry@2@1AEBVBox@Gu@2@AEBVPxVec3@2@MAEAUPxSweepHit@2@V?$PxFlags@W4Enum@PxHitFlag@physx@@G@2@M@Z 00000001800bd140 f   GuSweepsHF.obj
 0001:000bcfa0       ??$traceSegment@VBoxTraceSegmentReport@@$0A@$00@HeightFieldTraceUtil@Gu@physx@@QEBAXAEBVPxVec3@2@0MPEAVBoxTraceSegmentReport@@AEBVPxBounds3@2@_NPEBV32@@Z 00000001800bdfa0 f i GuSweepsHF.obj
 0001:000bd9c0       ??$traceSegment@VCapsuleTraceSegmentReport@@$0A@$00@HeightFieldTraceUtil@Gu@physx@@QEBAXAEBVPxVec3@2@0MPEAVCapsuleTraceSegmentReport@@AEBVPxBounds3@2@_NPEBV32@@Z 00000001800be9c0 f i GuSweepsHF.obj
 0001:000be3e0       ??$traceSegment@VConvexTraceSegmentReport@@$0A@$00@HeightFieldTraceUtil@Gu@physx@@QEBAXAEBVPxVec3@2@0MPEAVConvexTraceSegmentReport@@AEBVPxBounds3@2@_NPEBV32@@Z 00000001800bf3e0 f i GuSweepsHF.obj
 0001:000bee00       ??0ConvexTraceSegmentReport@@QEAA@AEBVHeightFieldUtil@Gu@physx@@AEBUConvexHullData@23@AEBVPxMeshScale@3@AEBVPxTransform@3@3AEBVPxVec3@3@MV?$PxFlags@W4Enum@PxHitFlag@physx@@G@3@M@Z 00000001800bfe00 f i GuSweepsHF.obj
 0001:000bf7a0       ??_EBoxTraceSegmentReport@@UEAAPEAXI@Z 00000001800c07a0 f i GuSweepsHF.obj
 0001:000bf7a0       ??_GBoxTraceSegmentReport@@UEAAPEAXI@Z 00000001800c07a0 f i GuSweepsHF.obj
 0001:000bf7d0       ??_ECapsuleTraceSegmentReport@@UEAAPEAXI@Z 00000001800c07d0 f i GuSweepsHF.obj
 0001:000bf7d0       ??_GCapsuleTraceSegmentReport@@UEAAPEAXI@Z 00000001800c07d0 f i GuSweepsHF.obj
 0001:000bf800       ??_GConvexTraceSegmentReport@@UEAAPEAXI@Z 00000001800c0800 f i GuSweepsHF.obj
 0001:000bf800       ??_EConvexTraceSegmentReport@@UEAAPEAXI@Z 00000001800c0800 f i GuSweepsHF.obj
 0001:000bf830       ??_GHeightFieldTraceSegmentReport@@UEAAPEAXI@Z 00000001800c0830 f i GuSweepsHF.obj
 0001:000bf830       ??_EHeightFieldTraceSegmentReport@@UEAAPEAXI@Z 00000001800c0830 f i GuSweepsHF.obj
 0001:000bf860       ?finalizeHit@ConvexTraceSegmentReport@@QEAA_NAEAUPxSweepHit@physx@@AEBVPxHeightFieldGeometry@3@AEBVPxTransform@3@AEBVPxConvexMeshGeometry@3@2AEBVPxVec3@3@M@Z 00000001800c0860 f i GuSweepsHF.obj
 0001:000bfab0       ?onEvent@BoxTraceSegmentReport@@UEAA_NIPEAI@Z 00000001800c0ab0 f i GuSweepsHF.obj
 0001:000bff20       ?onEvent@CapsuleTraceSegmentReport@@UEAA_NIPEAI@Z 00000001800c0f20 f i GuSweepsHF.obj
 0001:000c0150       ?onEvent@ConvexTraceSegmentReport@@UEAA_NIPEAI@Z 00000001800c1150 f i GuSweepsHF.obj
 0001:000c0710       ?prepare@?$OverlapTraceSegment@VBoxTraceSegmentReport@@@HeightFieldTraceUtil@Gu@physx@@QEAAXAEBVPxVec3@4@00AEAM1@Z 00000001800c1710 f i GuSweepsHF.obj
 0001:000c09b0       ?prepare@?$OverlapTraceSegment@VCapsuleTraceSegmentReport@@@HeightFieldTraceUtil@Gu@physx@@QEAAXAEBVPxVec3@4@00AEAM1@Z 00000001800c19b0 f i GuSweepsHF.obj
 0001:000c0c50       ?prepare@?$OverlapTraceSegment@VConvexTraceSegmentReport@@@HeightFieldTraceUtil@Gu@physx@@QEAAXAEBVPxVec3@4@00AEAM1@Z 00000001800c1c50 f i GuSweepsHF.obj
 0001:000c0ef0       ?testVertexIndex@?$OverlapTraceSegment@VBoxTraceSegmentReport@@@HeightFieldTraceUtil@Gu@physx@@QEAA_NI@Z 00000001800c1ef0 f i GuSweepsHF.obj
 0001:000c1040       ?testVertexIndex@?$OverlapTraceSegment@VCapsuleTraceSegmentReport@@@HeightFieldTraceUtil@Gu@physx@@QEAA_NI@Z 00000001800c2040 f i GuSweepsHF.obj
 0001:000c1190       ?testVertexIndex@?$OverlapTraceSegment@VConvexTraceSegmentReport@@@HeightFieldTraceUtil@Gu@physx@@QEAA_NI@Z 00000001800c2190 f i GuSweepsHF.obj
 0001:000c12e0       ?pcmContactBoxBox@Gu@physx@@YA_NAEBVGeometryUnion@12@0AEBVPxTransform@2@1AEBUNarrowPhaseParams@12@AEAUCache@12@AEAVContactBuffer@12@PEAVRenderOutput@Cm@2@@Z 00000001800c22e0 f   GuPCMContactBoxBox.obj
 0001:000c1f90       ??$gjkPenetration@U?$RelativeConvex@VBoxV@Gu@physx@@@Gu@physx@@U?$LocalConvex@VBoxV@Gu@physx@@@23@@Gu@physx@@YA?AW4GjkStatus@01@AEBU?$RelativeConvex@VBoxV@Gu@physx@@@01@AEBU?$LocalConvex@VBoxV@Gu@physx@@@01@AEBT__m128@@2AEAT5@333PEIAE4AEAE_N@Z 00000001800c2f90 f i GuPCMContactBoxBox.obj
 0001:000c35d0       ??0MeshPersistentContact@Gu@physx@@QEAA@XZ 00000001800c45d0 f i GuPCMContactBoxBox.obj
 0001:000c35e0       ??0MultiplePersistentContactManifold@Gu@physx@@QEAA@XZ 00000001800c45e0 f i GuPCMContactBoxBox.obj
 0001:000c3630       ??0PersistentContact@Gu@physx@@QEAA@XZ 00000001800c4630 f i GuPCMContactBoxBox.obj
 0001:000c3640       ??0SinglePersistentContactManifold@Gu@physx@@QEAA@XZ 00000001800c4640 f i GuPCMContactBoxBox.obj
 0001:000c3650       ??4MultiplePersistentContactManifold@Gu@physx@@QEAAAEAV012@$$QEAV012@@Z 00000001800c4650 f i GuPCMContactBoxBox.obj
 0001:000c3960       ??4MultiplePersistentContactManifold@Gu@physx@@QEAAAEAV012@AEBV012@@Z 00000001800c4960 f i GuPCMContactBoxBox.obj
 0001:000c3980       ??_G?$RelativeConvex@VBoxV@Gu@physx@@@Gu@physx@@UEAAPEAXI@Z 00000001800c4980 f i GuPCMContactBoxBox.obj
 0001:000c3980       ??_E?$RelativeConvex@VBoxV@Gu@physx@@@Gu@physx@@UEAAPEAXI@Z 00000001800c4980 f i GuPCMContactBoxBox.obj
 0001:000c46b0       ?clearManifold@MultiplePersistentContactManifold@Gu@physx@@QEAAXXZ 00000001800c56b0 f i GuPCMContactBoxBox.obj
 0001:000c6290       ?getCenter@?$RelativeConvex@VBoxV@Gu@physx@@@Gu@physx@@UEBA?AT__m128@@XZ 00000001800c7290 f i GuPCMContactBoxBox.obj
 0001:000c62d0       ?getEmptyManifold@MultiplePersistentContactManifold@Gu@physx@@QEAAPEAVSinglePersistentContactManifold@23@XZ 00000001800c72d0 f i GuPCMContactBoxBox.obj
 0001:000c6500       ?getManifold@MultiplePersistentContactManifold@Gu@physx@@QEAAPEAVSinglePersistentContactManifold@23@I@Z 00000001800c7500 f i GuPCMContactBoxBox.obj
 0001:000c6520       ?getSweepMargin@?$RelativeConvex@VBoxV@Gu@physx@@@Gu@physx@@UEBA?AT__m128@@XZ 00000001800c7520 f i GuPCMContactBoxBox.obj
 0001:000c6540       ?initialize@MultiplePersistentContactManifold@Gu@physx@@QEAAXXZ 00000001800c7540 f i GuPCMContactBoxBox.obj
 0001:000c65a0       ?invalidate@MultiplePersistentContactManifold@Gu@physx@@QEAAIAEBVPsTransformV@aos@shdfnd@3@AEBT__m128@@1@Z 00000001800c75a0 f i GuPCMContactBoxBox.obj
 0001:000c6620       ?invalidate@MultiplePersistentContactManifold@Gu@physx@@QEAAIAEBVPsTransformV@aos@shdfnd@3@AEBT__m128@@@Z 00000001800c7620 f i GuPCMContactBoxBox.obj
 0001:000c66a0       ?maxTransformPositionDelta@MultiplePersistentContactManifold@Gu@physx@@QEAA?AT__m128@@AEBT4@@Z 00000001800c76a0 f i GuPCMContactBoxBox.obj
 0001:000c66e0       ?maxTransformQuatDelta@MultiplePersistentContactManifold@Gu@physx@@QEAA?AT__m128@@AEBT4@@Z 00000001800c76e0 f i GuPCMContactBoxBox.obj
 0001:000c6720       ?reduceManifoldContactsInDifferentPatches@MultiplePersistentContactManifold@Gu@physx@@QEAAIPEAPEAUPCMContactPatch@23@IPEAVMeshPersistentContact@23@IAEBT__m128@@@Z 00000001800c7720 f i GuPCMContactBoxBox.obj
 0001:000c6880       ?refineContactPatchConnective@MultiplePersistentContactManifold@Gu@physx@@QEAAXPEAPEAUPCMContactPatch@23@IPEAVMeshPersistentContact@23@AEBT__m128@@@Z 00000001800c7880 f i GuPCMContactBoxBox.obj
 0001:000c6970       ?refreshManifold@MultiplePersistentContactManifold@Gu@physx@@QEAAXAEBVPsMatTransformV@aos@shdfnd@3@AEBT__m128@@1@Z 00000001800c7970 f i GuPCMContactBoxBox.obj
 0001:000c6a70       ?setRelativeTransform@MultiplePersistentContactManifold@Gu@physx@@QEAAXAEBVPsTransformV@aos@shdfnd@3@@Z 00000001800c7a70 f i GuPCMContactBoxBox.obj
 0001:000c6a80       ?support@?$RelativeConvex@VBoxV@Gu@physx@@@Gu@physx@@UEBA?AT__m128@@AEBT4@@Z 00000001800c7a80 f i GuPCMContactBoxBox.obj
 0001:000c6b00       ?support@?$RelativeConvex@VBoxV@Gu@physx@@@Gu@physx@@UEBA?AT__m128@@AEBT4@AEAHPEAT4@@Z 00000001800c7b00 f i GuPCMContactBoxBox.obj
 0001:000c6b90       ?supportPoint@?$RelativeConvex@VBoxV@Gu@physx@@@Gu@physx@@UEBA?AT__m128@@HPEAT4@@Z 00000001800c7b90 f i GuPCMContactBoxBox.obj
 0001:000c6c00       ?toBuffer@MultiplePersistentContactManifold@Gu@physx@@QEAAXPEIAE@Z 00000001800c7c00 f i GuPCMContactBoxBox.obj
 0001:000c6ce0       ?pcmContactBoxConvex@Gu@physx@@YA_NAEBVGeometryUnion@12@0AEBVPxTransform@2@1AEBUNarrowPhaseParams@12@AEAUCache@12@AEAVContactBuffer@12@PEAVRenderOutput@Cm@2@@Z 00000001800c7ce0 f   GuPCMContactBoxConvex.obj
 0001:000c7cc0       ??$gjkPenetration@U?$RelativeConvex@VBoxV@Gu@physx@@@Gu@physx@@U?$LocalConvex@VShrunkConvexHullNoScaleV@Gu@physx@@@23@@Gu@physx@@YA?AW4GjkStatus@01@AEBU?$RelativeConvex@VBoxV@Gu@physx@@@01@AEBU?$LocalConvex@VShrunkConvexHullNoScaleV@Gu@physx@@@01@AEBT__m128@@2AEAT5@333PEIAE4AEAE_N@Z 00000001800c8cc0 f i GuPCMContactBoxConvex.obj
 0001:000c96f0       ??$gjkPenetration@U?$RelativeConvex@VBoxV@Gu@physx@@@Gu@physx@@U?$LocalConvex@VShrunkConvexHullV@Gu@physx@@@23@@Gu@physx@@YA?AW4GjkStatus@01@AEBU?$RelativeConvex@VBoxV@Gu@physx@@@01@AEBU?$LocalConvex@VShrunkConvexHullV@Gu@physx@@@01@AEBT__m128@@2AEAT5@333PEIAE4AEAE_N@Z 00000001800ca6f0 f i GuPCMContactBoxConvex.obj
 0001:000cb060       ??1SupportLocal@Gu@physx@@UEAA@XZ 00000001800cc060 f i GuPCMContactBoxConvex.obj
 0001:000cb070       ??_G?$LocalConvex@VShrunkConvexHullNoScaleV@Gu@physx@@@Gu@physx@@UEAAPEAXI@Z 00000001800cc070 f i GuPCMContactBoxConvex.obj
 0001:000cb070       ??_E?$LocalConvex@VShrunkConvexHullNoScaleV@Gu@physx@@@Gu@physx@@UEAAPEAXI@Z 00000001800cc070 f i GuPCMContactBoxConvex.obj
 0001:000cb0a0       ??_G?$SupportLocalImpl@VBoxV@Gu@physx@@@Gu@physx@@UEAAPEAXI@Z 00000001800cc0a0 f i GuPCMContactBoxConvex.obj
 0001:000cb0a0       ??_E?$SupportLocalImpl@VBoxV@Gu@physx@@@Gu@physx@@UEAAPEAXI@Z 00000001800cc0a0 f i GuPCMContactBoxConvex.obj
 0001:000cb0d0       ??_G?$SupportLocalImpl@VConvexHullNoScaleV@Gu@physx@@@Gu@physx@@UEAAPEAXI@Z 00000001800cc0d0 f i GuPCMContactBoxConvex.obj
 0001:000cb0d0       ??_E?$SupportLocalImpl@VConvexHullNoScaleV@Gu@physx@@@Gu@physx@@UEAAPEAXI@Z 00000001800cc0d0 f i GuPCMContactBoxConvex.obj
 0001:000cb100       ??_G?$SupportLocalImpl@VConvexHullV@Gu@physx@@@Gu@physx@@UEAAPEAXI@Z 00000001800cc100 f i GuPCMContactBoxConvex.obj
 0001:000cb100       ??_E?$SupportLocalImpl@VConvexHullV@Gu@physx@@@Gu@physx@@UEAAPEAXI@Z 00000001800cc100 f i GuPCMContactBoxConvex.obj
 0001:000cb130       ??_ESupportLocal@Gu@physx@@UEAAPEAXI@Z 00000001800cc130 f i GuPCMContactBoxConvex.obj
 0001:000cb130       ??_GSupportLocal@Gu@physx@@UEAAPEAXI@Z 00000001800cc130 f i GuPCMContactBoxConvex.obj
 0001:000cb480       ?doSupport@?$SupportLocalImpl@VBoxV@Gu@physx@@@Gu@physx@@UEBA?AT__m128@@AEBT4@@Z 00000001800cc480 f i GuPCMContactBoxConvex.obj
 0001:000cb4b0       ?doSupport@?$SupportLocalImpl@VBoxV@Gu@physx@@@Gu@physx@@UEBAXAEBT__m128@@AEAT4@1@Z 00000001800cc4b0 f i GuPCMContactBoxConvex.obj
 0001:000cb500       ?doSupport@?$SupportLocalImpl@VConvexHullNoScaleV@Gu@physx@@@Gu@physx@@UEBA?AT__m128@@AEBT4@@Z 00000001800cc500 f i GuPCMContactBoxConvex.obj
 0001:000cb550       ?doSupport@?$SupportLocalImpl@VConvexHullNoScaleV@Gu@physx@@@Gu@physx@@UEBAXAEBT__m128@@AEAT4@1@Z 00000001800cc550 f i GuPCMContactBoxConvex.obj
 0001:000cb6d0       ?doSupport@?$SupportLocalImpl@VConvexHullV@Gu@physx@@@Gu@physx@@UEBA?AT__m128@@AEBT4@@Z 00000001800cc6d0 f i GuPCMContactBoxConvex.obj
 0001:000cb7b0       ?doSupport@?$SupportLocalImpl@VConvexHullV@Gu@physx@@@Gu@physx@@UEBAXAEBT__m128@@AEAT4@1@Z 00000001800cc7b0 f i GuPCMContactBoxConvex.obj
 0001:000cbd50       ?getCenter@?$LocalConvex@VShrunkConvexHullNoScaleV@Gu@physx@@@Gu@physx@@UEBA?AT__m128@@XZ 00000001800ccd50 f i GuPCMContactBoxConvex.obj
 0001:000cbd60       ?getSweepMargin@?$LocalConvex@VShrunkConvexHullNoScaleV@Gu@physx@@@Gu@physx@@UEBA?AT__m128@@XZ 00000001800ccd60 f i GuPCMContactBoxConvex.obj
 0001:000cbd80       ?populateVerts@?$SupportLocalImpl@VBoxV@Gu@physx@@@Gu@physx@@UEBAXPEBEIPEBVPxVec3@3@PEAT__m128@@@Z 00000001800ccd80 f i GuPCMContactBoxConvex.obj
 0001:000cbdc0       ?populateVerts@?$SupportLocalImpl@VConvexHullNoScaleV@Gu@physx@@@Gu@physx@@UEBAXPEBEIPEBVPxVec3@3@PEAT__m128@@@Z 00000001800ccdc0 f i GuPCMContactBoxConvex.obj
 0001:000cbe00       ?populateVerts@?$SupportLocalImpl@VConvexHullV@Gu@physx@@@Gu@physx@@UEBAXPEBEIPEBVPxVec3@3@PEAT__m128@@@Z 00000001800cce00 f i GuPCMContactBoxConvex.obj
 0001:000cbe60       ?support@?$LocalConvex@VShrunkConvexHullNoScaleV@Gu@physx@@@Gu@physx@@UEBA?AT__m128@@AEBT4@@Z 00000001800cce60 f i GuPCMContactBoxConvex.obj
 0001:000cc080       ?support@?$LocalConvex@VShrunkConvexHullNoScaleV@Gu@physx@@@Gu@physx@@UEBA?AT__m128@@AEBT4@AEAHPEAT4@@Z 00000001800cd080 f i GuPCMContactBoxConvex.obj
 0001:000cc2f0       ?supportPoint@?$LocalConvex@VShrunkConvexHullNoScaleV@Gu@physx@@@Gu@physx@@UEBA?AT__m128@@HPEAT4@@Z 00000001800cd2f0 f i GuPCMContactBoxConvex.obj
 0001:000cc540       ?pcmContactCapsuleBox@Gu@physx@@YA_NAEBVGeometryUnion@12@0AEBVPxTransform@2@1AEBUNarrowPhaseParams@12@AEAUCache@12@AEAVContactBuffer@12@PEAVRenderOutput@Cm@2@@Z 00000001800cd540 f   GuPCMContactCapsuleBox.obj
 0001:000cd280       ??$gjkPenetration@U?$LocalConvex@VCapsuleV@Gu@physx@@@Gu@physx@@U?$LocalConvex@VBoxV@Gu@physx@@@23@@Gu@physx@@YA?AW4GjkStatus@01@AEBU?$LocalConvex@VCapsuleV@Gu@physx@@@01@AEBU?$LocalConvex@VBoxV@Gu@physx@@@01@AEBT__m128@@2AEAT5@333PEIAE4AEAE_N@Z 00000001800ce280 f i GuPCMContactCapsuleBox.obj
 0001:000ce890       ?pcmContactCapsuleCapsule@Gu@physx@@YA_NAEBVGeometryUnion@12@0AEBVPxTransform@2@1AEBUNarrowPhaseParams@12@AEAUCache@12@AEAVContactBuffer@12@PEAVRenderOutput@Cm@2@@Z 00000001800cf890 f   GuPCMContactCapsuleCapsule.obj
 0001:000cf110       ?pcmContactCapsuleConvex@Gu@physx@@YA_NAEBVGeometryUnion@12@0AEBVPxTransform@2@1AEBUNarrowPhaseParams@12@AEAUCache@12@AEAVContactBuffer@12@PEAVRenderOutput@Cm@2@@Z 00000001800d0110 f   GuPCMContactCapsuleConvex.obj
 0001:000d0310       ??$gjkPenetration@U?$LocalConvex@VCapsuleV@Gu@physx@@@Gu@physx@@U?$LocalConvex@VConvexHullNoScaleV@Gu@physx@@@23@@Gu@physx@@YA?AW4GjkStatus@01@AEBU?$LocalConvex@VCapsuleV@Gu@physx@@@01@AEBU?$LocalConvex@VConvexHullNoScaleV@Gu@physx@@@01@AEBT__m128@@2AEAT5@333PEIAE4AEAE_N@Z 00000001800d1310 f i GuPCMContactCapsuleConvex.obj
 0001:000d1900       ??$gjkPenetration@U?$LocalConvex@VCapsuleV@Gu@physx@@@Gu@physx@@U?$LocalConvex@VConvexHullV@Gu@physx@@@23@@Gu@physx@@YA?AW4GjkStatus@01@AEBU?$LocalConvex@VCapsuleV@Gu@physx@@@01@AEBU?$LocalConvex@VConvexHullV@Gu@physx@@@01@AEBT__m128@@2AEAT5@333PEIAE4AEAE_N@Z 00000001800d2900 f i GuPCMContactCapsuleConvex.obj
 0001:000d2f80       ??_G?$LocalConvex@VConvexHullNoScaleV@Gu@physx@@@Gu@physx@@UEAAPEAXI@Z 00000001800d3f80 f i GuPCMContactCapsuleConvex.obj
 0001:000d2f80       ??_E?$LocalConvex@VConvexHullNoScaleV@Gu@physx@@@Gu@physx@@UEAAPEAXI@Z 00000001800d3f80 f i GuPCMContactCapsuleConvex.obj
 0001:000d3200       ?getCenter@?$LocalConvex@VConvexHullNoScaleV@Gu@physx@@@Gu@physx@@UEBA?AT__m128@@XZ 00000001800d4200 f i GuPCMContactCapsuleConvex.obj
 0001:000d3210       ?getSweepMargin@?$LocalConvex@VConvexHullNoScaleV@Gu@physx@@@Gu@physx@@UEBA?AT__m128@@XZ 00000001800d4210 f i GuPCMContactCapsuleConvex.obj
 0001:000d3230       ?support@?$LocalConvex@VConvexHullNoScaleV@Gu@physx@@@Gu@physx@@UEBA?AT__m128@@AEBT4@@Z 00000001800d4230 f i GuPCMContactCapsuleConvex.obj
 0001:000d3280       ?support@?$LocalConvex@VConvexHullNoScaleV@Gu@physx@@@Gu@physx@@UEBA?AT__m128@@AEBT4@AEAHPEAT4@@Z 00000001800d4280 f i GuPCMContactCapsuleConvex.obj
 0001:000d32e0       ?supportPoint@?$LocalConvex@VConvexHullNoScaleV@Gu@physx@@@Gu@physx@@UEBA?AT__m128@@HPEAT4@@Z 00000001800d42e0 f i GuPCMContactCapsuleConvex.obj
 0001:000d3310       ?pcmContactCapsuleHeightField@Gu@physx@@YA_NAEBVGeometryUnion@12@0AEBVPxTransform@2@1AEBUNarrowPhaseParams@12@AEAUCache@12@AEAVContactBuffer@12@PEAVRenderOutput@Cm@2@@Z 00000001800d4310 f   GuPCMContactCapsuleHeightField.obj
 0001:000d4040       ??0PCMContactPatch@Gu@physx@@QEAA@XZ 00000001800d5040 f i GuPCMContactCapsuleHeightField.obj
 0001:000d4060       ??0PCMMeshContactGeneration@Gu@physx@@QEAA@AEBT__m128@@0AEBVPsTransformV@aos@shdfnd@2@1AEAVMultiplePersistentContactManifold@12@AEAVContactBuffer@12@PEAV?$InlineArray@I$0EEA@V?$ReflectionAllocator@I@shdfnd@physx@@@62@PEAVRenderOutput@Cm@2@@Z 00000001800d5060 f i GuPCMContactCapsuleHeightField.obj
 0001:000d4970       ??_E?$PCMHeightfieldContactGenerationCallback@UPCMCapsuleVsHeightfieldContactGenerationCallback@physx@@@Gu@physx@@UEAAPEAXI@Z 00000001800d5970 f i GuPCMContactCapsuleHeightField.obj
 0001:000d4970       ??_G?$PCMHeightfieldContactGenerationCallback@UPCMCapsuleVsHeightfieldContactGenerationCallback@physx@@@Gu@physx@@UEAAPEAXI@Z 00000001800d5970 f i GuPCMContactCapsuleHeightField.obj
 0001:000d49a0       ??_EPCMCapsuleVsHeightfieldContactGenerationCallback@physx@@UEAAPEAXI@Z 00000001800d59a0 f i GuPCMContactCapsuleHeightField.obj
 0001:000d49a0       ??_GPCMCapsuleVsHeightfieldContactGenerationCallback@physx@@UEAAPEAXI@Z 00000001800d59a0 f i GuPCMContactCapsuleHeightField.obj
 0001:000d49d0       ?onEvent@?$PCMHeightfieldContactGenerationCallback@UPCMCapsuleVsHeightfieldContactGenerationCallback@physx@@@Gu@physx@@UEAA_NIPEAI@Z 00000001800d59d0 f i GuPCMContactCapsuleHeightField.obj
 0001:000d4f90       ?pcmContactCapsuleMesh@Gu@physx@@YA_NAEBVGeometryUnion@12@0AEBVPxTransform@2@1AEBUNarrowPhaseParams@12@AEAUCache@12@AEAVContactBuffer@12@PEAVRenderOutput@Cm@2@@Z 00000001800d5f90 f   GuPCMContactCapsuleMesh.obj
 0001:000d5eb0       ??$processTriangleCache@$0BA@@PCMCapsuleVsMeshContactGenerationCallback@physx@@QEAAXAEAU?$TriangleCache@$0BA@@Gu@1@@Z 00000001800d6eb0 f i GuPCMContactCapsuleMesh.obj
 0001:000d5f40       ??_E?$PCMMeshContactGenerationCallback@UPCMCapsuleVsMeshContactGenerationCallback@physx@@@Gu@physx@@UEAAPEAXI@Z 00000001800d6f40 f i GuPCMContactCapsuleMesh.obj
 0001:000d5f40       ??_G?$PCMMeshContactGenerationCallback@UPCMCapsuleVsMeshContactGenerationCallback@physx@@@Gu@physx@@UEAAPEAXI@Z 00000001800d6f40 f i GuPCMContactCapsuleMesh.obj
 0001:000d5f70       ??_EPCMCapsuleVsMeshContactGenerationCallback@physx@@UEAAPEAXI@Z 00000001800d6f70 f i GuPCMContactCapsuleMesh.obj
 0001:000d5f70       ??_GPCMCapsuleVsMeshContactGenerationCallback@physx@@UEAAPEAXI@Z 00000001800d6f70 f i GuPCMContactCapsuleMesh.obj
 0001:000d5fa0       ?processHit@?$PCMMeshContactGenerationCallback@UPCMCapsuleVsMeshContactGenerationCallback@physx@@@Gu@physx@@UEAA_NAEBUPxRaycastHit@3@AEBVPxVec3@3@11AEAMPEBI@Z 00000001800d6fa0 f i GuPCMContactCapsuleMesh.obj
 0001:000d6360       ?generateLastContacts@PCMConvexVsMeshContactGeneration@Gu@physx@@QEAAXXZ 00000001800d7360 f   GuPCMContactConvexCommon.obj
 0001:000d68b0       ?addContactsToPatch@PCMConvexVsMeshContactGeneration@Gu@physx@@QEAAXAEBT__m128@@I@Z 00000001800d78b0 f   GuPCMContactConvexCommon.obj
 0001:000d71e0       ?processTriangle@PCMConvexVsMeshContactGeneration@Gu@physx@@QEAA_NPEBVPxVec3@3@IEPEBI@Z 00000001800d81e0 f   GuPCMContactConvexCommon.obj
 0001:000d7750       ?processTriangle@PCMConvexVsMeshContactGeneration@Gu@physx@@SA_NAEBUPolygonalData@23@PEAVSupportLocal@23@PEBVPxVec3@3@IEAEBT__m128@@_NAEBVPsTransformV@aos@shdfnd@3@AEBVPsMatTransformV@9shdfnd@3@PEAVMeshPersistentContact@23@AEAI@Z 00000001800d8750 f   GuPCMContactConvexCommon.obj
 0001:000d79e0       ?processTriangle@PCMSphereVsMeshContactGeneration@Gu@physx@@QEAA_NPEBVPxVec3@3@IEPEBI@Z 00000001800d89e0 f   GuPCMContactConvexCommon.obj
 0001:000d7e00       ?generateLastContacts@PCMSphereVsMeshContactGeneration@Gu@physx@@QEAAXXZ 00000001800d8e00 f   GuPCMContactConvexCommon.obj
 0001:000d8270       ?addToPatch@PCMSphereVsMeshContactGeneration@Gu@physx@@QEAAXAEBT__m128@@0T4@I@Z 00000001800d9270 f   GuPCMContactConvexCommon.obj
 0001:000d8910       ?generateEEContacts@PCMCapsuleVsMeshContactGeneration@Gu@physx@@QEAAXAEBT__m128@@000I000PEAVMeshPersistentContact@23@AEAI@Z 00000001800d9910 f   GuPCMContactConvexCommon.obj
 0001:000d8a40       ?generateEE@PCMCapsuleVsMeshContactGeneration@Gu@physx@@QEAAXAEBT__m128@@000I00PEAVMeshPersistentContact@23@AEAI@Z 00000001800d9a40 f   GuPCMContactConvexCommon.obj
 0001:000d8cd0       ?generateContacts@PCMCapsuleVsMeshContactGeneration@Gu@physx@@SA_NAEBT__m128@@0000I000PEAVMeshPersistentContact@23@AEAI@Z 00000001800d9cd0 f   GuPCMContactConvexCommon.obj
 0001:000d9160       ?generateEEContactsMTD@PCMCapsuleVsMeshContactGeneration@Gu@physx@@SAXAEBT__m128@@000I000PEAVMeshPersistentContact@23@AEAI@Z 00000001800da160 f   GuPCMContactConvexCommon.obj
 0001:000d9280       ?generateEEMTD@PCMCapsuleVsMeshContactGeneration@Gu@physx@@SAXAEBT__m128@@000I00PEAVMeshPersistentContact@23@AEAI@Z 00000001800da280 f   GuPCMContactConvexCommon.obj
 0001:000d94d0       ?processTriangle@PCMCapsuleVsMeshContactGeneration@Gu@physx@@QEAA_NPEBVPxVec3@3@IEPEBI@Z 00000001800da4d0 f   GuPCMContactConvexCommon.obj
 0001:000da070       ?processTriangle@PCMCapsuleVsMeshContactGeneration@Gu@physx@@SA_NAEBVTriangleV@23@IAEBVCapsuleV@23@AEBT__m128@@EPEAVMeshPersistentContact@23@AEAI@Z 00000001800db070 f   GuPCMContactConvexCommon.obj
 0001:000da3b0       ?pcmDistanceSegmentTriangleSquared@Gu@physx@@YA?AT__m128@@AEBT3@0000AEAT3@11@Z 00000001800db3b0 f   GuPCMContactConvexCommon.obj
 0001:000dacf0       ??$sort@USortedTriangle@Gu@physx@@U?$Less@USortedTriangle@Gu@physx@@@shdfnd@3@@shdfnd@physx@@YAXPEAUSortedTriangle@Gu@1@IAEBU?$Less@USortedTriangle@Gu@physx@@@01@@Z 00000001800dbcf0 f i GuPCMContactConvexCommon.obj
 0001:000dad10       ??$sort@USortedTriangle@Gu@physx@@U?$Less@USortedTriangle@Gu@physx@@@shdfnd@3@V?$ReflectionAllocator@USortedTriangle@Gu@physx@@@53@@shdfnd@physx@@YAXPEAUSortedTriangle@Gu@1@IAEBU?$Less@USortedTriangle@Gu@physx@@@01@AEBV?$ReflectionAllocator@USortedTriangle@Gu@physx@@@01@I@Z 00000001800dbd10 f i GuPCMContactConvexCommon.obj
 0001:000db240       ??_E?$SupportLocalImpl@VTriangleV@Gu@physx@@@Gu@physx@@UEAAPEAXI@Z 00000001800dc240 f i GuPCMContactConvexCommon.obj
 0001:000db240       ??_G?$SupportLocalImpl@VTriangleV@Gu@physx@@@Gu@physx@@UEAAPEAXI@Z 00000001800dc240 f i GuPCMContactConvexCommon.obj
 0001:000db270       ?allocate@?$ReflectionAllocator@USortedTriangle@Gu@physx@@@shdfnd@physx@@QEAAPEAX_KPEBDH@Z 00000001800dc270 f i GuPCMContactConvexCommon.obj
 0001:000db310       ?doSupport@?$SupportLocalImpl@VTriangleV@Gu@physx@@@Gu@physx@@UEBA?AT__m128@@AEBT4@@Z 00000001800dc310 f i GuPCMContactConvexCommon.obj
 0001:000db3a0       ?doSupport@?$SupportLocalImpl@VTriangleV@Gu@physx@@@Gu@physx@@UEBAXAEBT__m128@@AEAT4@1@Z 00000001800dc3a0 f i GuPCMContactConvexCommon.obj
 0001:000db410       ?growAndPushBack@?$Array@USortedTriangle@Gu@physx@@V?$InlineAllocator@$0IAA@V?$ReflectionAllocator@USortedTriangle@Gu@physx@@@shdfnd@physx@@@shdfnd@3@@shdfnd@physx@@IEAAAEAUSortedTriangle@Gu@3@AEBU453@@Z 00000001800dc410 f i GuPCMContactConvexCommon.obj
 0001:000dba90       ?populateVerts@?$SupportLocalImpl@VTriangleV@Gu@physx@@@Gu@physx@@UEBAXPEBEIPEBVPxVec3@3@PEAT__m128@@@Z 00000001800dca90 f i GuPCMContactConvexCommon.obj
 0001:000dbbd0       ?pcmContactConvexConvex@Gu@physx@@YA_NAEBVGeometryUnion@12@0AEBVPxTransform@2@1AEBUNarrowPhaseParams@12@AEAUCache@12@AEAVContactBuffer@12@PEAVRenderOutput@Cm@2@@Z 00000001800dcbd0 f   GuPCMContactConvexConvex.obj
 0001:000dd0e0       ??$gjkPenetration@U?$RelativeConvex@VShrunkConvexHullNoScaleV@Gu@physx@@@Gu@physx@@U?$LocalConvex@VShrunkConvexHullNoScaleV@Gu@physx@@@23@@Gu@physx@@YA?AW4GjkStatus@01@AEBU?$RelativeConvex@VShrunkConvexHullNoScaleV@Gu@physx@@@01@AEBU?$LocalConvex@VShrunkConvexHullNoScaleV@Gu@physx@@@01@AEBT__m128@@2AEAT5@333PEIAE4AEAE_N@Z 00000001800de0e0 f i GuPCMContactConvexConvex.obj
 0001:000dee80       ??$gjkPenetration@U?$RelativeConvex@VShrunkConvexHullNoScaleV@Gu@physx@@@Gu@physx@@U?$LocalConvex@VShrunkConvexHullV@Gu@physx@@@23@@Gu@physx@@YA?AW4GjkStatus@01@AEBU?$RelativeConvex@VShrunkConvexHullNoScaleV@Gu@physx@@@01@AEBU?$LocalConvex@VShrunkConvexHullV@Gu@physx@@@01@AEBT__m128@@2AEAT5@333PEIAE4AEAE_N@Z 00000001800dfe80 f i GuPCMContactConvexConvex.obj
 0001:000e0be0       ??$gjkPenetration@U?$RelativeConvex@VShrunkConvexHullV@Gu@physx@@@Gu@physx@@U?$LocalConvex@VShrunkConvexHullNoScaleV@Gu@physx@@@23@@Gu@physx@@YA?AW4GjkStatus@01@AEBU?$RelativeConvex@VShrunkConvexHullV@Gu@physx@@@01@AEBU?$LocalConvex@VShrunkConvexHullNoScaleV@Gu@physx@@@01@AEBT__m128@@2AEAT5@333PEIAE4AEAE_N@Z 00000001800e1be0 f i GuPCMContactConvexConvex.obj
 0001:000e28d0       ??$gjkPenetration@U?$RelativeConvex@VShrunkConvexHullV@Gu@physx@@@Gu@physx@@U?$LocalConvex@VShrunkConvexHullV@Gu@physx@@@23@@Gu@physx@@YA?AW4GjkStatus@01@AEBU?$RelativeConvex@VShrunkConvexHullV@Gu@physx@@@01@AEBU?$LocalConvex@VShrunkConvexHullV@Gu@physx@@@01@AEBT__m128@@2AEAT5@333PEIAE4AEAE_N@Z 00000001800e38d0 f i GuPCMContactConvexConvex.obj
 0001:000e4520       ??_G?$RelativeConvex@VConvexHullV@Gu@physx@@@Gu@physx@@UEAAPEAXI@Z 00000001800e5520 f i GuPCMContactConvexConvex.obj
 0001:000e4520       ??_E?$RelativeConvex@VConvexHullV@Gu@physx@@@Gu@physx@@UEAAPEAXI@Z 00000001800e5520 f i GuPCMContactConvexConvex.obj
 0001:000e4550       ??_E?$RelativeConvex@VShrunkConvexHullNoScaleV@Gu@physx@@@Gu@physx@@UEAAPEAXI@Z 00000001800e5550 f i GuPCMContactConvexConvex.obj
 0001:000e4550       ??_G?$RelativeConvex@VShrunkConvexHullNoScaleV@Gu@physx@@@Gu@physx@@UEAAPEAXI@Z 00000001800e5550 f i GuPCMContactConvexConvex.obj
 0001:000e4580       ??_G?$RelativeConvex@VShrunkConvexHullV@Gu@physx@@@Gu@physx@@UEAAPEAXI@Z 00000001800e5580 f i GuPCMContactConvexConvex.obj
 0001:000e4580       ??_E?$RelativeConvex@VShrunkConvexHullV@Gu@physx@@@Gu@physx@@UEAAPEAXI@Z 00000001800e5580 f i GuPCMContactConvexConvex.obj
 0001:000e4c90       ?getCenter@?$RelativeConvex@VConvexHullV@Gu@physx@@@Gu@physx@@UEBA?AT__m128@@XZ 00000001800e5c90 f i GuPCMContactConvexConvex.obj
 0001:000e4cd0       ?getCenter@?$RelativeConvex@VShrunkConvexHullNoScaleV@Gu@physx@@@Gu@physx@@UEBA?AT__m128@@XZ 00000001800e5cd0 f i GuPCMContactConvexConvex.obj
 0001:000e4d10       ?getCenter@?$RelativeConvex@VShrunkConvexHullV@Gu@physx@@@Gu@physx@@UEBA?AT__m128@@XZ 00000001800e5d10 f i GuPCMContactConvexConvex.obj
 0001:000e4d50       ?getSweepMargin@?$RelativeConvex@VConvexHullV@Gu@physx@@@Gu@physx@@UEBA?AT__m128@@XZ 00000001800e5d50 f i GuPCMContactConvexConvex.obj
 0001:000e4d70       ?getSweepMargin@?$RelativeConvex@VShrunkConvexHullNoScaleV@Gu@physx@@@Gu@physx@@UEBA?AT__m128@@XZ 00000001800e5d70 f i GuPCMContactConvexConvex.obj
 0001:000e4d90       ?getSweepMargin@?$RelativeConvex@VShrunkConvexHullV@Gu@physx@@@Gu@physx@@UEBA?AT__m128@@XZ 00000001800e5d90 f i GuPCMContactConvexConvex.obj
 0001:000e4db0       ?support@?$RelativeConvex@VConvexHullV@Gu@physx@@@Gu@physx@@UEBA?AT__m128@@AEBT4@@Z 00000001800e5db0 f i GuPCMContactConvexConvex.obj
 0001:000e4ee0       ?support@?$RelativeConvex@VConvexHullV@Gu@physx@@@Gu@physx@@UEBA?AT__m128@@AEBT4@AEAHPEAT4@@Z 00000001800e5ee0 f i GuPCMContactConvexConvex.obj
 0001:000e5000       ?support@?$RelativeConvex@VShrunkConvexHullNoScaleV@Gu@physx@@@Gu@physx@@UEBA?AT__m128@@AEBT4@@Z 00000001800e6000 f i GuPCMContactConvexConvex.obj
 0001:000e5280       ?support@?$RelativeConvex@VShrunkConvexHullNoScaleV@Gu@physx@@@Gu@physx@@UEBA?AT__m128@@AEBT4@AEAHPEAT4@@Z 00000001800e6280 f i GuPCMContactConvexConvex.obj
 0001:000e5550       ?support@?$RelativeConvex@VShrunkConvexHullV@Gu@physx@@@Gu@physx@@UEBA?AT__m128@@AEBT4@@Z 00000001800e6550 f i GuPCMContactConvexConvex.obj
 0001:000e59b0       ?support@?$RelativeConvex@VShrunkConvexHullV@Gu@physx@@@Gu@physx@@UEBA?AT__m128@@AEBT4@AEAHPEAT4@@Z 00000001800e69b0 f i GuPCMContactConvexConvex.obj
 0001:000e5e50       ?supportPoint@?$RelativeConvex@VConvexHullV@Gu@physx@@@Gu@physx@@UEBA?AT__m128@@HPEAT4@@Z 00000001800e6e50 f i GuPCMContactConvexConvex.obj
 0001:000e5ed0       ?supportPoint@?$RelativeConvex@VShrunkConvexHullNoScaleV@Gu@physx@@@Gu@physx@@UEBA?AT__m128@@HPEAT4@@Z 00000001800e6ed0 f i GuPCMContactConvexConvex.obj
 0001:000e6150       ?supportPoint@?$RelativeConvex@VShrunkConvexHullV@Gu@physx@@@Gu@physx@@UEBA?AT__m128@@HPEAT4@@Z 00000001800e7150 f i GuPCMContactConvexConvex.obj
 0001:000e6560       ?pcmContactBoxHeightField@Gu@physx@@YA_NAEBVGeometryUnion@12@0AEBVPxTransform@2@1AEBUNarrowPhaseParams@12@AEAUCache@12@AEAVContactBuffer@12@PEAVRenderOutput@Cm@2@@Z 00000001800e7560 f   GuPCMContactConvexHeightField.obj
 0001:000e6800       ?pcmContactConvexHeightField@Gu@physx@@YA_NAEBVGeometryUnion@12@0AEBVPxTransform@2@1AEBUNarrowPhaseParams@12@AEAUCache@12@AEAVContactBuffer@12@PEAVRenderOutput@Cm@2@@Z 00000001800e7800 f   GuPCMContactConvexHeightField.obj
 0001:000e6eb0       ?PCMContactConvexHeightfield@Gu@physx@@YA_NAEBUPolygonalData@12@PEAVSupportLocal@12@AEBT__m128@@AEBVPxBounds3@2@AEBVPxHeightFieldGeometry@2@AEBVPxTransform@2@5MAEAVContactBuffer@12@AEBVFastVertex2ShapeScaling@Cm@2@_NAEAVMultiplePersistentContactManifold@12@PEAVRenderOutput@Cm@2@@Z 00000001800e7eb0 f   GuPCMContactConvexHeightField.obj
 0001:000e7960       ??_G?$PCMHeightfieldContactGenerationCallback@UPCMConvexVsHeightfieldContactGenerationCallback@physx@@@Gu@physx@@UEAAPEAXI@Z 00000001800e8960 f i GuPCMContactConvexHeightField.obj
 0001:000e7960       ??_E?$PCMHeightfieldContactGenerationCallback@UPCMConvexVsHeightfieldContactGenerationCallback@physx@@@Gu@physx@@UEAAPEAXI@Z 00000001800e8960 f i GuPCMContactConvexHeightField.obj
 0001:000e7990       ??_GPCMConvexVsHeightfieldContactGenerationCallback@physx@@UEAAPEAXI@Z 00000001800e8990 f i GuPCMContactConvexHeightField.obj
 0001:000e7990       ??_EPCMConvexVsHeightfieldContactGenerationCallback@physx@@UEAAPEAXI@Z 00000001800e8990 f i GuPCMContactConvexHeightField.obj
 0001:000e79c0       ?onEvent@?$PCMHeightfieldContactGenerationCallback@UPCMConvexVsHeightfieldContactGenerationCallback@physx@@@Gu@physx@@UEAA_NIPEAI@Z 00000001800e89c0 f i GuPCMContactConvexHeightField.obj
 0001:000e7f80       ?pcmContactBoxMesh@Gu@physx@@YA_NAEBVGeometryUnion@12@0AEBVPxTransform@2@1AEBUNarrowPhaseParams@12@AEAUCache@12@AEAVContactBuffer@12@PEAVRenderOutput@Cm@2@@Z 00000001800e8f80 f   GuPCMContactConvexMesh.obj
 0001:000e82d0       ?pcmContactConvexMesh@Gu@physx@@YA_NAEBVGeometryUnion@12@0AEBVPxTransform@2@1AEBUNarrowPhaseParams@12@AEAUCache@12@AEAVContactBuffer@12@PEAVRenderOutput@Cm@2@@Z 00000001800e92d0 f   GuPCMContactConvexMesh.obj
 0001:000e8a90       ?PCMContactConvexMesh@Gu@physx@@YA_NAEBUPolygonalData@12@PEAVSupportLocal@12@AEBT__m128@@AEBVPxBounds3@2@AEBUPxTriangleMeshGeometryLL@2@AEBVPxTransform@2@5MAEAVContactBuffer@12@AEBVFastVertex2ShapeScaling@Cm@2@7_N8AEAVMultiplePersistentContactManifold@12@PEAVRenderOutput@Cm@2@@Z 00000001800e9a90 f   GuPCMContactConvexMesh.obj
 0001:000e9640       ??$processTriangleCache@$0BA@@PCMConvexVsMeshContactGenerationCallback@physx@@QEAAXAEAU?$TriangleCache@$0BA@@Gu@1@@Z 00000001800ea640 f i GuPCMContactConvexMesh.obj
 0001:000e96d0       ??_G?$PCMMeshContactGenerationCallback@UPCMConvexVsMeshContactGenerationCallback@physx@@@Gu@physx@@UEAAPEAXI@Z 00000001800ea6d0 f i GuPCMContactConvexMesh.obj
 0001:000e96d0       ??_E?$PCMMeshContactGenerationCallback@UPCMConvexVsMeshContactGenerationCallback@physx@@@Gu@physx@@UEAAPEAXI@Z 00000001800ea6d0 f i GuPCMContactConvexMesh.obj
 0001:000e9700       ??_GPCMConvexVsMeshContactGenerationCallback@physx@@UEAAPEAXI@Z 00000001800ea700 f i GuPCMContactConvexMesh.obj
 0001:000e9700       ??_EPCMConvexVsMeshContactGenerationCallback@physx@@UEAAPEAXI@Z 00000001800ea700 f i GuPCMContactConvexMesh.obj
 0001:000e9730       ?processHit@?$PCMMeshContactGenerationCallback@UPCMConvexVsMeshContactGenerationCallback@physx@@@Gu@physx@@UEAA_NAEBUPxRaycastHit@3@AEBVPxVec3@3@11AEAMPEBI@Z 00000001800ea730 f i GuPCMContactConvexMesh.obj
 0001:000e9b60       ?generateFullContactManifold@Gu@physx@@YA_NAEAUPolygonalData@12@0PEAVSupportLocal@12@1PEAVPersistentContact@12@AEAIAEBT__m128@@444MM_NPEAVRenderOutput@Cm@2@M@Z 00000001800eab60 f   GuPCMContactGenBoxConvex.obj
 0001:000eb370       ?computeMTD@Gu@physx@@YA_NAEAUPolygonalData@12@0PEAVSupportLocal@12@1AEAT__m128@@2@Z 00000001800ec370 f   GuPCMContactGenBoxConvex.obj
 0001:000eb9d0       ?buildPartialHull@Gu@physx@@YAXAEBUPolygonalData@12@PEAVSupportLocal@12@AEAVSeparatingAxes@12@AEBT__m128@@3@Z 00000001800ec9d0 f   GuPCMContactGenBoxConvex.obj
 0001:000ebc90       ?generatedContacts@Gu@physx@@YAXAEAUPolygonalData@12@0AEBUHullPolygonData@12@1PEAVSupportLocal@12@2AEBVPsMatTransformV@aos@shdfnd@2@PEAVPersistentContact@12@AEAIAEBT__m128@@PEAVRenderOutput@Cm@2@@Z 00000001800ecc90 f   GuPCMContactGenBoxConvex.obj
 0001:000ed390       ?generateFullContactManifold@Gu@physx@@YA_NAEBVCapsuleV@12@AEAUPolygonalData@12@PEAVSupportLocal@12@AEBVPsMatTransformV@aos@shdfnd@2@PEAVPersistentContact@12@AEAIAEBT__m128@@AEAT__m128@@6M_NM@Z 00000001800ee390 f   GuPCMContactGenSphereCapsule.obj
 0001:000edc80       ?generateCapsuleBoxFullContactManifold@Gu@physx@@YA_NAEBVCapsuleV@12@AEAUPolygonalData@12@PEAVSupportLocal@12@AEBVPsMatTransformV@aos@shdfnd@2@PEAVPersistentContact@12@AEAIAEBT__m128@@AEAT__m128@@6M_NM@Z 00000001800eec80 f   GuPCMContactGenSphereCapsule.obj
 0001:000ee4e0       ?computeMTD@Gu@physx@@YA_NAEBVCapsuleV@12@AEAUPolygonalData@12@PEAVSupportLocal@12@AEAT__m128@@3@Z 00000001800ef4e0 f   GuPCMContactGenSphereCapsule.obj
 0001:000ee5d0       ?generateSphereFullContactManifold@Gu@physx@@YA_NAEBVCapsuleV@12@AEAUPolygonalData@12@PEAVSupportLocal@12@PEAVPersistentContact@12@AEAIAEBT__m128@@AEAT7@_N@Z 00000001800ef5d0 f   GuPCMContactGenSphereCapsule.obj
 0001:000eea30       ?generatedCapsuleBoxFaceContacts@Gu@physx@@YAXAEBVCapsuleV@12@AEAUPolygonalData@12@AEBUHullPolygonData@12@PEAVSupportLocal@12@AEBVPsMatTransformV@aos@shdfnd@2@PEAVPersistentContact@12@AEAIAEBT__m128@@7@Z 00000001800efa30 f   GuPCMContactGenSphereCapsule.obj
 0001:000ef1e0       ?generatedContactsEEContacts@Gu@physx@@YAXAEBVCapsuleV@12@AEAUPolygonalData@12@AEBUHullPolygonData@12@PEAVSupportLocal@12@AEBVPsMatTransformV@aos@shdfnd@2@PEAVPersistentContact@12@AEAIAEBT__m128@@7@Z 00000001800f01e0 f   GuPCMContactGenSphereCapsule.obj
 0001:000efe50       ?pcmContactPlaneBox@Gu@physx@@YA_NAEBVGeometryUnion@12@0AEBVPxTransform@2@1AEBUNarrowPhaseParams@12@AEAUCache@12@AEAVContactBuffer@12@PEAVRenderOutput@Cm@2@@Z 00000001800f0e50 f   GuPCMContactPlaneBox.obj
 0001:000f0a00       ?pcmContactPlaneCapsule@Gu@physx@@YA_NAEBVGeometryUnion@12@0AEBVPxTransform@2@1AEBUNarrowPhaseParams@12@AEAUCache@12@AEAVContactBuffer@12@PEAVRenderOutput@Cm@2@@Z 00000001800f1a00 f   GuPCMContactPlaneCapsule.obj
 0001:000f11a0       ?pcmContactPlaneConvex@Gu@physx@@YA_NAEBVGeometryUnion@12@0AEBVPxTransform@2@1AEBUNarrowPhaseParams@12@AEAUCache@12@AEAVContactBuffer@12@PEAVRenderOutput@Cm@2@@Z 00000001800f21a0 f   GuPCMContactPlaneConvex.obj
 0001:000f1b00       ?pcmContactSphereBox@Gu@physx@@YA_NAEBVGeometryUnion@12@0AEBVPxTransform@2@1AEBUNarrowPhaseParams@12@AEAUCache@12@AEAVContactBuffer@12@PEAVRenderOutput@Cm@2@@Z 00000001800f2b00 f   GuPCMContactSphereBox.obj
 0001:000f1f70       ?pcmContactSphereCapsule@Gu@physx@@YA_NAEBVGeometryUnion@12@0AEBVPxTransform@2@1AEBUNarrowPhaseParams@12@AEAUCache@12@AEAVContactBuffer@12@PEAVRenderOutput@Cm@2@@Z 00000001800f2f70 f   GuPCMContactSphereCapsule.obj
 0001:000f21d0       ?pcmContactSphereConvex@Gu@physx@@YA_NAEBVGeometryUnion@12@0AEBVPxTransform@2@1AEBUNarrowPhaseParams@12@AEAUCache@12@AEAVContactBuffer@12@PEAVRenderOutput@Cm@2@@Z 00000001800f31d0 f   GuPCMContactSphereConvex.obj
 0001:000f3100       ?pcmContactSphereHeightField@Gu@physx@@YA_NAEBVGeometryUnion@12@0AEBVPxTransform@2@1AEBUNarrowPhaseParams@12@AEAUCache@12@AEAVContactBuffer@12@PEAVRenderOutput@Cm@2@@Z 00000001800f4100 f   GuPCMContactSphereHeightField.obj
 0001:000f3ba0       ??1?$Array@USortedTriangle@Gu@physx@@V?$InlineAllocator@$0IAA@V?$ReflectionAllocator@USortedTriangle@Gu@physx@@@shdfnd@physx@@@shdfnd@3@@shdfnd@physx@@QEAA@XZ 00000001800f4ba0 f i GuPCMContactSphereHeightField.obj
 0001:000f3c10       ??_E?$PCMHeightfieldContactGenerationCallback@UPCMSphereVsHeightfieldContactGenerationCallback@physx@@@Gu@physx@@UEAAPEAXI@Z 00000001800f4c10 f i GuPCMContactSphereHeightField.obj
 0001:000f3c10       ??_G?$PCMHeightfieldContactGenerationCallback@UPCMSphereVsHeightfieldContactGenerationCallback@physx@@@Gu@physx@@UEAAPEAXI@Z 00000001800f4c10 f i GuPCMContactSphereHeightField.obj
 0001:000f3c40       ??_EPCMSphereVsHeightfieldContactGenerationCallback@physx@@UEAAPEAXI@Z 00000001800f4c40 f i GuPCMContactSphereHeightField.obj
 0001:000f3c40       ??_GPCMSphereVsHeightfieldContactGenerationCallback@physx@@UEAAPEAXI@Z 00000001800f4c40 f i GuPCMContactSphereHeightField.obj
 0001:000f3c90       ?onEvent@?$PCMHeightfieldContactGenerationCallback@UPCMSphereVsHeightfieldContactGenerationCallback@physx@@@Gu@physx@@UEAA_NIPEAI@Z 00000001800f4c90 f i GuPCMContactSphereHeightField.obj
 0001:000f4250       ?pcmContactSphereMesh@Gu@physx@@YA_NAEBVGeometryUnion@12@0AEBVPxTransform@2@1AEBUNarrowPhaseParams@12@AEAUCache@12@AEAVContactBuffer@12@PEAVRenderOutput@Cm@2@@Z 00000001800f5250 f   GuPCMContactSphereMesh.obj
 0001:000f4e40       ??$processTriangleCache@$0BA@@PCMSphereVsMeshContactGenerationCallback@physx@@QEAAXAEAU?$TriangleCache@$0BA@@Gu@1@@Z 00000001800f5e40 f i GuPCMContactSphereMesh.obj
 0001:000f4ed0       ??_G?$PCMMeshContactGenerationCallback@UPCMSphereVsMeshContactGenerationCallback@physx@@@Gu@physx@@UEAAPEAXI@Z 00000001800f5ed0 f i GuPCMContactSphereMesh.obj
 0001:000f4ed0       ??_E?$PCMMeshContactGenerationCallback@UPCMSphereVsMeshContactGenerationCallback@physx@@@Gu@physx@@UEAAPEAXI@Z 00000001800f5ed0 f i GuPCMContactSphereMesh.obj
 0001:000f4f00       ??_EPCMSphereVsMeshContactGenerationCallback@physx@@UEAAPEAXI@Z 00000001800f5f00 f i GuPCMContactSphereMesh.obj
 0001:000f4f00       ??_GPCMSphereVsMeshContactGenerationCallback@physx@@UEAAPEAXI@Z 00000001800f5f00 f i GuPCMContactSphereMesh.obj
 0001:000f4f50       ?processHit@?$PCMMeshContactGenerationCallback@UPCMSphereVsMeshContactGenerationCallback@physx@@@Gu@physx@@UEAA_NAEBUPxRaycastHit@3@AEBVPxVec3@3@11AEAMPEBI@Z 00000001800f5f50 f i GuPCMContactSphereMesh.obj
 0001:000f5310       ?pcmContactSpherePlane@Gu@physx@@YA_NAEBVGeometryUnion@12@0AEBVPxTransform@2@1AEBUNarrowPhaseParams@12@AEAUCache@12@AEAVContactBuffer@12@PEAVRenderOutput@Cm@2@@Z 00000001800f6310 f   GuPCMContactSpherePlane.obj
 0001:000f54a0       ?pcmContactSphereSphere@Gu@physx@@YA_NAEBVGeometryUnion@12@0AEBVPxTransform@2@1AEBUNarrowPhaseParams@12@AEAUCache@12@AEAVContactBuffer@12@PEAVRenderOutput@Cm@2@@Z 00000001800f64a0 f   GuPCMContactSphereSphere.obj
 0001:000f5580       ??0PCMPolygonalBox@Gu@physx@@QEAA@AEBVPxVec3@2@@Z 00000001800f6580 f   GuPCMShapeConvex.obj
 0001:000f5750       ?getPolygonalData@PCMPolygonalBox@Gu@physx@@QEBAXPEIAUPolygonalData@23@@Z 00000001800f6750 f   GuPCMShapeConvex.obj
 0001:000f57a0       ?getPCMConvexData@Gu@physx@@YAXAEBVConvexHullV@12@_NAEAUPolygonalData@12@@Z 00000001800f67a0 f   GuPCMShapeConvex.obj
 0001:000f5900       ?getPCMConvexData@Gu@physx@@YA_NAEBVGeometryUnion@12@AEAVFastVertex2ShapeScaling@Cm@2@AEAVPxBounds3@2@AEAUPolygonalData@12@@Z 00000001800f6900 f   GuPCMShapeConvex.obj
 0001:000f5cc0       ?generateTriangleFullContactManifold@PCMConvexVsMeshContactGeneration@Gu@physx@@QEAA_NAEAVTriangleV@23@IPEBIEAEBUPolygonalData@23@PEAV?$SupportLocalImpl@VTriangleV@Gu@physx@@@23@PEAVSupportLocal@23@PEAVMeshPersistentContact@23@AEAIAEBT__m128@@AEAT9@@Z 00000001800f6cc0 f   GuPCMTriangleContactGen.obj
 0001:000f65d0       ?generatePolyDataContactManifold@PCMConvexVsMeshContactGeneration@Gu@physx@@QEAA_NAEAVTriangleV@23@IIEPEAVMeshPersistentContact@23@AEAIAEBT__m128@@AEAT6@@Z 00000001800f75d0 f   GuPCMTriangleContactGen.obj
 0001:000f6700       ?generateTriangleFullContactManifold@PCMConvexVsMeshContactGeneration@Gu@physx@@SA_NAEAVTriangleV@23@IEAEBUPolygonalData@23@PEAV?$SupportLocalImpl@VTriangleV@Gu@physx@@@23@PEAVSupportLocal@23@PEAVMeshPersistentContact@23@AEAIAEBT__m128@@AEAT9@PEAVRenderOutput@Cm@3@@Z 00000001800f7700 f   GuPCMTriangleContactGen.obj
 0001:000f8e20       ?findRotationMatrixFromZAxis@Gu@physx@@YA?AUMat33V@aos@shdfnd@2@AEBT__m128@@@Z 00000001800f9e20 f   GuPersistentContactManifold.obj
 0001:000f90b0       ?replaceManifoldPoint@PersistentContactManifold@Gu@physx@@QEAA_NAEBT__m128@@000@Z 00000001800fa0b0 f   GuPersistentContactManifold.obj
 0001:000f9180       ?addManifoldPoint@PersistentContactManifold@Gu@physx@@QEAAIAEBT__m128@@000@Z 00000001800fa180 f   GuPersistentContactManifold.obj
 0001:000f9250       ?addManifoldPoint2@PersistentContactManifold@Gu@physx@@QEAAIAEBT__m128@@000@Z 00000001800fa250 f   GuPersistentContactManifold.obj
 0001:000f9390       ?addBatchManifoldContactsCluster@PersistentContactManifold@Gu@physx@@QEAAXPEBVPersistentContact@23@I@Z 00000001800fa390 f   GuPersistentContactManifold.obj
 0001:000f9410       ?addBatchManifoldContacts2@PersistentContactManifold@Gu@physx@@QEAAXPEBVPersistentContact@23@I@Z 00000001800fa410 f   GuPersistentContactManifold.obj
 0001:000f9490       ?addBatchManifoldContacts@PersistentContactManifold@Gu@physx@@QEAAXPEBVPersistentContact@23@IM@Z 00000001800fa490 f   GuPersistentContactManifold.obj
 0001:000f9510       ?reduceBatchContactsCluster@PersistentContactManifold@Gu@physx@@QEAAXPEBVPersistentContact@23@I@Z 00000001800fa510 f   GuPersistentContactManifold.obj
 0001:000f99b0       ?reduceBatchContacts2@PersistentContactManifold@Gu@physx@@QEAAXPEBVPersistentContact@23@I@Z 00000001800fa9b0 f   GuPersistentContactManifold.obj
 0001:000f9bb0       ?reduceBatchContacts@PersistentContactManifold@Gu@physx@@QEAAXPEBVPersistentContact@23@IM@Z 00000001800fabb0 f   GuPersistentContactManifold.obj
 0001:000fa080       ?reduceContactsForPCM@PersistentContactManifold@Gu@physx@@QEAAIAEBT__m128@@00@Z 00000001800fb080 f   GuPersistentContactManifold.obj
 0001:000fa620       ?reduceContactSegment@PersistentContactManifold@Gu@physx@@QEAAIAEBT__m128@@00@Z 00000001800fb620 f   GuPersistentContactManifold.obj
 0001:000fa6c0       ?addManifoldContactsToContactBuffer@PersistentContactManifold@Gu@physx@@QEAAXAEAVContactBuffer@23@AEBT__m128@@AEBVPsMatTransformV@aos@shdfnd@3@@Z 00000001800fb6c0 f   GuPersistentContactManifold.obj
 0001:000fa770       ?addManifoldContactsToContactBuffer@PersistentContactManifold@Gu@physx@@QEAAXAEAVContactBuffer@23@AEBT__m128@@AEBVPsTransformV@aos@shdfnd@3@1@Z 00000001800fb770 f   GuPersistentContactManifold.obj
 0001:000fa8d0       ?addManifoldContactsToContactBuffer@PersistentContactManifold@Gu@physx@@QEAAXAEAVContactBuffer@23@AEBT__m128@@1AEBVPsTransformV@aos@shdfnd@3@11@Z 00000001800fb8d0 f   GuPersistentContactManifold.obj
 0001:000faa70       ?drawManifold@PersistentContactManifold@Gu@physx@@QEAAXAEAVRenderOutput@Cm@3@AEBVPsTransformV@aos@shdfnd@3@1@Z 00000001800fba70 f   GuPersistentContactManifold.obj
 0001:000faaf0       ?drawManifold@PersistentContactManifold@Gu@physx@@QEAAXAEAVRenderOutput@Cm@3@AEBVPsTransformV@aos@shdfnd@3@1AEBT__m128@@@Z 00000001800fbaf0 f   GuPersistentContactManifold.obj
 0001:000fab90       ?drawManifold@PersistentContactManifold@Gu@physx@@QEAAXAEBVPersistentContact@23@AEAVRenderOutput@Cm@3@AEBVPsTransformV@aos@shdfnd@3@2@Z 00000001800fbb90 f   GuPersistentContactManifold.obj
 0001:000fabc0       ?drawPoint@PersistentContactManifold@Gu@physx@@SAXAEAVRenderOutput@Cm@3@AEBT__m128@@MI@Z 00000001800fbbc0 f   GuPersistentContactManifold.obj
 0001:000fada0       ?drawLine@PersistentContactManifold@Gu@physx@@SAXAEAVRenderOutput@Cm@3@AEBT__m128@@1I@Z 00000001800fbda0 f   GuPersistentContactManifold.obj
 0001:000fae60       ?drawTriangle@PersistentContactManifold@Gu@physx@@SAXAEAVRenderOutput@Cm@3@AEBT__m128@@11I@Z 00000001800fbe60 f   GuPersistentContactManifold.obj
 0001:000faf50       ?drawPolygon@PersistentContactManifold@Gu@physx@@SAXAEAVRenderOutput@Cm@3@AEBVPsTransformV@aos@shdfnd@3@PEAT__m128@@II@Z 00000001800fbf50 f   GuPersistentContactManifold.obj
 0001:000fb1d0       ?drawPolygon@PersistentContactManifold@Gu@physx@@SAXAEAVRenderOutput@Cm@3@AEBVPsMatTransformV@aos@shdfnd@3@PEAT__m128@@II@Z 00000001800fc1d0 f   GuPersistentContactManifold.obj
 0001:000fb390       ?reduceBatchContactsConvex@SinglePersistentContactManifold@Gu@physx@@QEAA?AT__m128@@PEBVMeshPersistentContact@23@IAEAUPCMContactPatch@23@@Z 00000001800fc390 f   GuPersistentContactManifold.obj
 0001:000fb990       ?reduceBatchContactsSphere@SinglePersistentContactManifold@Gu@physx@@QEAA?AT__m128@@PEBVMeshPersistentContact@23@IAEAUPCMContactPatch@23@@Z 00000001800fc990 f   GuPersistentContactManifold.obj
 0001:000fba50       ?reduceBatchContactsCapsule@SinglePersistentContactManifold@Gu@physx@@QEAA?AT__m128@@PEBVMeshPersistentContact@23@IAEAUPCMContactPatch@23@@Z 00000001800fca50 f   GuPersistentContactManifold.obj
 0001:000fbce0       ?addBatchManifoldContactsConvex@SinglePersistentContactManifold@Gu@physx@@QEAA?AT__m128@@PEBVMeshPersistentContact@23@IAEAUPCMContactPatch@23@AEBT4@@Z 00000001800fcce0 f   GuPersistentContactManifold.obj
 0001:000fbdb0       ?addBatchManifoldContactsSphere@SinglePersistentContactManifold@Gu@physx@@QEAA?AT__m128@@PEBVMeshPersistentContact@23@IAEAUPCMContactPatch@23@AEBT4@@Z 00000001800fcdb0 f   GuPersistentContactManifold.obj
 0001:000fbe80       ?addBatchManifoldContactsCapsule@SinglePersistentContactManifold@Gu@physx@@QEAA?AT__m128@@PEBVMeshPersistentContact@23@IAEAUPCMContactPatch@23@AEBT4@@Z 00000001800fce80 f   GuPersistentContactManifold.obj
 0001:000fbf50       ?reduceContacts@SinglePersistentContactManifold@Gu@physx@@SAIPEAVMeshPersistentContact@23@I@Z 00000001800fcf50 f   GuPersistentContactManifold.obj
 0001:000fc460       ?refreshContactPoints@SinglePersistentContactManifold@Gu@physx@@QEAA?AT__m128@@AEBVPsMatTransformV@aos@shdfnd@3@AEBT4@1@Z 00000001800fd460 f   GuPersistentContactManifold.obj
 0001:000fc5b0       ?drawManifold@SinglePersistentContactManifold@Gu@physx@@QEAAXAEAVRenderOutput@Cm@3@AEBVPsTransformV@aos@shdfnd@3@1@Z 00000001800fd5b0 f   GuPersistentContactManifold.obj
 0001:000fc640       ?addManifoldContactPoints@MultiplePersistentContactManifold@Gu@physx@@QEAAXPEAVMeshPersistentContact@23@IPEAPEAUPCMContactPatch@23@IAEBT__m128@@2E@Z 00000001800fd640 f   GuPersistentContactManifold.obj
 0001:000fca60       ?addManifoldContactsToContactBuffer@MultiplePersistentContactManifold@Gu@physx@@QEAA_NAEAVContactBuffer@23@AEBVPsTransformV@aos@shdfnd@3@@Z 00000001800fda60 f   GuPersistentContactManifold.obj
 0001:000fccd0       ?addManifoldContactsToContactBuffer@MultiplePersistentContactManifold@Gu@physx@@QEAA_NAEAVContactBuffer@23@AEBVPsTransformV@aos@shdfnd@3@1AEBT__m128@@@Z 00000001800fdcd0 f   GuPersistentContactManifold.obj
 0001:000fcf90       ?drawManifold@MultiplePersistentContactManifold@Gu@physx@@QEAAXAEAVRenderOutput@Cm@3@AEBVPsTransformV@aos@shdfnd@3@1@Z 00000001800fdf90 f   GuPersistentContactManifold.obj
 0001:000fd050       ?fromBuffer@MultiplePersistentContactManifold@Gu@physx@@QEAAXPEIAE@Z 00000001800fe050 f   GuPersistentContactManifold.obj
 0001:000fd1a0       ?drawLine@MultiplePersistentContactManifold@Gu@physx@@SAXAEAVRenderOutput@Cm@3@AEBT__m128@@1I@Z 00000001800fe1a0 f   GuPersistentContactManifold.obj
 0001:000fd260       ?drawLine@MultiplePersistentContactManifold@Gu@physx@@SAXAEAVRenderOutput@Cm@3@VPxVec3@3@1I@Z 00000001800fe260 f   GuPersistentContactManifold.obj
 0001:000fd320       ?drawPoint@MultiplePersistentContactManifold@Gu@physx@@SAXAEAVRenderOutput@Cm@3@AEBT__m128@@MI@Z 00000001800fe320 f   GuPersistentContactManifold.obj
 0001:000fd500       ?drawPolygon@MultiplePersistentContactManifold@Gu@physx@@SAXAEAVRenderOutput@Cm@3@AEBVPsTransformV@aos@shdfnd@3@PEAT__m128@@II@Z 00000001800fe500 f   GuPersistentContactManifold.obj
 0001:000fe9c0       ?SweepEstimateAnyShapeHeightfield@Gu@physx@@YAMAEBUCCDShape@12@0AEBVPxTransform@2@111MM@Z 00000001800ff9c0 f   GuCCDSweepConvexMesh.obj
 0001:000ff230       ?SweepEstimateAnyShapeMesh@Gu@physx@@YAMAEBUCCDShape@12@0AEBVPxTransform@2@111MM@Z 0000000180100230 f   GuCCDSweepConvexMesh.obj
 0001:000ff670       ?SweepAnyShapeHeightfield@Gu@physx@@YAMAEBUCCDShape@12@0AEBVPxTransform@2@111MAEAVPxVec3@2@2MAEAIM@Z 0000000180100670 f   GuCCDSweepConvexMesh.obj
 0001:001007a0       ?SweepAnyShapeMesh@Gu@physx@@YAMAEBUCCDShape@12@0AEBVPxTransform@2@111MAEAVPxVec3@2@2MAEAIM@Z 00000001801017a0 f   GuCCDSweepConvexMesh.obj
 0001:00102f70       ?growAndPushBack@?$Array@IV?$InlineAllocator@$0BAA@V?$ReflectionAllocator@I@shdfnd@physx@@@shdfnd@physx@@@shdfnd@physx@@IEAAAEAIAEBI@Z 0000000180103f70 f i GuCCDSweepConvexMesh.obj
 0001:00103090       ?recreate@?$Array@IV?$InlineAllocator@$0BAA@V?$ReflectionAllocator@I@shdfnd@physx@@@shdfnd@physx@@@shdfnd@physx@@IEAAXI@Z 0000000180104090 f i GuCCDSweepConvexMesh.obj
 0001:00103170       ?recreate@?$Array@IV?$ReflectionAllocator@I@shdfnd@physx@@@shdfnd@physx@@IEAAXI@Z 0000000180104170 f i GuCCDSweepConvexMesh.obj
 0001:00103230       ?resize@?$Array@IV?$InlineAllocator@$0BAA@V?$ReflectionAllocator@I@shdfnd@physx@@@shdfnd@physx@@@shdfnd@physx@@QEAAXIAEBI@Z 0000000180104230 f i GuCCDSweepConvexMesh.obj
 0001:00103300       ?resize@?$Array@IV?$ReflectionAllocator@I@shdfnd@physx@@@shdfnd@physx@@QEAAXIAEBI@Z 0000000180104300 f i GuCCDSweepConvexMesh.obj
 0001:001033c0       ?SweepShapeShape@Gu@physx@@YAMAEBUCCDShape@12@0AEBVPxTransform@2@111MAEAVPxVec3@2@2MAEAIM@Z 00000001801043c0 f   GuCCDSweepPrimitives.obj
 0001:001033f0       ?UnimplementedSweep@Gu@physx@@YAMAEBUCCDShape@12@0AEBVPxTransform@2@111MAEAVPxVec3@2@2MAEAIM@Z 00000001801043f0 f   GuCCDSweepPrimitives.obj
 0001:00103400       ?UnimplementedTriangleSweep@Gu@physx@@YAMAEBVGeometryUnion@12@0AEBVPxTransform@2@111MAEAVPxVec3@2@2AEBVFastVertex2ShapeScaling@Cm@2@AEAVTriangleV@12@M@Z 0000000180104400 f   GuCCDSweepPrimitives.obj
 0001:00103410       ?SweepShapeTriangle@Gu@physx@@YAMAEBVGeometryUnion@12@0AEBVPxTransform@2@111MAEAVPxVec3@2@2AEBVFastVertex2ShapeScaling@Cm@2@AEAVTriangleV@12@M@Z 0000000180104410 f   GuCCDSweepPrimitives.obj
 0001:00103430       ??$SweepGeomGeom@VCapsuleV@Gu@physx@@V123@@Gu@physx@@YAMAEBUCCDShape@01@0AEBVPxTransform@1@111MAEAVPxVec3@1@2MAEAIM@Z 0000000180104430 f i GuCCDSweepPrimitives.obj
 0001:00103570       ??$SweepGeomGeom@VCapsuleV@Gu@physx@@VBoxV@23@@Gu@physx@@YAMAEBUCCDShape@01@0AEBVPxTransform@1@111MAEAVPxVec3@1@2MAEAIM@Z 0000000180104570 f i GuCCDSweepPrimitives.obj
 0001:00103710       ??$SweepGeomGeom@VCapsuleV@Gu@physx@@VConvexHullV@23@@Gu@physx@@YAMAEBUCCDShape@01@0AEBVPxTransform@1@111MAEAVPxVec3@1@2MAEAIM@Z 0000000180104710 f i GuCCDSweepPrimitives.obj
 0001:00103c80       ??$SweepGeomGeom@VBoxV@Gu@physx@@V123@@Gu@physx@@YAMAEBUCCDShape@01@0AEBVPxTransform@1@111MAEAVPxVec3@1@2MAEAIM@Z 0000000180104c80 f i GuCCDSweepPrimitives.obj
 0001:00103e90       ??$SweepGeomGeom@VBoxV@Gu@physx@@VConvexHullV@23@@Gu@physx@@YAMAEBUCCDShape@01@0AEBVPxTransform@1@111MAEAVPxVec3@1@2MAEAIM@Z 0000000180104e90 f i GuCCDSweepPrimitives.obj
 0001:00104440       ??$SweepGeomGeom@VConvexHullV@Gu@physx@@V123@@Gu@physx@@YAMAEBUCCDShape@01@0AEBVPxTransform@1@111MAEAVPxVec3@1@2MAEAIM@Z 0000000180105440 f i GuCCDSweepPrimitives.obj
 0001:00104d60       ??$SweepGeomTriangles@VCapsuleV@Gu@physx@@@Gu@physx@@YAMAEBVGeometryUnion@01@0AEBVPxTransform@1@111MAEAVPxVec3@1@2AEBVFastVertex2ShapeScaling@Cm@1@AEAVTriangleV@01@M@Z 0000000180105d60 f i GuCCDSweepPrimitives.obj
 0001:00104e40       ??$SweepGeomTriangles@VBoxV@Gu@physx@@@Gu@physx@@YAMAEBVGeometryUnion@01@0AEBVPxTransform@1@111MAEAVPxVec3@1@2AEBVFastVertex2ShapeScaling@Cm@1@AEAVTriangleV@01@M@Z 0000000180105e40 f i GuCCDSweepPrimitives.obj
 0001:00104f70       ??$SweepGeomTriangles@VConvexHullV@Gu@physx@@@Gu@physx@@YAMAEBVGeometryUnion@01@0AEBVPxTransform@1@111MAEAVPxVec3@1@2AEBVFastVertex2ShapeScaling@Cm@1@AEAVTriangleV@01@M@Z 0000000180105f70 f i GuCCDSweepPrimitives.obj
 0001:00105480       ?supportPoint@?$RelativeConvex@VCapsuleV@Gu@physx@@@Gu@physx@@UEBA?AT__m128@@HPEAT4@@Z 0000000180106480 f i GuCCDSweepPrimitives.obj
 0001:001054e0       ?support@?$RelativeConvex@VCapsuleV@Gu@physx@@@Gu@physx@@UEBA?AT__m128@@AEBT4@@Z 00000001801064e0 f i GuCCDSweepPrimitives.obj
 0001:00105590       ?support@?$RelativeConvex@VCapsuleV@Gu@physx@@@Gu@physx@@UEBA?AT__m128@@AEBT4@AEAHPEAT4@@Z 0000000180106590 f i GuCCDSweepPrimitives.obj
 0001:00105650       ?getCenter@?$RelativeConvex@VCapsuleV@Gu@physx@@@Gu@physx@@UEBA?AT__m128@@XZ 0000000180106650 f i GuCCDSweepPrimitives.obj
 0001:00105690       ?getSweepMargin@?$RelativeConvex@VCapsuleV@Gu@physx@@@Gu@physx@@UEBA?AT__m128@@XZ 0000000180106690 f i GuCCDSweepPrimitives.obj
 0001:001056a0       ??_G?$RelativeConvex@VCapsuleV@Gu@physx@@@Gu@physx@@UEAAPEAXI@Z 00000001801066a0 f i GuCCDSweepPrimitives.obj
 0001:001056a0       ??_E?$RelativeConvex@VCapsuleV@Gu@physx@@@Gu@physx@@UEAAPEAXI@Z 00000001801066a0 f i GuCCDSweepPrimitives.obj
 0001:001056d0       ?supportPoint@?$RelativeConvex@VShrunkBoxV@Gu@physx@@@Gu@physx@@UEBA?AT__m128@@HPEAT4@@Z 00000001801066d0 f i GuCCDSweepPrimitives.obj
 0001:00105750       ?support@?$RelativeConvex@VShrunkBoxV@Gu@physx@@@Gu@physx@@UEBA?AT__m128@@AEBT4@@Z 0000000180106750 f i GuCCDSweepPrimitives.obj
 0001:001057f0       ?support@?$RelativeConvex@VShrunkBoxV@Gu@physx@@@Gu@physx@@UEBA?AT__m128@@AEBT4@AEAHPEAT4@@Z 00000001801067f0 f i GuCCDSweepPrimitives.obj
 0001:001058a0       ?getCenter@?$RelativeConvex@VShrunkBoxV@Gu@physx@@@Gu@physx@@UEBA?AT__m128@@XZ 00000001801068a0 f i GuCCDSweepPrimitives.obj
 0001:001058e0       ?getSweepMargin@?$RelativeConvex@VShrunkBoxV@Gu@physx@@@Gu@physx@@UEBA?AT__m128@@XZ 00000001801068e0 f i GuCCDSweepPrimitives.obj
 0001:00105900       ??_G?$RelativeConvex@VShrunkBoxV@Gu@physx@@@Gu@physx@@UEAAPEAXI@Z 0000000180106900 f i GuCCDSweepPrimitives.obj
 0001:00105900       ??_E?$RelativeConvex@VShrunkBoxV@Gu@physx@@@Gu@physx@@UEAAPEAXI@Z 0000000180106900 f i GuCCDSweepPrimitives.obj
 0001:00109680       ??$gjkPenetration@U?$RelativeConvex@VCapsuleV@Gu@physx@@@Gu@physx@@U?$LocalConvex@VCapsuleV@Gu@physx@@@23@@Gu@physx@@YA?AW4GjkStatus@01@AEBU?$RelativeConvex@VCapsuleV@Gu@physx@@@01@AEBU?$LocalConvex@VCapsuleV@Gu@physx@@@01@AEBT__m128@@2AEAT5@333PEIAE4AEAE_N@Z 000000018010a680 f i GuCCDSweepPrimitives.obj
 0001:0010ad10       ??$gjkPenetration@U?$RelativeConvex@VCapsuleV@Gu@physx@@@Gu@physx@@U?$LocalConvex@VShrunkBoxV@Gu@physx@@@23@@Gu@physx@@YA?AW4GjkStatus@01@AEBU?$RelativeConvex@VCapsuleV@Gu@physx@@@01@AEBU?$LocalConvex@VShrunkBoxV@Gu@physx@@@01@AEBT__m128@@2AEAT5@333PEIAE4AEAE_N@Z 000000018010bd10 f i GuCCDSweepPrimitives.obj
 0001:0010c3b0       ??$gjkPenetration@U?$RelativeConvex@VCapsuleV@Gu@physx@@@Gu@physx@@U?$LocalConvex@VShrunkConvexHullV@Gu@physx@@@23@@Gu@physx@@YA?AW4GjkStatus@01@AEBU?$RelativeConvex@VCapsuleV@Gu@physx@@@01@AEBU?$LocalConvex@VShrunkConvexHullV@Gu@physx@@@01@AEBT__m128@@2AEAT5@333PEIAE4AEAE_N@Z 000000018010d3b0 f i GuCCDSweepPrimitives.obj
 0001:0010dd20       ??$gjkPenetration@U?$RelativeConvex@VShrunkBoxV@Gu@physx@@@Gu@physx@@U?$LocalConvex@VShrunkBoxV@Gu@physx@@@23@@Gu@physx@@YA?AW4GjkStatus@01@AEBU?$RelativeConvex@VShrunkBoxV@Gu@physx@@@01@AEBU?$LocalConvex@VShrunkBoxV@Gu@physx@@@01@AEBT__m128@@2AEAT5@333PEIAE4AEAE_N@Z 000000018010ed20 f i GuCCDSweepPrimitives.obj
 0001:0010f3d0       ??$gjkPenetration@U?$RelativeConvex@VShrunkBoxV@Gu@physx@@@Gu@physx@@U?$LocalConvex@VShrunkConvexHullV@Gu@physx@@@23@@Gu@physx@@YA?AW4GjkStatus@01@AEBU?$RelativeConvex@VShrunkBoxV@Gu@physx@@@01@AEBU?$LocalConvex@VShrunkConvexHullV@Gu@physx@@@01@AEBT__m128@@2AEAT5@333PEIAE4AEAE_N@Z 00000001801103d0 f i GuCCDSweepPrimitives.obj
 0001:00110d80       ??$gjkPenetration@U?$RelativeConvex@VTriangleV@Gu@physx@@@Gu@physx@@U?$LocalConvex@VCapsuleV@Gu@physx@@@23@@Gu@physx@@YA?AW4GjkStatus@01@AEBU?$RelativeConvex@VTriangleV@Gu@physx@@@01@AEBU?$LocalConvex@VCapsuleV@Gu@physx@@@01@AEBT__m128@@2AEAT5@333PEIAE4AEAE_N@Z 0000000180111d80 f i GuCCDSweepPrimitives.obj
 0001:001124a0       ??$gjkPenetration@U?$RelativeConvex@VTriangleV@Gu@physx@@@Gu@physx@@U?$LocalConvex@VShrunkBoxV@Gu@physx@@@23@@Gu@physx@@YA?AW4GjkStatus@01@AEBU?$RelativeConvex@VTriangleV@Gu@physx@@@01@AEBU?$LocalConvex@VShrunkBoxV@Gu@physx@@@01@AEBT__m128@@2AEAT5@333PEIAE4AEAE_N@Z 00000001801134a0 f i GuCCDSweepPrimitives.obj
 0001:00113b90       ??$gjkPenetration@U?$RelativeConvex@VTriangleV@Gu@physx@@@Gu@physx@@U?$LocalConvex@VShrunkConvexHullV@Gu@physx@@@23@@Gu@physx@@YA?AW4GjkStatus@01@AEBU?$RelativeConvex@VTriangleV@Gu@physx@@@01@AEBU?$LocalConvex@VShrunkConvexHullV@Gu@physx@@@01@AEBT__m128@@2AEAT5@333PEIAE4AEAE_N@Z 0000000180114b90 f i GuCCDSweepPrimitives.obj
 0001:00115560       ??$gjkRaycast@U?$RelativeConvex@VCapsuleV@Gu@physx@@@Gu@physx@@U?$LocalConvex@VCapsuleV@Gu@physx@@@23@@Gu@physx@@YA_NAEBU?$RelativeConvex@VCapsuleV@Gu@physx@@@01@AEBU?$LocalConvex@VCapsuleV@Gu@physx@@@01@AEBT__m128@@222AEAT4@33M@Z 0000000180116560 f i GuCCDSweepPrimitives.obj
 0001:00116230       ??$gjkRaycast@U?$RelativeConvex@VCapsuleV@Gu@physx@@@Gu@physx@@U?$LocalConvex@VShrunkBoxV@Gu@physx@@@23@@Gu@physx@@YA_NAEBU?$RelativeConvex@VCapsuleV@Gu@physx@@@01@AEBU?$LocalConvex@VShrunkBoxV@Gu@physx@@@01@AEBT__m128@@222AEAT4@33M@Z 0000000180117230 f i GuCCDSweepPrimitives.obj
 0001:00116f00       ??$gjkRaycast@U?$RelativeConvex@VCapsuleV@Gu@physx@@@Gu@physx@@U?$LocalConvex@VShrunkConvexHullV@Gu@physx@@@23@@Gu@physx@@YA_NAEBU?$RelativeConvex@VCapsuleV@Gu@physx@@@01@AEBU?$LocalConvex@VShrunkConvexHullV@Gu@physx@@@01@AEBT__m128@@222AEAT4@33M@Z 0000000180117f00 f i GuCCDSweepPrimitives.obj
 0001:00117b80       ??$gjkRaycast@U?$RelativeConvex@VShrunkBoxV@Gu@physx@@@Gu@physx@@U?$LocalConvex@VShrunkBoxV@Gu@physx@@@23@@Gu@physx@@YA_NAEBU?$RelativeConvex@VShrunkBoxV@Gu@physx@@@01@AEBU?$LocalConvex@VShrunkBoxV@Gu@physx@@@01@AEBT__m128@@222AEAT4@33M@Z 0000000180118b80 f i GuCCDSweepPrimitives.obj
 0001:00118830       ??$gjkRaycast@U?$RelativeConvex@VShrunkBoxV@Gu@physx@@@Gu@physx@@U?$LocalConvex@VShrunkConvexHullV@Gu@physx@@@23@@Gu@physx@@YA_NAEBU?$RelativeConvex@VShrunkBoxV@Gu@physx@@@01@AEBU?$LocalConvex@VShrunkConvexHullV@Gu@physx@@@01@AEBT__m128@@222AEAT4@33M@Z 0000000180119830 f i GuCCDSweepPrimitives.obj
 0001:00119490       ??$gjkRaycast@U?$RelativeConvex@VShrunkConvexHullV@Gu@physx@@@Gu@physx@@U?$LocalConvex@VShrunkConvexHullV@Gu@physx@@@23@@Gu@physx@@YA_NAEBU?$RelativeConvex@VShrunkConvexHullV@Gu@physx@@@01@AEBU?$LocalConvex@VShrunkConvexHullV@Gu@physx@@@01@AEBT__m128@@222AEAT4@33M@Z 000000018011a490 f i GuCCDSweepPrimitives.obj
 0001:00119ff0       ??$gjkRaycast@U?$RelativeConvex@VTriangleV@Gu@physx@@@Gu@physx@@U?$LocalConvex@VBoxV@Gu@physx@@@23@@Gu@physx@@YA_NAEBU?$RelativeConvex@VTriangleV@Gu@physx@@@01@AEBU?$LocalConvex@VBoxV@Gu@physx@@@01@AEBT__m128@@222AEAT4@33M@Z 000000018011aff0 f i GuCCDSweepPrimitives.obj
 0001:0011ad00       ??$gjkRaycast@U?$RelativeConvex@VTriangleV@Gu@physx@@@Gu@physx@@U?$LocalConvex@VCapsuleV@Gu@physx@@@23@@Gu@physx@@YA_NAEBU?$RelativeConvex@VTriangleV@Gu@physx@@@01@AEBU?$LocalConvex@VCapsuleV@Gu@physx@@@01@AEBT__m128@@222AEAT4@33M@Z 000000018011bd00 f i GuCCDSweepPrimitives.obj
 0001:0011ba60       ??$gjkRaycast@U?$RelativeConvex@VTriangleV@Gu@physx@@@Gu@physx@@U?$LocalConvex@VConvexHullV@Gu@physx@@@23@@Gu@physx@@YA_NAEBU?$RelativeConvex@VTriangleV@Gu@physx@@@01@AEBU?$LocalConvex@VConvexHullV@Gu@physx@@@01@AEBT__m128@@222AEAT4@33M@Z 000000018011ca60 f i GuCCDSweepPrimitives.obj
 0001:0011c900       ??$gjkRaycastPenetration@U?$RelativeConvex@VCapsuleV@Gu@physx@@@Gu@physx@@U?$LocalConvex@VCapsuleV@Gu@physx@@@23@@Gu@physx@@YA_NAEBU?$RelativeConvex@VCapsuleV@Gu@physx@@@01@AEBU?$LocalConvex@VCapsuleV@Gu@physx@@@01@AEBT__m128@@222AEAT4@33M_N@Z 000000018011d900 f i GuCCDSweepPrimitives.obj
 0001:0011cb90       ??$gjkRaycastPenetration@U?$RelativeConvex@VCapsuleV@Gu@physx@@@Gu@physx@@U?$LocalConvex@VShrunkBoxV@Gu@physx@@@23@@Gu@physx@@YA_NAEBU?$RelativeConvex@VCapsuleV@Gu@physx@@@01@AEBU?$LocalConvex@VShrunkBoxV@Gu@physx@@@01@AEBT__m128@@222AEAT4@33M_N@Z 000000018011db90 f i GuCCDSweepPrimitives.obj
 0001:0011ce20       ??$gjkRaycastPenetration@U?$RelativeConvex@VCapsuleV@Gu@physx@@@Gu@physx@@U?$LocalConvex@VShrunkConvexHullV@Gu@physx@@@23@@Gu@physx@@YA_NAEBU?$RelativeConvex@VCapsuleV@Gu@physx@@@01@AEBU?$LocalConvex@VShrunkConvexHullV@Gu@physx@@@01@AEBT__m128@@222AEAT4@33M_N@Z 000000018011de20 f i GuCCDSweepPrimitives.obj
 0001:0011d0b0       ??$gjkRaycastPenetration@U?$RelativeConvex@VShrunkBoxV@Gu@physx@@@Gu@physx@@U?$LocalConvex@VShrunkBoxV@Gu@physx@@@23@@Gu@physx@@YA_NAEBU?$RelativeConvex@VShrunkBoxV@Gu@physx@@@01@AEBU?$LocalConvex@VShrunkBoxV@Gu@physx@@@01@AEBT__m128@@222AEAT4@33M_N@Z 000000018011e0b0 f i GuCCDSweepPrimitives.obj
 0001:0011d340       ??$gjkRaycastPenetration@U?$RelativeConvex@VShrunkBoxV@Gu@physx@@@Gu@physx@@U?$LocalConvex@VShrunkConvexHullV@Gu@physx@@@23@@Gu@physx@@YA_NAEBU?$RelativeConvex@VShrunkBoxV@Gu@physx@@@01@AEBU?$LocalConvex@VShrunkConvexHullV@Gu@physx@@@01@AEBT__m128@@222AEAT4@33M_N@Z 000000018011e340 f i GuCCDSweepPrimitives.obj
 0001:0011d5d0       ??$gjkRaycastPenetration@U?$RelativeConvex@VShrunkConvexHullV@Gu@physx@@@Gu@physx@@U?$LocalConvex@VShrunkConvexHullV@Gu@physx@@@23@@Gu@physx@@YA_NAEBU?$RelativeConvex@VShrunkConvexHullV@Gu@physx@@@01@AEBU?$LocalConvex@VShrunkConvexHullV@Gu@physx@@@01@AEBT__m128@@222AEAT4@33M_N@Z 000000018011e5d0 f i GuCCDSweepPrimitives.obj
 0001:0011d860       ??$gjkRaycastPenetration@U?$RelativeConvex@VTriangleV@Gu@physx@@@Gu@physx@@U?$LocalConvex@VBoxV@Gu@physx@@@23@@Gu@physx@@YA_NAEBU?$RelativeConvex@VTriangleV@Gu@physx@@@01@AEBU?$LocalConvex@VBoxV@Gu@physx@@@01@AEBT__m128@@222AEAT4@33M_N@Z 000000018011e860 f i GuCCDSweepPrimitives.obj
 0001:0011daf0       ??$gjkRaycastPenetration@U?$RelativeConvex@VTriangleV@Gu@physx@@@Gu@physx@@U?$LocalConvex@VCapsuleV@Gu@physx@@@23@@Gu@physx@@YA_NAEBU?$RelativeConvex@VTriangleV@Gu@physx@@@01@AEBU?$LocalConvex@VCapsuleV@Gu@physx@@@01@AEBT__m128@@222AEAT4@33M_N@Z 000000018011eaf0 f i GuCCDSweepPrimitives.obj
 0001:0011dd80       ??$gjkRaycastPenetration@U?$RelativeConvex@VTriangleV@Gu@physx@@@Gu@physx@@U?$LocalConvex@VConvexHullV@Gu@physx@@@23@@Gu@physx@@YA_NAEBU?$RelativeConvex@VTriangleV@Gu@physx@@@01@AEBU?$LocalConvex@VConvexHullV@Gu@physx@@@01@AEBT__m128@@222AEAT4@33M_N@Z 000000018011ed80 f i GuCCDSweepPrimitives.obj
 0001:0011e010       ?computeBounds@Gu@physx@@YAXAEAVPxBounds3@2@AEBVPxGeometry@2@AEBVPxTransform@2@MPEIBVCenterExtentsPadded@12@M_N@Z 000000018011f010 f   GuBounds.obj
 0001:0011ea40       ?computeBoundsWithCCDThreshold@Gu@physx@@YAMAEAVVec3p@12@0AEBVPxGeometry@2@AEBVPxTransform@2@PEIBVCenterExtentsPadded@12@@Z 000000018011fa40 f   GuBounds.obj
 0001:0011f000       ??0ShapeData@Gu@physx@@QEAA@AEBVPxGeometry@2@AEBVPxTransform@2@M@Z 0000000180120000 f   GuBounds.obj
 0001:00120650       ?computeOBBPoints@Gu@physx@@YAXPEIAVPxVec3@2@AEBV32@1111@Z 0000000180121650 f   GuBox.obj
 0001:001208d0       ?create@Box@Gu@physx@@QEAAXAEBVCapsule@23@@Z 00000001801218d0 f   GuBox.obj
 0001:00120b10       ?getBoxEdges@Gu@physx@@YAPEBEXZ 0000000180121b10 f   GuBox.obj
 0001:00120b20       ?computeBoxAroundCapsule@Gu@physx@@YAXAEBVCapsule@12@AEAVBox@12@@Z 0000000180121b20 f   GuCapsule.obj
 0001:00120c70       ?sweepBoxTriangles_Precise@Gu@physx@@YA_NIPEBVPxTriangle@2@_NAEBVPxBoxGeometry@2@AEBVPxTransform@2@AEBVPxVec3@2@MAEAUPxSweepHit@2@PEBIMV?$PxFlags@W4Enum@PxHitFlag@physx@@G@2@@Z 0000000180121c70 f   GuCCTSweepTests.obj
 0001:00120dc0       ?sweepCapsule_BoxGeom_Precise@@YA_NAEBVPxGeometry@physx@@AEBVPxTransform@2@AEBVPxCapsuleGeometry@2@1AEBVCapsule@Gu@2@AEBVPxVec3@2@MAEAUPxSweepHit@2@V?$PxFlags@W4Enum@PxHitFlag@physx@@G@2@M@Z 0000000180121dc0 f   GuCCTSweepTests.obj
 0001:00121430       ?sweepBox_SphereGeom_Precise@@YA_NAEBVPxGeometry@physx@@AEBVPxTransform@2@AEBVPxBoxGeometry@2@1AEBVBox@Gu@2@AEBVPxVec3@2@MAEAUPxSweepHit@2@V?$PxFlags@W4Enum@PxHitFlag@physx@@G@2@M@Z 0000000180122430 f   GuCCTSweepTests.obj
 0001:00121710       ?sweepBox_CapsuleGeom_Precise@@YA_NAEBVPxGeometry@physx@@AEBVPxTransform@2@AEBVPxBoxGeometry@2@1AEBVBox@Gu@2@AEBVPxVec3@2@MAEAUPxSweepHit@2@V?$PxFlags@W4Enum@PxHitFlag@physx@@G@2@M@Z 0000000180122710 f   GuCCTSweepTests.obj
 0001:00121ae0       ?sweepBox_BoxGeom_Precise@@YA_NAEBVPxGeometry@physx@@AEBVPxTransform@2@AEBVPxBoxGeometry@2@1AEBVBox@Gu@2@AEBVPxVec3@2@MAEAUPxSweepHit@2@V?$PxFlags@W4Enum@PxHitFlag@physx@@G@2@M@Z 0000000180122ae0 f   GuCCTSweepTests.obj
 0001:00121ca0       ?sweepBox_HeightFieldGeom_Precise@@YA_NAEBVPxGeometry@physx@@AEBVPxTransform@2@AEBVPxBoxGeometry@2@1AEBVBox@Gu@2@AEBVPxVec3@2@MAEAUPxSweepHit@2@V?$PxFlags@W4Enum@PxHitFlag@physx@@G@2@M@Z 0000000180122ca0 f   GuCCTSweepTests.obj
 0001:00122e90       ?sweep@PxGeometryQuery@physx@@SA_NAEBVPxVec3@2@MAEBVPxGeometry@2@AEBVPxTransform@2@12AEAUPxSweepHit@2@V?$PxFlags@W4Enum@PxHitFlag@physx@@G@2@M@Z 0000000180123e90 f   GuGeometryQuery.obj
 0001:00123290       ?overlap@PxGeometryQuery@physx@@SA_NAEBVPxGeometry@2@AEBVPxTransform@2@01@Z 0000000180124290 f   GuGeometryQuery.obj
 0001:00123320       ?raycast@PxGeometryQuery@physx@@SAIAEBVPxVec3@2@0AEBVPxGeometry@2@AEBVPxTransform@2@MV?$PxFlags@W4Enum@PxHitFlag@physx@@G@2@IPEIAUPxRaycastHit@2@@Z 0000000180124320 f   GuGeometryQuery.obj
 0001:001233c0       ?computePenetration@PxGeometryQuery@physx@@SA_NAEAVPxVec3@2@AEAMAEBVPxGeometry@2@AEBVPxTransform@2@23@Z 00000001801243c0 f   GuGeometryQuery.obj
 0001:001234b0       ?pointDistance@PxGeometryQuery@physx@@SAMAEBVPxVec3@2@AEBVPxGeometry@2@AEBVPxTransform@2@PEAV32@@Z 00000001801244b0 f   GuGeometryQuery.obj
 0001:00123b40       ?getWorldBounds@PxGeometryQuery@physx@@SA?AVPxBounds3@2@AEBVPxGeometry@2@AEBVPxTransform@2@M@Z 0000000180124b40 f   GuGeometryQuery.obj
 0001:00123bb0       ?isValid@PxGeometryQuery@physx@@SA_NAEBVPxGeometry@2@@Z 0000000180124bb0 f   GuGeometryQuery.obj
 0001:00123db0       ?isFinite@PxQuat@physx@@QEBA_NXZ 0000000180124db0 f i GuGeometryQuery.obj
 0001:00123e20       ?set@GeometryUnion@Gu@physx@@QEAAXAEBVPxGeometry@3@@Z 0000000180124e20 f   GuGeometryUnion.obj
 0001:00123ff0       ?computeBoxPoints@Gu@physx@@YAXAEBVPxBounds3@2@PEIAVPxVec3@2@@Z 0000000180124ff0 f   GuInternal.obj
 0001:00124090       ?computeBoundsAroundVertices@Gu@physx@@YAXAEAVPxBounds3@2@IPEIBVPxVec3@2@@Z 0000000180125090 f   GuInternal.obj
 0001:00124140       ?getPlane@Gu@physx@@YA?AVPxPlane@2@AEBVPxTransform@2@@Z 0000000180125140 f   GuInternal.obj
 0001:001241f0       ?computeSweptBox@Gu@physx@@YAXAEAVBox@12@AEBVPxVec3@2@1AEBVPxMat33@2@1M@Z 00000001801251f0 f   GuInternal.obj
 0001:00124720       ??0GuMeshFactory@physx@@QEAA@XZ 0000000180125720 f   GuMeshFactory.obj
 0001:00124880       ??1GuMeshFactory@physx@@MEAA@XZ 0000000180125880 f   GuMeshFactory.obj
 0001:00124950       ?release@GuMeshFactory@physx@@QEAAXXZ 0000000180125950 f   GuMeshFactory.obj
 0001:00124a20       ?addTriangleMesh@GuMeshFactory@physx@@QEAAXPEAVTriangleMesh@Gu@2@_N@Z 0000000180125a20 f   GuMeshFactory.obj
 0001:00124aa0       ?createTriangleMesh@GuMeshFactory@physx@@QEAAPEAVPxTriangleMesh@2@AEAVPxInputStream@2@@Z 0000000180125aa0 f   GuMeshFactory.obj
 0001:00124b00       ?createTriangleMesh@GuMeshFactory@physx@@QEAAPEAVPxTriangleMesh@2@PEAX@Z 0000000180125b00 f   GuMeshFactory.obj
 0001:00124b10       ?removeTriangleMesh@GuMeshFactory@physx@@QEAA_NAEAVPxTriangleMesh@2@@Z 0000000180125b10 f   GuMeshFactory.obj
 0001:00124b80       ?getNbTriangleMeshes@GuMeshFactory@physx@@QEBAIXZ 0000000180125b80 f   GuMeshFactory.obj
 0001:00124bc0       ?getTriangleMeshes@GuMeshFactory@physx@@QEBAIPEAPEAVPxTriangleMesh@2@II@Z 0000000180125bc0 f   GuMeshFactory.obj
 0001:00124c50       ?addConvexMesh@GuMeshFactory@physx@@QEAAXPEAVConvexMesh@Gu@2@_N@Z 0000000180125c50 f   GuMeshFactory.obj
 0001:00124cd0       ?createConvexMesh@GuMeshFactory@physx@@QEAAPEAVPxConvexMesh@2@AEAVPxInputStream@2@@Z 0000000180125cd0 f   GuMeshFactory.obj
 0001:00124df0       ?createConvexMesh@GuMeshFactory@physx@@QEAAPEAVPxConvexMesh@2@PEAX@Z 0000000180125df0 f   GuMeshFactory.obj
 0001:00124e00       ?removeConvexMesh@GuMeshFactory@physx@@QEAA_NAEAVPxConvexMesh@2@@Z 0000000180125e00 f   GuMeshFactory.obj
 0001:00124e70       ?getNbConvexMeshes@GuMeshFactory@physx@@QEBAIXZ 0000000180125e70 f   GuMeshFactory.obj
 0001:00124eb0       ?getConvexMeshes@GuMeshFactory@physx@@QEBAIPEAPEAVPxConvexMesh@2@II@Z 0000000180125eb0 f   GuMeshFactory.obj
 0001:00124f40       ?addHeightField@GuMeshFactory@physx@@QEAAXPEAVHeightField@Gu@2@_N@Z 0000000180125f40 f   GuMeshFactory.obj
 0001:00124fc0       ?createHeightField@GuMeshFactory@physx@@QEAAPEAVPxHeightField@2@PEAX@Z 0000000180125fc0 f   GuMeshFactory.obj
 0001:001250c0       ?createHeightField@GuMeshFactory@physx@@QEAAPEAVPxHeightField@2@AEAVPxInputStream@2@@Z 00000001801260c0 f   GuMeshFactory.obj
 0001:001251e0       ?removeHeightField@GuMeshFactory@physx@@QEAA_NAEAVPxHeightField@2@@Z 00000001801261e0 f   GuMeshFactory.obj
 0001:00125250       ?getNbHeightFields@GuMeshFactory@physx@@QEBAIXZ 0000000180126250 f   GuMeshFactory.obj
 0001:00125290       ?getHeightFields@GuMeshFactory@physx@@QEBAIPEAPEAVPxHeightField@2@II@Z 0000000180126290 f   GuMeshFactory.obj
 0001:00125330       ?addFactoryListener@GuMeshFactory@physx@@QEAAXAEAVGuMeshFactoryListener@2@@Z 0000000180126330 f   GuMeshFactory.obj
 0001:001253b0       ?removeFactoryListener@GuMeshFactory@physx@@QEAAXAEAVGuMeshFactoryListener@2@@Z 00000001801263b0 f   GuMeshFactory.obj
 0001:00125440       ?notifyFactoryListener@GuMeshFactory@physx@@QEAAXPEBVPxBase@2@G@Z 0000000180126440 f   GuMeshFactory.obj
 0001:001254c0       ?createTriangleMesh@GuMeshFactory@physx@@IEAAPEAVPxTriangleMesh@2@AEAVTriangleMeshData@Gu@2@@Z 00000001801264c0 f   GuMeshFactory.obj
 0001:00125650       ?createConvexMesh@GuMeshFactory@physx@@IEAAPEAVPxConvexMesh@2@AEAUConvexHullData@Gu@2@@Z 0000000180126650 f   GuMeshFactory.obj
 0001:00125740       ??1BV4TriangleData@Gu@physx@@UEAA@XZ 0000000180126740 f i GuMeshFactory.obj
 0001:00125780       ??1RTreeTriangleData@Gu@physx@@UEAA@XZ 0000000180126780 f i GuMeshFactory.obj
 0001:001257f0       ??1TriangleMeshData@Gu@physx@@UEAA@XZ 00000001801267f0 f i GuMeshFactory.obj
 0001:00125960       ??_EGuMeshFactory@physx@@MEAAPEAXI@Z 0000000180126960 f i GuMeshFactory.obj
 0001:00125a70       ??_EBV4TriangleData@Gu@physx@@UEAAPEAXI@Z 0000000180126a70 f i GuMeshFactory.obj
 0001:00125a70       ??_GBV4TriangleData@Gu@physx@@UEAAPEAXI@Z 0000000180126a70 f i GuMeshFactory.obj
 0001:00125af0       ??_GGuMeshFactory@physx@@MEAAPEAXI@Z 0000000180126af0 f i GuMeshFactory.obj
 0001:00125b50       ??_GRTreeTriangleData@Gu@physx@@UEAAPEAXI@Z 0000000180126b50 f i GuMeshFactory.obj
 0001:00125b50       ??_ERTreeTriangleData@Gu@physx@@UEAAPEAXI@Z 0000000180126b50 f i GuMeshFactory.obj
 0001:00125c00       ??_GTriangleMeshData@Gu@physx@@UEAAPEAXI@Z 0000000180126c00 f i GuMeshFactory.obj
 0001:00125c00       ??_ETriangleMeshData@Gu@physx@@UEAAPEAXI@Z 0000000180126c00 f i GuMeshFactory.obj
 0001:00125c60       ?create@?$HashBase@PEAVConvexMesh@Gu@physx@@PEAV123@U?$Hash@PEAVConvexMesh@Gu@physx@@@shdfnd@3@UGetKey@?$HashSetBase@PEAVConvexMesh@Gu@physx@@U?$Hash@PEAVConvexMesh@Gu@physx@@@shdfnd@3@VNonTrackingAllocator@53@$00@internal@53@VNonTrackingAllocator@53@$00@internal@shdfnd@physx@@QEAAPEAPEAVConvexMesh@Gu@4@AEBQEAV564@AEA_N@Z 0000000180126c60 f i GuMeshFactory.obj
 0001:00125e00       ?create@?$HashBase@PEAVHeightField@Gu@physx@@PEAV123@U?$Hash@PEAVHeightField@Gu@physx@@@shdfnd@3@UGetKey@?$HashSetBase@PEAVHeightField@Gu@physx@@U?$Hash@PEAVHeightField@Gu@physx@@@shdfnd@3@VNonTrackingAllocator@53@$00@internal@53@VNonTrackingAllocator@53@$00@internal@shdfnd@physx@@QEAAPEAPEAVHeightField@Gu@4@AEBQEAV564@AEA_N@Z 0000000180126e00 f i GuMeshFactory.obj
 0001:00125fa0       ?create@?$HashBase@PEAVTriangleMesh@Gu@physx@@PEAV123@U?$Hash@PEAVTriangleMesh@Gu@physx@@@shdfnd@3@UGetKey@?$HashSetBase@PEAVTriangleMesh@Gu@physx@@U?$Hash@PEAVTriangleMesh@Gu@physx@@@shdfnd@3@VNonTrackingAllocator@53@$00@internal@53@VNonTrackingAllocator@53@$00@internal@shdfnd@physx@@QEAAPEAPEAVTriangleMesh@Gu@4@AEBQEAV564@AEA_N@Z 0000000180126fa0 f i GuMeshFactory.obj
 0001:00126140       ?erase@?$HashBase@PEAVConvexMesh@Gu@physx@@PEAV123@U?$Hash@PEAVConvexMesh@Gu@physx@@@shdfnd@3@UGetKey@?$HashSetBase@PEAVConvexMesh@Gu@physx@@U?$Hash@PEAVConvexMesh@Gu@physx@@@shdfnd@3@VNonTrackingAllocator@53@$00@internal@53@VNonTrackingAllocator@53@$00@internal@shdfnd@physx@@QEAA_NAEBQEAVConvexMesh@Gu@4@@Z 0000000180127140 f i GuMeshFactory.obj
 0001:001262b0       ?erase@?$HashBase@PEAVHeightField@Gu@physx@@PEAV123@U?$Hash@PEAVHeightField@Gu@physx@@@shdfnd@3@UGetKey@?$HashSetBase@PEAVHeightField@Gu@physx@@U?$Hash@PEAVHeightField@Gu@physx@@@shdfnd@3@VNonTrackingAllocator@53@$00@internal@53@VNonTrackingAllocator@53@$00@internal@shdfnd@physx@@QEAA_NAEBQEAVHeightField@Gu@4@@Z 00000001801272b0 f i GuMeshFactory.obj
 0001:00126420       ?erase@?$HashBase@PEAVTriangleMesh@Gu@physx@@PEAV123@U?$Hash@PEAVTriangleMesh@Gu@physx@@@shdfnd@3@UGetKey@?$HashSetBase@PEAVTriangleMesh@Gu@physx@@U?$Hash@PEAVTriangleMesh@Gu@physx@@@shdfnd@3@VNonTrackingAllocator@53@$00@internal@53@VNonTrackingAllocator@53@$00@internal@shdfnd@physx@@QEAA_NAEBQEAVTriangleMesh@Gu@4@@Z 0000000180127420 f i GuMeshFactory.obj
 0001:00126590       ?growAndPushBack@?$Array@PEAVGuMeshFactoryListener@physx@@V?$ReflectionAllocator@PEAVGuMeshFactoryListener@physx@@@shdfnd@2@@shdfnd@physx@@IEAAAEAPEAVGuMeshFactoryListener@3@AEBQEAV43@@Z 0000000180127590 f i GuMeshFactory.obj
 0001:00127680       ?reserveInternal@?$HashBase@PEAVConvexMesh@Gu@physx@@PEAV123@U?$Hash@PEAVConvexMesh@Gu@physx@@@shdfnd@3@UGetKey@?$HashSetBase@PEAVConvexMesh@Gu@physx@@U?$Hash@PEAVConvexMesh@Gu@physx@@@shdfnd@3@VNonTrackingAllocator@53@$00@internal@53@VNonTrackingAllocator@53@$00@internal@shdfnd@physx@@AEAAXI@Z 0000000180128680 f i GuMeshFactory.obj
 0001:00127850       ?reserveInternal@?$HashBase@PEAVHeightField@Gu@physx@@PEAV123@U?$Hash@PEAVHeightField@Gu@physx@@@shdfnd@3@UGetKey@?$HashSetBase@PEAVHeightField@Gu@physx@@U?$Hash@PEAVHeightField@Gu@physx@@@shdfnd@3@VNonTrackingAllocator@53@$00@internal@53@VNonTrackingAllocator@53@$00@internal@shdfnd@physx@@AEAAXI@Z 0000000180128850 f i GuMeshFactory.obj
 0001:00127a20       ?reserveInternal@?$HashBase@PEAVTriangleMesh@Gu@physx@@PEAV123@U?$Hash@PEAVTriangleMesh@Gu@physx@@@shdfnd@3@UGetKey@?$HashSetBase@PEAVTriangleMesh@Gu@physx@@U?$Hash@PEAVTriangleMesh@Gu@physx@@@shdfnd@3@VNonTrackingAllocator@53@$00@internal@53@VNonTrackingAllocator@53@$00@internal@shdfnd@physx@@AEAAXI@Z 0000000180128a20 f i GuMeshFactory.obj
 0001:00127bf0       ?getBinaryMetaData@HeightField@Gu@physx@@SAXAEAVPxOutputStream@3@@Z 0000000180128bf0 f   GuMetaData.obj
 0001:00128020       ?getBinaryMetaData@BigConvexData@physx@@SAXAEAVPxOutputStream@2@@Z 0000000180129020 f   GuMetaData.obj
 0001:001282f0       ?getBinaryMetaData@ConvexMesh@Gu@physx@@SAXAEAVPxOutputStream@3@@Z 00000001801292f0 f   GuMetaData.obj
 0001:00128980       ?getBinaryMetaData@RTree@Gu@physx@@SAXAEAVPxOutputStream@3@@Z 0000000180129980 f   GuMetaData.obj
 0001:00128cc0       ?getBinaryMetaData@SourceMesh@Gu@physx@@SAXAEAVPxOutputStream@3@@Z 0000000180129cc0 f   GuMetaData.obj
 0001:00128eb0       ?getBinaryMetaData@BV4Tree@Gu@physx@@SAXAEAVPxOutputStream@3@@Z 0000000180129eb0 f   GuMetaData.obj
 0001:00129250       ?getBinaryMetaData@TriangleMesh@Gu@physx@@SAXAEAVPxOutputStream@3@@Z 000000018012a250 f   GuMetaData.obj
 0001:00129a70       ?getBinaryMetaData@BV4TriangleMesh@Gu@physx@@SAXAEAVPxOutputStream@3@@Z 000000018012aa70 f   GuMetaData.obj
 0001:00129d50       ?getBinaryMetaData@RTreeTriangleMesh@Gu@physx@@SAXAEAVPxOutputStream@3@@Z 000000018012ad50 f   GuMetaData.obj
 0001:00129e40       ?getBinaryMetaData@MaterialIndicesStruct@physx@@SAXAEAVPxOutputStream@2@@Z 000000018012ae40 f   GuMetaData.obj
 0001:00129ff0       ?getBinaryMetaData@GeometryUnion@Gu@physx@@SAXAEAVPxOutputStream@3@@Z 000000018012aff0 f   GuMetaData.obj
 0001:0012bad0       ?pointConvexDistance@@YA_NAEAVPxVec3@physx@@0AEAMAEBV12@PEBVConvexMesh@Gu@2@AEBVPxMeshScale@2@AEBVPxTransform@2@@Z 000000018012cad0 f   GuMTD.obj
 0001:0012e300       ??0ContactPoint@Gu@physx@@QEAA@XZ 000000018012f300 f i GuMTD.obj
 0001:001329e0       ?getOverlapFuncTable@Gu@physx@@YAPEAY06Q6A_NAEBVPxGeometry@2@AEBVPxTransform@2@01PEAUTriggerCache@12@@ZXZ 00000001801339e0 f   GuOverlapTests.obj
 0001:001329f0       ?registerHeightFields@Gu@physx@@YAXXZ 00000001801339f0 f   GuOverlapTests.obj
 0001:00134c80       ??$gjk@U?$RelativeConvex@VBoxV@Gu@physx@@@Gu@physx@@U?$LocalConvex@VConvexHullV@Gu@physx@@@23@@Gu@physx@@YA?AW4GjkStatus@01@AEBU?$RelativeConvex@VBoxV@Gu@physx@@@01@AEBU?$LocalConvex@VConvexHullV@Gu@physx@@@01@AEBT__m128@@2AEAT5@333@Z 0000000180135c80 f i GuOverlapTests.obj
 0001:00135a30       ??$gjk@U?$RelativeConvex@VConvexHullV@Gu@physx@@@Gu@physx@@U?$LocalConvex@VConvexHullV@Gu@physx@@@23@@Gu@physx@@YA?AW4GjkStatus@01@AEBU?$RelativeConvex@VConvexHullV@Gu@physx@@@01@AEBU?$LocalConvex@VConvexHullV@Gu@physx@@@01@AEBT__m128@@2AEAT5@333@Z 0000000180136a30 f i GuOverlapTests.obj
 0001:001368c0       ?ComputeCubemapNearestOffset@physx@@YAIAEBVPxVec3@1@I@Z 00000001801378c0 f i GuOverlapTests.obj
 0001:00138490       ?getRaycastFuncTable@Gu@physx@@YAAEAY06Q6AIAEBVPxGeometry@2@AEBVPxTransform@2@AEBVPxVec3@2@2MV?$PxFlags@W4Enum@PxHitFlag@physx@@G@2@IPEIAUPxRaycastHit@2@@ZXZ 0000000180139490 f   GuRaycastTests.obj
 0001:001384a0       ?raycast_box@@YAIAEBVPxGeometry@physx@@AEBVPxTransform@2@AEBVPxVec3@2@2MV?$PxFlags@W4Enum@PxHitFlag@physx@@G@2@IPEIAUPxRaycastHit@2@@Z 00000001801394a0 f   GuRaycastTests.obj
 0001:00138ad0       ?raycast_sphere@@YAIAEBVPxGeometry@physx@@AEBVPxTransform@2@AEBVPxVec3@2@2MV?$PxFlags@W4Enum@PxHitFlag@physx@@G@2@IPEIAUPxRaycastHit@2@@Z 0000000180139ad0 f   GuRaycastTests.obj
 0001:00138c60       ?raycast_capsule@@YAIAEBVPxGeometry@physx@@AEBVPxTransform@2@AEBVPxVec3@2@2MV?$PxFlags@W4Enum@PxHitFlag@physx@@G@2@IPEIAUPxRaycastHit@2@@Z 0000000180139c60 f   GuRaycastTests.obj
 0001:001391c0       ?raycast_plane@@YAIAEBVPxGeometry@physx@@AEBVPxTransform@2@AEBVPxVec3@2@2MV?$PxFlags@W4Enum@PxHitFlag@physx@@G@2@IPEIAUPxRaycastHit@2@@Z 000000018013a1c0 f   GuRaycastTests.obj
 0001:00139340       ?raycast_convexMesh@@YAIAEBVPxGeometry@physx@@AEBVPxTransform@2@AEBVPxVec3@2@2MV?$PxFlags@W4Enum@PxHitFlag@physx@@G@2@IPEIAUPxRaycastHit@2@@Z 000000018013a340 f   GuRaycastTests.obj
 0001:00139e70       ?raycast_triangleMesh@@YAIAEBVPxGeometry@physx@@AEBVPxTransform@2@AEBVPxVec3@2@2MV?$PxFlags@W4Enum@PxHitFlag@physx@@G@2@IPEIAUPxRaycastHit@2@@Z 000000018013ae70 f   GuRaycastTests.obj
 0001:00139f00       ?raycast_heightField@@YAIAEBVPxGeometry@physx@@AEBVPxTransform@2@AEBVPxVec3@2@2MV?$PxFlags@W4Enum@PxHitFlag@physx@@G@2@IPEIAUPxRaycastHit@2@@Z 000000018013af00 f   GuRaycastTests.obj
 0001:0013a680       ?registerHeightFields_Raycasts@@YAXXZ 000000018013b680 f   GuRaycastTests.obj
 0001:0013be70       ?readChunk@physx@@YAXAEAC000AEAVPxInputStream@1@@Z 000000018013ce70 f   GuSerialize.obj
 0001:0013bf00       ?readWord@physx@@YAG_NAEAVPxInputStream@1@@Z 000000018013cf00 f   GuSerialize.obj
 0001:0013bf50       ?readDword@physx@@YAI_NAEAVPxInputStream@1@@Z 000000018013cf50 f   GuSerialize.obj
 0001:0013bfb0       ?readFloat@physx@@YAM_NAEAVPxInputStream@1@@Z 000000018013cfb0 f   GuSerialize.obj
 0001:0013c010       ?writeWord@physx@@YAXG_NAEAVPxOutputStream@1@@Z 000000018013d010 f   GuSerialize.obj
 0001:0013c050       ?writeDword@physx@@YAXI_NAEAVPxOutputStream@1@@Z 000000018013d050 f   GuSerialize.obj
 0001:0013c0a0       ?writeFloat@physx@@YAXM_NAEAVPxOutputStream@1@@Z 000000018013d0a0 f   GuSerialize.obj
 0001:0013c100       ?readFloatBuffer@physx@@YA_NPEAMI_NAEAVPxInputStream@1@@Z 000000018013d100 f   GuSerialize.obj
 0001:0013c180       ?writeFloatBuffer@physx@@YAXPEBMI_NAEAVPxOutputStream@1@@Z 000000018013d180 f   GuSerialize.obj
 0001:0013c230       ?writeWordBuffer@physx@@YAXPEBGI_NAEAVPxOutputStream@1@@Z 000000018013d230 f   GuSerialize.obj
 0001:0013c2c0       ?readWordBuffer@physx@@YAXPEAGI_NAEAVPxInputStream@1@@Z 000000018013d2c0 f   GuSerialize.obj
 0001:0013c330       ?writeHeader@physx@@YA_NCCCCI_NAEAVPxOutputStream@1@@Z 000000018013d330 f   GuSerialize.obj
 0001:0013c460       ?readHeader@physx@@YA_NCCCCAEAIAEA_NAEAVPxInputStream@1@@Z 000000018013d460 f   GuSerialize.obj
 0001:0013c5c0       ?computeMaxIndex@physx@@YAIPEBII@Z 000000018013d5c0 f   GuSerialize.obj
 0001:0013c5f0       ?computeMaxIndex@physx@@YAGPEBGI@Z 000000018013d5f0 f   GuSerialize.obj
 0001:0013c630       ?storeIndices@physx@@YAXIIPEBIAEAVPxOutputStream@1@_N@Z 000000018013d630 f   GuSerialize.obj
 0001:0013c720       ?readIndices@physx@@YAXIIPEAIAEAVPxInputStream@1@_N@Z 000000018013d720 f   GuSerialize.obj
 0001:0013c820       ?WriteHeader@Gu@physx@@YA_NEEEEI_NAEAVPxOutputStream@2@@Z 000000018013d820 f   GuSerialize.obj
 0001:0013c950       ?ReadHeader@Gu@physx@@YA_NEEEEAEAIAEA_NAEAVPxInputStream@2@@Z 000000018013d950 f   GuSerialize.obj
 0001:0013cac0       ?StoreIndices@Gu@physx@@YAXIIPEBIAEAVPxOutputStream@2@_N@Z 000000018013dac0 f   GuSerialize.obj
 0001:0013cbf0       ?ReadIndices@Gu@physx@@YAXIIPEAIAEAVPxInputStream@2@_N@Z 000000018013dbf0 f   GuSerialize.obj
 0001:0013ce60       ?StoreIndices@Gu@physx@@YAXGIPEBGAEAVPxOutputStream@2@_N@Z 000000018013de60 f   GuSerialize.obj
 0001:0013cf30       ?ReadIndices@Gu@physx@@YAXGIPEAGAEAVPxInputStream@2@_N@Z 000000018013df30 f   GuSerialize.obj
 0001:0013d080       ?computeCapsule_TriangleMeshMTD@Gu@physx@@YA_NAEBVPxTriangleMeshGeometry@2@AEBVPxTransform@2@AEAVCapsuleV@12@M_NAEAUPxSweepHit@2@@Z 000000018013e080 f   GuSweepMTD.obj
 0001:0013d930       ?computeCapsule_HeightFieldMTD@Gu@physx@@YA_NAEBVPxHeightFieldGeometry@2@AEBVPxTransform@2@AEAVCapsuleV@12@M_NIAEAUPxSweepHit@2@@Z 000000018013e930 f   GuSweepMTD.obj
 0001:0013e150       ?computeBox_TriangleMeshMTD@Gu@physx@@YA_NAEBVPxTriangleMeshGeometry@2@AEBVPxTransform@2@AEBVBox@12@1M_NAEAUPxSweepHit@2@@Z 000000018013f150 f   GuSweepMTD.obj
 0001:0013ed90       ?computeBox_HeightFieldMTD@Gu@physx@@YA_NAEBVPxHeightFieldGeometry@2@AEBVPxTransform@2@AEBVBox@12@1M_NIAEAUPxSweepHit@2@@Z 000000018013fd90 f   GuSweepMTD.obj
 0001:0013fc40       ?computeConvex_TriangleMeshMTD@Gu@physx@@YA_NAEBVPxTriangleMeshGeometry@2@AEBVPxTransform@2@AEBVPxConvexMeshGeometry@2@1M_NAEAUPxSweepHit@2@@Z 0000000180140c40 f   GuSweepMTD.obj
 0001:00140e80       ?computeConvex_HeightFieldMTD@Gu@physx@@YA_NAEBVPxHeightFieldGeometry@2@AEBVPxTransform@2@AEBVPxConvexMeshGeometry@2@1M_NIAEAUPxSweepHit@2@@Z 0000000180141e80 f   GuSweepMTD.obj
 0001:00142200       ?computeSphere_SphereMTD@Gu@physx@@YA_NAEBVSphere@12@0AEAUPxSweepHit@2@@Z 0000000180143200 f   GuSweepMTD.obj
 0001:001422f0       ?computeSphere_CapsuleMTD@Gu@physx@@YA_NAEBVSphere@12@AEBVCapsule@12@AEAUPxSweepHit@2@@Z 00000001801432f0 f   GuSweepMTD.obj
 0001:001424a0       ?computeCapsule_CapsuleMTD@Gu@physx@@YA_NAEBVCapsule@12@0AEAUPxSweepHit@2@@Z 00000001801434a0 f   GuSweepMTD.obj
 0001:001426e0       ?computePlane_CapsuleMTD@Gu@physx@@YA_NAEBVPxPlane@2@AEBVCapsule@12@AEAUPxSweepHit@2@@Z 00000001801436e0 f   GuSweepMTD.obj
 0001:00142810       ?computePlane_BoxMTD@Gu@physx@@YA_NAEBVPxPlane@2@AEBVBox@12@AEAUPxSweepHit@2@@Z 0000000180143810 f   GuSweepMTD.obj
 0001:00142b50       ?computePlane_ConvexMTD@Gu@physx@@YA_NAEBVPxPlane@2@AEBVPxConvexMeshGeometry@2@AEBVPxTransform@2@AEAUPxSweepHit@2@@Z 0000000180143b50 f   GuSweepMTD.obj
 0001:001436c0       ??0MTDTriangle@@QEAA@XZ    00000001801446c0 f i GuSweepMTD.obj
 0001:001436d0       ??1MTDTriangle@@QEAA@XZ    00000001801446d0 f i GuSweepMTD.obj
 0001:001436e0       ??_GMeshMTDGenerationCallback@@UEAAPEAXI@Z 00000001801446e0 f i GuSweepMTD.obj
 0001:001436e0       ??_EMeshMTDGenerationCallback@@UEAAPEAXI@Z 00000001801446e0 f i GuSweepMTD.obj
 0001:00143710       ??_GMidPhaseQueryLocalReport@@UEAAPEAXI@Z 0000000180144710 f i GuSweepMTD.obj
 0001:00143710       ??_EMidPhaseQueryLocalReport@@UEAAPEAXI@Z 0000000180144710 f i GuSweepMTD.obj
 0001:00143740       ?onEvent@MidPhaseQueryLocalReport@@UEAA_NIPEAI@Z 0000000180144740 f i GuSweepMTD.obj
 0001:001437b0       ?processHit@MeshMTDGenerationCallback@@UEAA_NAEBUPxRaycastHit@physx@@AEBVPxVec3@3@11AEAMPEBI@Z 00000001801447b0 f i GuSweepMTD.obj
 0001:00143800       ?sweepCapsuleTriangles@Gu@physx@@YA_NIPEBVPxTriangle@2@_NAEBVPxCapsuleGeometry@2@AEBVPxTransform@2@AEBVPxVec3@2@MAEAUPxSweepHit@2@PEBIMV?$PxFlags@W4Enum@PxHitFlag@physx@@G@2@@Z 0000000180144800 f   GuSweepSharedTests.obj
 0001:001439f0       ?sweepCapsule_SphereGeom@@YA_NAEBVPxGeometry@physx@@AEBVPxTransform@2@AEBVPxCapsuleGeometry@2@1AEBVCapsule@Gu@2@AEBVPxVec3@2@MAEAUPxSweepHit@2@V?$PxFlags@W4Enum@PxHitFlag@physx@@G@2@M@Z 00000001801449f0 f   GuSweepSharedTests.obj
 0001:00143b90       ?sweepCapsule_PlaneGeom@@YA_NAEBVPxGeometry@physx@@AEBVPxTransform@2@AEBVPxCapsuleGeometry@2@1AEBVCapsule@Gu@2@AEBVPxVec3@2@MAEAUPxSweepHit@2@V?$PxFlags@W4Enum@PxHitFlag@physx@@G@2@M@Z 0000000180144b90 f   GuSweepSharedTests.obj
 0001:00143e90       ?sweepCapsule_CapsuleGeom@@YA_NAEBVPxGeometry@physx@@AEBVPxTransform@2@AEBVPxCapsuleGeometry@2@1AEBVCapsule@Gu@2@AEBVPxVec3@2@MAEAUPxSweepHit@2@V?$PxFlags@W4Enum@PxHitFlag@physx@@G@2@M@Z 0000000180144e90 f   GuSweepSharedTests.obj
 0001:00144070       ?sweepCapsule_ConvexGeom@@YA_NAEBVPxGeometry@physx@@AEBVPxTransform@2@AEBVPxCapsuleGeometry@2@1AEBVCapsule@Gu@2@AEBVPxVec3@2@MAEAUPxSweepHit@2@V?$PxFlags@W4Enum@PxHitFlag@physx@@G@2@M@Z 0000000180145070 f   GuSweepSharedTests.obj
 0001:00144df0       ?sweepBox_PlaneGeom@@YA_NAEBVPxGeometry@physx@@AEBVPxTransform@2@AEBVPxBoxGeometry@2@1AEBVBox@Gu@2@AEBVPxVec3@2@MAEAUPxSweepHit@2@V?$PxFlags@W4Enum@PxHitFlag@physx@@G@2@M@Z 0000000180145df0 f   GuSweepSharedTests.obj
 0001:001452a0       ?sweepBox_ConvexGeom@@YA_NAEBVPxGeometry@physx@@AEBVPxTransform@2@AEBVPxBoxGeometry@2@1AEBVBox@Gu@2@AEBVPxVec3@2@MAEAUPxSweepHit@2@V?$PxFlags@W4Enum@PxHitFlag@physx@@G@2@M@Z 00000001801462a0 f   GuSweepSharedTests.obj
 0001:00146130       ?sweepConvex_SphereGeom@@YA_NAEBVPxGeometry@physx@@AEBVPxTransform@2@AEBVPxConvexMeshGeometry@2@1AEBVPxVec3@2@MAEAUPxSweepHit@2@V?$PxFlags@W4Enum@PxHitFlag@physx@@G@2@M@Z 0000000180147130 f   GuSweepSharedTests.obj
 0001:00146d50       ?sweepConvex_PlaneGeom@@YA_NAEBVPxGeometry@physx@@AEBVPxTransform@2@AEBVPxConvexMeshGeometry@2@1AEBVPxVec3@2@MAEAUPxSweepHit@2@V?$PxFlags@W4Enum@PxHitFlag@physx@@G@2@M@Z 0000000180147d50 f   GuSweepSharedTests.obj
 0001:001471a0       ?sweepConvex_CapsuleGeom@@YA_NAEBVPxGeometry@physx@@AEBVPxTransform@2@AEBVPxConvexMeshGeometry@2@1AEBVPxVec3@2@MAEAUPxSweepHit@2@V?$PxFlags@W4Enum@PxHitFlag@physx@@G@2@M@Z 00000001801481a0 f   GuSweepSharedTests.obj
 0001:001473d0       ?sweepConvex_BoxGeom@@YA_NAEBVPxGeometry@physx@@AEBVPxTransform@2@AEBVPxConvexMeshGeometry@2@1AEBVPxVec3@2@MAEAUPxSweepHit@2@V?$PxFlags@W4Enum@PxHitFlag@physx@@G@2@M@Z 00000001801483d0 f   GuSweepSharedTests.obj
 0001:001475f0       ?sweepConvex_ConvexGeom@@YA_NAEBVPxGeometry@physx@@AEBVPxTransform@2@AEBVPxConvexMeshGeometry@2@1AEBVPxVec3@2@MAEAUPxSweepHit@2@V?$PxFlags@W4Enum@PxHitFlag@physx@@G@2@M@Z 00000001801485f0 f   GuSweepSharedTests.obj
 0001:00148590       ??$gjkPenetration@U?$LocalConvex@VCapsuleV@Gu@physx@@@Gu@physx@@U?$LocalConvex@VShrunkConvexHullV@Gu@physx@@@23@@Gu@physx@@YA?AW4GjkStatus@01@AEBU?$LocalConvex@VCapsuleV@Gu@physx@@@01@AEBU?$LocalConvex@VShrunkConvexHullV@Gu@physx@@@01@AEBT__m128@@2AEAT5@333PEIAE4AEAE_N@Z 0000000180149590 f i GuSweepSharedTests.obj
 0001:00149e90       ??$gjkRaycast@U?$LocalConvex@VCapsuleV@Gu@physx@@@Gu@physx@@U?$LocalConvex@VConvexHullV@Gu@physx@@@23@@Gu@physx@@YA_NAEBU?$LocalConvex@VCapsuleV@Gu@physx@@@01@AEBU?$LocalConvex@VConvexHullV@Gu@physx@@@01@AEBT__m128@@222AEAT4@33M@Z 000000018014ae90 f i GuSweepSharedTests.obj
 0001:0014abe0       ??$gjkRaycast@U?$RelativeConvex@VBoxV@Gu@physx@@@Gu@physx@@U?$LocalConvex@VConvexHullV@Gu@physx@@@23@@Gu@physx@@YA_NAEBU?$RelativeConvex@VBoxV@Gu@physx@@@01@AEBU?$LocalConvex@VConvexHullV@Gu@physx@@@01@AEBT__m128@@222AEAT4@33M@Z 000000018014bbe0 f i GuSweepSharedTests.obj
 0001:0014b9a0       ??$gjkRaycast@U?$RelativeConvex@VConvexHullV@Gu@physx@@@Gu@physx@@U?$LocalConvex@VConvexHullV@Gu@physx@@@23@@Gu@physx@@YA_NAEBU?$RelativeConvex@VConvexHullV@Gu@physx@@@01@AEBU?$LocalConvex@VConvexHullV@Gu@physx@@@01@AEBT__m128@@222AEAT4@33M@Z 000000018014c9a0 f i GuSweepSharedTests.obj
 0001:0014c830       ??$gjkRaycastPenetration@U?$LocalConvex@VCapsuleV@Gu@physx@@@Gu@physx@@U?$LocalConvex@VConvexHullV@Gu@physx@@@23@@Gu@physx@@YA_NAEBU?$LocalConvex@VCapsuleV@Gu@physx@@@01@AEBU?$LocalConvex@VConvexHullV@Gu@physx@@@01@AEBT__m128@@222AEAT4@33M_N@Z 000000018014d830 f i GuSweepSharedTests.obj
 0001:0014ca60       ??$gjkRaycastPenetration@U?$RelativeConvex@VBoxV@Gu@physx@@@Gu@physx@@U?$LocalConvex@VConvexHullV@Gu@physx@@@23@@Gu@physx@@YA_NAEBU?$RelativeConvex@VBoxV@Gu@physx@@@01@AEBU?$LocalConvex@VConvexHullV@Gu@physx@@@01@AEBT__m128@@222AEAT4@33M_N@Z 000000018014da60 f i GuSweepSharedTests.obj
 0001:0014ccf0       ??$gjkRaycastPenetration@U?$RelativeConvex@VConvexHullV@Gu@physx@@@Gu@physx@@U?$LocalConvex@VConvexHullV@Gu@physx@@@23@@Gu@physx@@YA_NAEBU?$RelativeConvex@VConvexHullV@Gu@physx@@@01@AEBU?$LocalConvex@VConvexHullV@Gu@physx@@@01@AEBT__m128@@222AEAT4@33M_N@Z 000000018014dcf0 f i GuSweepSharedTests.obj
 0001:0014d930       ?getSweepFuncTable@Gu@physx@@YAAEBUGeomSweepFuncs@12@XZ 000000018014e930 f   GuSweepTests.obj
 0001:0014d940       ?sweepBoxTriangles@Gu@physx@@YA_NIPEBVPxTriangle@2@_NAEBVPxBoxGeometry@2@AEBVPxTransform@2@AEBVPxVec3@2@MAEAUPxSweepHit@2@PEBIMV?$PxFlags@W4Enum@PxHitFlag@physx@@G@2@@Z 000000018014e940 f   GuSweepTests.obj
 0001:0014e3e0       ?sweepCapsule_BoxGeom@@YA_NAEBVPxGeometry@physx@@AEBVPxTransform@2@AEBVPxCapsuleGeometry@2@1AEBVCapsule@Gu@2@AEBVPxVec3@2@MAEAUPxSweepHit@2@V?$PxFlags@W4Enum@PxHitFlag@physx@@G@2@M@Z 000000018014f3e0 f   GuSweepTests.obj
 0001:0014ed30       ?sweepBox_SphereGeom@@YA_NAEBVPxGeometry@physx@@AEBVPxTransform@2@AEBVPxBoxGeometry@2@1AEBVBox@Gu@2@AEBVPxVec3@2@MAEAUPxSweepHit@2@V?$PxFlags@W4Enum@PxHitFlag@physx@@G@2@M@Z 000000018014fd30 f   GuSweepTests.obj
 0001:0014f440       ?sweepBox_CapsuleGeom@@YA_NAEBVPxGeometry@physx@@AEBVPxTransform@2@AEBVPxBoxGeometry@2@1AEBVBox@Gu@2@AEBVPxVec3@2@MAEAUPxSweepHit@2@V?$PxFlags@W4Enum@PxHitFlag@physx@@G@2@M@Z 0000000180150440 f   GuSweepTests.obj
 0001:0014fd90       ?sweepBox_BoxGeom@@YA_NAEBVPxGeometry@physx@@AEBVPxTransform@2@AEBVPxBoxGeometry@2@1AEBVBox@Gu@2@AEBVPxVec3@2@MAEAUPxSweepHit@2@V?$PxFlags@W4Enum@PxHitFlag@physx@@G@2@M@Z 0000000180150d90 f   GuSweepTests.obj
 0001:001507b0       ?registerHeightFields_Sweeps@@YAXXZ 00000001801517b0 f   GuSweepTests.obj
 0001:001507f0       ??$gjkPenetration@U?$LocalConvex@VCapsuleV@Gu@physx@@@Gu@physx@@U?$LocalConvex@VShrunkBoxV@Gu@physx@@@23@@Gu@physx@@YA?AW4GjkStatus@01@AEBU?$LocalConvex@VCapsuleV@Gu@physx@@@01@AEBU?$LocalConvex@VShrunkBoxV@Gu@physx@@@01@AEBT__m128@@2AEAT5@333PEIAE4AEAE_N@Z 00000001801517f0 f i GuSweepTests.obj
 0001:00151e30       ??$gjkRaycast@U?$LocalConvex@VCapsuleV@Gu@physx@@@Gu@physx@@U?$LocalConvex@VBoxV@Gu@physx@@@23@@Gu@physx@@YA_NAEBU?$LocalConvex@VCapsuleV@Gu@physx@@@01@AEBU?$LocalConvex@VBoxV@Gu@physx@@@01@AEBT__m128@@222AEAT4@33M@Z 0000000180152e30 f i GuSweepTests.obj
 0001:00152a10       ??$gjkRaycast@U?$RelativeConvex@VBoxV@Gu@physx@@@Gu@physx@@U?$LocalConvex@VBoxV@Gu@physx@@@23@@Gu@physx@@YA_NAEBU?$RelativeConvex@VBoxV@Gu@physx@@@01@AEBU?$LocalConvex@VBoxV@Gu@physx@@@01@AEBT__m128@@222AEAT4@33M@Z 0000000180153a10 f i GuSweepTests.obj
 0001:00153650       ??$gjkRaycastPenetration@U?$LocalConvex@VCapsuleV@Gu@physx@@@Gu@physx@@U?$LocalConvex@VBoxV@Gu@physx@@@23@@Gu@physx@@YA_NAEBU?$LocalConvex@VCapsuleV@Gu@physx@@@01@AEBU?$LocalConvex@VBoxV@Gu@physx@@@01@AEBT__m128@@222AEAT4@33M_N@Z 0000000180154650 f i GuSweepTests.obj
 0001:00153880       ??$gjkRaycastPenetration@U?$RelativeConvex@VBoxV@Gu@physx@@@Gu@physx@@U?$LocalConvex@VBoxV@Gu@physx@@@23@@Gu@physx@@YA_NAEBU?$RelativeConvex@VBoxV@Gu@physx@@@01@AEBU?$LocalConvex@VBoxV@Gu@physx@@@01@AEBT__m128@@222AEAT4@33M_N@Z 0000000180154880 f i GuSweepTests.obj
 0001:00153b07       LoadLibraryA               0000000180154b07 f   kernel32:KERNEL32.dll
 0001:00153b0d       FreeLibrary                0000000180154b0d f   kernel32:KERNEL32.dll
 0001:00153b13       GetProcAddress             0000000180154b13 f   kernel32:KERNEL32.dll
 0001:00153b19       __imp_load_PxGetFoundation 0000000180154b19 f   PxFoundation_x64:PxFoundation_x64.dll
 0001:00153b25       PxGetFoundation            0000000180154b25 f   PxFoundation_x64:PxFoundation_x64.dll
 0001:00153b2b       __tailMerge_pxfoundation_x64_dll 0000000180154b2b     PxFoundation_x64:PxFoundation_x64.dll
 0001:00153ba4       __imp_load_?getAllocator@shdfnd@physx@@YAAEAVPxAllocatorCallback@2@XZ 0000000180154ba4 f   PxFoundation_x64:PxFoundation_x64.dll
 0001:00153bb0       ?getAllocator@shdfnd@physx@@YAAEAVPxAllocatorCallback@2@XZ 0000000180154bb0 f   PxFoundation_x64:PxFoundation_x64.dll
 0001:00153bb6       __imp_load_?getInstance@Foundation@shdfnd@physx@@SAAEAV123@XZ 0000000180154bb6 f   PxFoundation_x64:PxFoundation_x64.dll
 0001:00153bc2       ?getInstance@Foundation@shdfnd@physx@@SAAEAV123@XZ 0000000180154bc2 f   PxFoundation_x64:PxFoundation_x64.dll
 0001:00153bc8       __imp_load_?error@Foundation@shdfnd@physx@@QEAAXW4Enum@PxErrorCode@3@PEBDH1ZZ 0000000180154bc8 f   PxFoundation_x64:PxFoundation_x64.dll
 0001:00153bd4       ?error@Foundation@shdfnd@physx@@QEAAXW4Enum@PxErrorCode@3@PEBDH1ZZ 0000000180154bd4 f   PxFoundation_x64:PxFoundation_x64.dll
 0001:00153bda       __imp_load_?PxShortestRotation@physx@@YA?AVPxQuat@1@AEBVPxVec3@1@0@Z 0000000180154bda f   PxFoundation_x64:PxFoundation_x64.dll
 0001:00153be6       ?PxShortestRotation@physx@@YA?AVPxQuat@1@AEBVPxVec3@1@0@Z 0000000180154be6 f   PxFoundation_x64:PxFoundation_x64.dll
 0001:00153bec       __imp_load_?vsnprintf@shdfnd@physx@@YAHPEAD_KPEBD0@Z 0000000180154bec f   PxFoundation_x64:PxFoundation_x64.dll
 0001:00153bf8       ?vsnprintf@shdfnd@physx@@YAHPEAD_KPEBD0@Z 0000000180154bf8 f   PxFoundation_x64:PxFoundation_x64.dll
 0001:00153bfe       __imp_load_?optimizeBoundingBox@shdfnd@physx@@YA?AVPxVec3@2@AEAVPxMat33@2@@Z 0000000180154bfe f   PxFoundation_x64:PxFoundation_x64.dll
 0001:00153c0a       ?optimizeBoundingBox@shdfnd@physx@@YA?AVPxVec3@2@AEAVPxMat33@2@@Z 0000000180154c0a f   PxFoundation_x64:PxFoundation_x64.dll
 0001:00153c10       __imp_load_?allocate@TempAllocator@shdfnd@physx@@QEAAPEAX_KPEBDH@Z 0000000180154c10 f   PxFoundation_x64:PxFoundation_x64.dll
 0001:00153c1c       ?allocate@TempAllocator@shdfnd@physx@@QEAAPEAX_KPEBDH@Z 0000000180154c1c f   PxFoundation_x64:PxFoundation_x64.dll
 0001:00153c22       __imp_load_?deallocate@TempAllocator@shdfnd@physx@@QEAAXPEAX@Z 0000000180154c22 f   PxFoundation_x64:PxFoundation_x64.dll
 0001:00153c2e       ?deallocate@TempAllocator@shdfnd@physx@@QEAAXPEAX@Z 0000000180154c2e f   PxFoundation_x64:PxFoundation_x64.dll
 0001:00153c34       __imp_load_?atomicIncrement@shdfnd@physx@@YAHPECH@Z 0000000180154c34 f   PxFoundation_x64:PxFoundation_x64.dll
 0001:00153c40       ?atomicIncrement@shdfnd@physx@@YAHPECH@Z 0000000180154c40 f   PxFoundation_x64:PxFoundation_x64.dll
 0001:00153c46       __imp_load_?atomicDecrement@shdfnd@physx@@YAHPECH@Z 0000000180154c46 f   PxFoundation_x64:PxFoundation_x64.dll
 0001:00153c52       ?atomicDecrement@shdfnd@physx@@YAHPECH@Z 0000000180154c52 f   PxFoundation_x64:PxFoundation_x64.dll
 0001:00153c58       __imp_load_??0MutexImpl@shdfnd@physx@@QEAA@XZ 0000000180154c58 f   PxFoundation_x64:PxFoundation_x64.dll
 0001:00153c64       ??0MutexImpl@shdfnd@physx@@QEAA@XZ 0000000180154c64 f   PxFoundation_x64:PxFoundation_x64.dll
 0001:00153c6a       __imp_load_??1MutexImpl@shdfnd@physx@@QEAA@XZ 0000000180154c6a f   PxFoundation_x64:PxFoundation_x64.dll
 0001:00153c76       ??1MutexImpl@shdfnd@physx@@QEAA@XZ 0000000180154c76 f   PxFoundation_x64:PxFoundation_x64.dll
 0001:00153c7c       __imp_load_?lock@MutexImpl@shdfnd@physx@@QEAAXXZ 0000000180154c7c f   PxFoundation_x64:PxFoundation_x64.dll
 0001:00153c88       ?lock@MutexImpl@shdfnd@physx@@QEAAXXZ 0000000180154c88 f   PxFoundation_x64:PxFoundation_x64.dll
 0001:00153c8e       __imp_load_?unlock@MutexImpl@shdfnd@physx@@QEAAXXZ 0000000180154c8e f   PxFoundation_x64:PxFoundation_x64.dll
 0001:00153c9a       ?unlock@MutexImpl@shdfnd@physx@@QEAAXXZ 0000000180154c9a f   PxFoundation_x64:PxFoundation_x64.dll
 0001:00153ca0       __imp_load_?getSize@MutexImpl@shdfnd@physx@@SAIXZ 0000000180154ca0 f   PxFoundation_x64:PxFoundation_x64.dll
 0001:00153cac       ?getSize@MutexImpl@shdfnd@physx@@SAIXZ 0000000180154cac f   PxFoundation_x64:PxFoundation_x64.dll
 0001:00153cb4       ??$PFromRva@PEAP6A_JXZ@@YAPEAP6A_JXZK@Z 0000000180154cb4 f i delayimp:delayhlp.obj
 0001:00153cc4       ??$PFromRva@PEAPEAUHINSTANCE__@@@@YAPEAPEAUHINSTANCE__@@K@Z 0000000180154cc4 f i delayimp:delayhlp.obj
 0001:00153cd4       ??$PFromRva@PEAU_IMAGE_IMPORT_BY_NAME@@@@YAPEAU_IMAGE_IMPORT_BY_NAME@@K@Z 0000000180154cd4 f i delayimp:delayhlp.obj
 0001:00153ce4       ??$PFromRva@PEAU_IMAGE_THUNK_DATA64@@@@YAPEAU_IMAGE_THUNK_DATA64@@K@Z 0000000180154ce4 f i delayimp:delayhlp.obj
 0001:00153cf4       ??$PFromRva@PEBD@@YAPEBDK@Z 0000000180154cf4 f i delayimp:delayhlp.obj
 0001:00153d04       ??$PFromRva@PEBUImgDelayDescr@@@@YAPEBUImgDelayDescr@@K@Z 0000000180154d04 f i delayimp:delayhlp.obj
 0001:00153d14       ??$PFromRva@PEBU_IMAGE_THUNK_DATA64@@@@YAPEBU_IMAGE_THUNK_DATA64@@K@Z 0000000180154d14 f i delayimp:delayhlp.obj
 0001:00153d24       ?CountOfImports@@YAIPEBU_IMAGE_THUNK_DATA64@@@Z 0000000180154d24 f i delayimp:delayhlp.obj
 0001:00153d38       ?DloadAcquireSectionWriteAccess@@YAXXZ 0000000180154d38 f i delayimp:delayhlp.obj
 0001:00153de4       ?DloadGetSRWLockFunctionPointers@@YAEXZ 0000000180154de4 f i delayimp:delayhlp.obj
 0001:00153e80       ?DloadLock@@YAXXZ          0000000180154e80 f i delayimp:delayhlp.obj
 0001:00153ec8       ?DloadMakePermanentImageCommit@@YAXPEAX_K@Z 0000000180154ec8 f i delayimp:delayhlp.obj
 0001:00153f60       ?DloadObtainSection@@YAPEAXPEAK0@Z 0000000180154f60 f i delayimp:delayhlp.obj
 0001:00153ffc       ?DloadProtectSection@@YAXKPEAK@Z 0000000180154ffc f i delayimp:delayhlp.obj
 0001:0015408c       ?DloadReleaseSectionWriteAccess@@YAXXZ 000000018015508c f i delayimp:delayhlp.obj
 0001:00154120       ?DloadUnlock@@YAXXZ        0000000180155120 f i delayimp:delayhlp.obj
 0001:00154160       ?IndexFromPImgThunkData@@YAIPEBU_IMAGE_THUNK_DATA64@@0@Z 0000000180155160 f i delayimp:delayhlp.obj
 0001:001542a8       HRESULT_FROM_WIN32         00000001801552a8 f i delayimp:delayhlp.obj
 0001:001542b8       ReadAcquire64              00000001801552b8 f i delayimp:delayhlp.obj
 0001:001542bc       ReadPointerAcquire         00000001801552bc f i delayimp:delayhlp.obj
 0001:001542c0       WritePointerRelease        00000001801552c0 f i delayimp:delayhlp.obj
 0001:001542c4       WriteRelease64             00000001801552c4 f i delayimp:delayhlp.obj
 0001:001542c8       __FUnloadDelayLoadedDLL2   00000001801552c8 f   delayimp:delayhlp.obj
 0001:00154384       __HrLoadAllImportsForDll   0000000180155384 f   delayimp:delayhlp.obj
 0001:001543f8       __delayLoadHelper2         00000001801553f8 f   delayimp:delayhlp.obj
 0001:001546cc       ??3@YAXPEAX_K@Z            00000001801556cc f   LIBCMT:delete_scalar_size.obj
 0001:001546d4       ??_V@YAXPEAX_K@Z           00000001801556d4 f   LIBCMT:delete_array_size.obj
 0001:001546dc       ??1type_info@@UEAA@XZ      00000001801556dc f   LIBCMT:std_type_info_static.obj
 0001:001546e8       ??_Gtype_info@@UEAAPEAXI@Z 00000001801556e8 f i LIBCMT:std_type_info_static.obj
 0001:001546e8       ??_Etype_info@@UEAAPEAXI@Z 00000001801556e8 f i LIBCMT:std_type_info_static.obj
 0001:00154714       ?__scrt_initialize_type_info@@YAXXZ 0000000180155714 f   LIBCMT:tncleanup.obj
 0001:00154724       ?__scrt_uninitialize_type_info@@YAXXZ 0000000180155724 f   LIBCMT:tncleanup.obj
 0001:00154740       __chkstk                   0000000180155740 f   LIBCMT:chkstk.obj
 0001:00154740       _alloca_probe              0000000180155740 f   LIBCMT:chkstk.obj
 0001:00154790       __vdecl_sinf4              0000000180155790 f   LIBCMT:svml_ssinf4_dispatch.obj
 0001:001547b0       __libm_sse2_sincosf_       00000001801557b0 f   LIBCMT:svml_ssinf4_dispatch.obj
 0001:001547f3       __libm_sse2_sincosf4_      00000001801557f3 f   LIBCMT:svml_ssinf4_dispatch.obj
 0001:00154800       ??3@YAXPEAX@Z              0000000180155800 f   LIBCMT:delete_scalar.obj
 0001:00154808       ??_V@YAXPEAX@Z             0000000180155808 f   LIBCMT:delete_array.obj
 0001:00154b4c       _CRT_INIT                  0000000180155b4c f   LIBCMT:dll_dllmain.obj
 0001:00154b54       _DllMainCRTStartup         0000000180155b54 f   LIBCMT:dll_dllmain.obj
 0001:00154b94       _guard_check_icall_nop     0000000180155b94 f i LIBCMT:guard_support.obj
 0001:00154b98       ReadNoFence64              0000000180155b98 f i LIBCMT:guard_support.obj
 0001:00154b9c       ReadPointerNoFence         0000000180155b9c f i LIBCMT:guard_support.obj
 0001:00154ba0       __castguard_check_failure_debugbreak 0000000180155ba0 f i LIBCMT:guard_support.obj
 0001:00154bbc       __castguard_check_failure_fastfail 0000000180155bbc f i LIBCMT:guard_support.obj
 0001:00154be0       __castguard_check_failure_nop 0000000180155be0 f i LIBCMT:guard_support.obj
 0001:00154be4       __castguard_check_failure_os_handled 0000000180155be4 f i LIBCMT:guard_support.obj
 0001:00154c44       __castguard_slow_path_check_debugbreak 0000000180155c44 f i LIBCMT:guard_support.obj
 0001:00154c78       __castguard_slow_path_check_fastfail 0000000180155c78 f i LIBCMT:guard_support.obj
 0001:00154cb4       __castguard_slow_path_check_nop 0000000180155cb4 f i LIBCMT:guard_support.obj
 0001:00154cb8       __castguard_slow_path_check_os_handled 0000000180155cb8 f i LIBCMT:guard_support.obj
 0001:00154d2c       _guard_icall_checks_enforced 0000000180155d2c f i LIBCMT:guard_support.obj
 0001:00154d44       _guard_rf_checks_enforced  0000000180155d44 f i LIBCMT:guard_support.obj
 0001:00154d48       __isa_available_init       0000000180155d48 f   LIBCMT:cpu_disp.obj
 0001:00154ef0       __sse2_sinf4@@16           0000000180155ef0 f   LIBCMT:svml_ssinf4_sse2.obj
 0001:00155830       __sse4_sinf4@@16           0000000180156830 f   LIBCMT:svml_ssinf4_sse4.obj
 0001:00156010       __security_init_cookie     0000000180157010 f   LIBCMT:gs_support.obj
 0001:001560bc       DllMain                    00000001801570bc f   LIBCMT:dll_dllmain_stub.obj
 0001:001560c4       __local_stdio_printf_options 00000001801570c4 f i LIBCMT:default_local_stdio_options.obj
 0001:001560cc       __local_stdio_scanf_options 00000001801570cc f i LIBCMT:default_local_stdio_options.obj
 0001:001560d4       __scrt_initialize_default_local_stdio_options 00000001801570d4 f   LIBCMT:default_local_stdio_options.obj
 0001:001560f0       ?configure_argv@__scrt_narrow_argv_policy@@SAHXZ 00000001801570f0 f i LIBCMT:utility.obj
 0001:00156150       ?initialize_environment@__scrt_narrow_environment_policy@@SAHXZ 0000000180157150 f i LIBCMT:utility.obj
 0001:00156188       NtCurrentTeb               0000000180157188 f i LIBCMT:utility.obj
 0001:00156194       __scrt_acquire_startup_lock 0000000180157194 f   LIBCMT:utility.obj
 0001:001561d0       __scrt_dllmain_after_initialize_c 00000001801571d0 f   LIBCMT:utility.obj
 0001:00156204       __scrt_dllmain_before_initialize_c 0000000180157204 f   LIBCMT:utility.obj
 0001:0015621c       __scrt_dllmain_crt_thread_attach 000000018015721c f   LIBCMT:utility.obj
 0001:00156244       __scrt_dllmain_crt_thread_detach 0000000180157244 f   LIBCMT:utility.obj
 0001:0015625c       __scrt_dllmain_exception_filter 000000018015725c f   LIBCMT:utility.obj
 0001:001562bc       __scrt_dllmain_uninitialize_c 00000001801572bc f   LIBCMT:utility.obj
 0001:001562ec       __scrt_dllmain_uninitialize_critical 00000001801572ec f   LIBCMT:utility.obj
 0001:00156300       __scrt_initialize_crt      0000000180157300 f   LIBCMT:utility.obj
 0001:0015634c       __scrt_initialize_onexit_tables 000000018015734c f   LIBCMT:utility.obj
 0001:001563d8       __scrt_is_nonwritable_in_current_image 00000001801573d8 f   LIBCMT:utility.obj
 0001:00156470       __scrt_release_startup_lock 0000000180157470 f   LIBCMT:utility.obj
 0001:00156494       __scrt_uninitialize_crt    0000000180157494 f   LIBCMT:utility.obj
 0001:001564c0       _onexit                    00000001801574c0 f   LIBCMT:utility.obj
 0001:001564fc       at_quick_exit              00000001801574fc f   LIBCMT:utility.obj
 0001:0015651c       atexit                     000000018015751c f   LIBCMT:utility.obj
 0001:00156534       __scrt_get_dyn_tls_init_callback 0000000180157534 f   LIBCMT:dyn_tls_init.obj
 0001:0015653c       __crt_debugger_hook        000000018015753c f   LIBCMT:utility_desktop.obj
 0001:00156544       __scrt_fastfail            0000000180157544 f   LIBCMT:utility_desktop.obj
 0001:00156690       __scrt_get_show_window_mode 0000000180157690 f   LIBCMT:utility_desktop.obj
 0001:001566cc       __scrt_initialize_mta      00000001801576cc f   LIBCMT:utility_desktop.obj
 0001:001566d4       __scrt_initialize_winrt    00000001801576d4 f   LIBCMT:utility_desktop.obj
 0001:001566d8       __scrt_is_managed_app      00000001801576d8 f   LIBCMT:utility_desktop.obj
 0001:0015672c       __scrt_set_unhandled_exception_filter 000000018015772c f   LIBCMT:utility_desktop.obj
 0001:0015673c       __scrt_exe_initialize_mta  000000018015773c f   LIBCMT:utility_desktop.obj
 0001:0015673c       __scrt_stub_for_initialize_mta 000000018015773c f   LIBCMT:utility_desktop.obj
 0001:00156740       __scrt_unhandled_exception_filter 0000000180157740 f   LIBCMT:utility_desktop.obj
 0001:0015679c       _RTC_Initialize            000000018015779c f   LIBCMT:initsect.obj
 0001:001567d8       _RTC_Terminate             00000001801577d8 f   LIBCMT:initsect.obj
 0001:00156820       __common_ssin_cout_rare    0000000180157820 f   LIBCMT:svml_s_sin_cout.obj
 0001:00156890       _get_startup_argv_mode     0000000180157890 f   LIBCMT:argv_mode.obj
 0001:00156898       __scrt_is_ucrt_dll_in_use  0000000180157898 f   LIBCMT:ucrt_detection.obj
 0001:001568a4       strstr                     00000001801578a4 f   libvcruntime:strstr.obj
 0001:00156aa0       ??$__crt_interlocked_exchange_pointer@$$A6AXXZP6AXXZ@@YAP6AXXZPEDS6AXXZQ6AXXZ@Z 0000000180157aa0 f i libvcruntime:purevirt.obj
 0001:00156aa8       ??$__crt_interlocked_read_pointer@$$A6AXXZ@@YAP6AXXZPEDS6AXXZ@Z 0000000180157aa8 f i libvcruntime:purevirt.obj
 0001:00156ab0       ?__crt_interlocked_read_64@@YA_JPED_J@Z 0000000180157ab0 f i libvcruntime:purevirt.obj
 0001:00156ab8       _get_purecall_handler      0000000180157ab8 f   libvcruntime:purevirt.obj
 0001:00156ac4       _purecall                  0000000180157ac4 f   libvcruntime:purevirt.obj
 0001:00156ae0       _set_purecall_handler      0000000180157ae0 f   libvcruntime:purevirt.obj
 0001:00156afc       ??$?RD@__crt_internal_free_policy@@QEBAXQEBD@Z 0000000180157afc f i libvcruntime:std_type_info.obj
 0001:00156b04       ??$?RX@__crt_internal_free_policy@@QEBAXQEBX@Z 0000000180157b04 f i libvcruntime:std_type_info.obj
 0001:00156b0c       ??$__crt_interlocked_compare_exchange_pointer@$$CBDPEAD$$T@@YAPEBDPEDSEBDQEAD$$T@Z 0000000180157b0c f i libvcruntime:std_type_info.obj
 0001:00156b18       ??$__crt_interlocked_read_pointer@$$CBD@@YAPEBDPEDSEBD@Z 0000000180157b18 f i libvcruntime:std_type_info.obj
 0001:00156b20       ??0?$__crt_unique_heap_ptr@DU__crt_internal_free_policy@@@@QEAA@QEAD@Z 0000000180157b20 f i libvcruntime:std_type_info.obj
 0001:00156b28       ??0?$__crt_unique_heap_ptr@XU__crt_internal_free_policy@@@@QEAA@QEAX@Z 0000000180157b28 f i libvcruntime:std_type_info.obj
 0001:00156b30       ??1?$__crt_unique_heap_ptr@DU__crt_internal_free_policy@@@@QEAA@XZ 0000000180157b30 f i libvcruntime:std_type_info.obj
 0001:00156b4c       ??1?$__crt_unique_heap_ptr@XU__crt_internal_free_policy@@@@QEAA@XZ 0000000180157b4c f i libvcruntime:std_type_info.obj
 0001:00156b68       ??B?$__crt_unique_heap_ptr@DU__crt_internal_free_policy@@@@QEBA_NXZ 0000000180157b68 f i libvcruntime:std_type_info.obj
 0001:00156b70       ??B?$__crt_unique_heap_ptr@XU__crt_internal_free_policy@@@@QEBA_NXZ 0000000180157b70 f i libvcruntime:std_type_info.obj
 0001:00156b98       ?detach@?$__crt_unique_heap_ptr@XU__crt_internal_free_policy@@@@QEAAPEAXXZ 0000000180157b98 f i libvcruntime:std_type_info.obj
 0001:00156ba0       ?get@?$__crt_unique_heap_ptr@DU__crt_internal_free_policy@@@@QEBAPEADXZ 0000000180157ba0 f i libvcruntime:std_type_info.obj
 0001:00156ba4       ?get@?$__crt_unique_heap_ptr@XU__crt_internal_free_policy@@@@QEBAPEAXXZ 0000000180157ba4 f i libvcruntime:std_type_info.obj
 0001:00156ba8       ?is_valid@?$__crt_unique_heap_ptr@DU__crt_internal_free_policy@@@@QEBA_NXZ 0000000180157ba8 f i libvcruntime:std_type_info.obj
 0001:00156bb0       ?is_valid@?$__crt_unique_heap_ptr@XU__crt_internal_free_policy@@@@QEBA_NXZ 0000000180157bb0 f i libvcruntime:std_type_info.obj
 0001:00156bb8       ?release@?$__crt_unique_heap_ptr@DU__crt_internal_free_policy@@@@QEAAXXZ 0000000180157bb8 f i libvcruntime:std_type_info.obj
 0001:00156bd4       ?release@?$__crt_unique_heap_ptr@XU__crt_internal_free_policy@@@@QEAAXXZ 0000000180157bd4 f i libvcruntime:std_type_info.obj
 0001:00156bf0       __std_type_info_compare    0000000180157bf0 f   libvcruntime:std_type_info.obj
 0001:00156c18       __std_type_info_destroy_list 0000000180157c18 f   libvcruntime:std_type_info.obj
 0001:00156c44       __std_type_info_hash       0000000180157c44 f   libvcruntime:std_type_info.obj
 0001:00156c7c       __std_type_info_name       0000000180157c7c f   libvcruntime:std_type_info.obj
 0001:00156db0       memcpy_repmovs             0000000180157db0 f   libvcruntime:memcpy.obj
 0001:00156dd0       memcpy                     0000000180157dd0 f   libvcruntime:memcpy.obj
 0001:00156dd0       memmove                    0000000180157dd0 f   libvcruntime:memcpy.obj
 0001:00157460       memset_repmovs             0000000180158460 f   libvcruntime:memset.obj
 0001:00157480       memset                     0000000180158480 f   libvcruntime:memset.obj
 0001:00157610       __C_specific_handler       0000000180158610 f   libvcruntime:riscchandler.obj
 0001:0015781c       __vcrt_initialize          000000018015881c f   libvcruntime:initialization.obj
 0001:00157844       __vcrt_thread_attach       0000000180158844 f   libvcruntime:initialization.obj
 0001:00157858       __vcrt_thread_detach       0000000180158858 f   libvcruntime:initialization.obj
 0001:0015786c       __vcrt_uninitialize        000000018015886c f   libvcruntime:initialization.obj
 0001:00157888       __vcrt_uninitialize_critical 0000000180158888 f   libvcruntime:initialization.obj
 0001:0015789c       __DestructExceptionObject  000000018015889c f   libvcruntime:ehhelpers.obj
 0001:0015790c       ?_CallMemberFunction0@@YAXQEAX0@Z 000000018015890c f i libvcruntime:ehhelpers.obj
 0001:00157968       ?raw_name@type_info@@QEBAPEBDXZ 0000000180158968 f i libvcruntime:ehhelpers.obj
 0001:00157970       _IsExceptionObjectToBeDestroyed 0000000180158970 f   libvcruntime:ehhelpers.obj
 0001:001579a0       _SetWinRTOutOfMemoryExceptionCallback 00000001801589a0 f   libvcruntime:ehhelpers.obj
 0001:001579a8       __AdjustPointer            00000001801589a8 f   libvcruntime:ehhelpers.obj
 0001:001579cc       __FrameUnwindFilter        00000001801589cc f   libvcruntime:ehhelpers.obj
 0001:00157a34       __GetPlatformExceptionInfo 0000000180158a34 f   libvcruntime:ehhelpers.obj
 0001:00157a90       __current_exception        0000000180158a90 f   libvcruntime:ehhelpers.obj
 0001:00157aa4       __current_exception_context 0000000180158aa4 f   libvcruntime:ehhelpers.obj
 0001:00157ab8       __processing_throw         0000000180158ab8 f   libvcruntime:ehhelpers.obj
 0001:00157acc       __std_terminate            0000000180158acc f   libvcruntime:ehhelpers.obj
 0001:00157ad8       _is_exception_typeof       0000000180158ad8 f   libvcruntime:ehhelpers.obj
 0001:00157b80       ??$?0$00@DName@@QEAA@PEBDU?$StringLifeSelector@$00@@@Z 0000000180158b80 f i libvcruntime:undname.obj
 0001:00157bc0       ??$?0$00@pcharNode@@QEAA@PEBDHU?$StringLifeSelector@$00@@@Z 0000000180158bc0 f i libvcruntime:undname.obj
 0001:00157bd8       ??$?0$01@DName@@QEAA@PEBDU?$StringLifeSelector@$01@@@Z 0000000180158bd8 f i libvcruntime:undname.obj
 0001:00157c18       ??$?0$01@pcharNode@@QEAA@PEBDHU?$StringLifeSelector@$01@@@Z 0000000180158c18 f i libvcruntime:undname.obj
 0001:00157c8c       ??$?0$0A@@DName@@QEAA@PEBDU?$StringLifeSelector@$0A@@@@Z 0000000180158c8c f i libvcruntime:undname.obj
 0001:00157ccc       ??$?0$0A@@pcharNode@@QEAA@PEBDHU?$StringLifeSelector@$0A@@@@Z 0000000180158ccc f i libvcruntime:undname.obj
 0001:00157d40       ??$?0_K$0A@@?$optional@_K@std@@QEAA@$$QEA_K@Z 0000000180158d40 f i libvcruntime:undname.obj
 0001:00157d50       ??$?0_K@?$_Optional_construct_base@_K@std@@QEAA@Uin_place_t@1@$$QEA_K@Z 0000000180158d50 f i libvcruntime:undname.obj
 0001:00157d60       ??$?0_K@?$_Optional_destruct_base@_K$00@std@@QEAA@Uin_place_t@1@$$QEA_K@Z 0000000180158d60 f i libvcruntime:undname.obj
 0001:00157d70       ??$append@VDNameNode@@@DName@@AEAAXPEBVDNameNode@@@Z 0000000180158d70 f i libvcruntime:undname.obj
 0001:00157dd4       ??$append@VDNameStatusNode@@@DName@@AEAAXPEBVDNameStatusNode@@@Z 0000000180158dd4 f i libvcruntime:undname.obj
 0001:00157e38       ??$append@VcharNode@@@DName@@AEAAXPEBVcharNode@@@Z 0000000180158e38 f i libvcruntime:undname.obj
 0001:00157e9c       ??$append@VpDNameNode@@@DName@@AEAAXPEBVpDNameNode@@@Z 0000000180158e9c f i libvcruntime:undname.obj
 0001:00157f00       ??$append@VpcharNode@@@DName@@AEAAXPEBVpcharNode@@@Z 0000000180158f00 f i libvcruntime:undname.obj
 0001:00157f64       ??$doPchar@$00@DName@@AEAAXPEBDH@Z 0000000180158f64 f i libvcruntime:undname.obj
 0001:00158008       ??$doPchar@$01@DName@@AEAAXPEBDH@Z 0000000180159008 f i libvcruntime:undname.obj
 0001:001580a0       ??$doPchar@$0A@@DName@@AEAAXPEBDH@Z 00000001801590a0 f i libvcruntime:undname.obj
 0001:00158138       ??$forward@_K@std@@YA$$QEA_KAEA_K@Z 0000000180159138 f i libvcruntime:undname.obj
 0001:0015813c       ??$size@D$04@std@@YA_KAEAY04$$CBD@Z 000000018015913c f i libvcruntime:undname.obj
 0001:00158144       ??$size@D$0EB@@std@@YA_KAEAY0EB@$$CBD@Z 0000000180159144 f i libvcruntime:undname.obj
 0001:0015814c       ??0?$_Optional_construct_base@_K@std@@QEAA@XZ 000000018015914c f i libvcruntime:undname.obj
 0001:00158154       ??0?$_Optional_destruct_base@_K$00@std@@QEAA@XZ 0000000180159154 f i libvcruntime:undname.obj
 0001:0015815c       ??0?$optional@_K@std@@QEAA@XZ 000000018015915c f i libvcruntime:undname.obj
 0001:00158164       ??0Block@_HeapManager@@QEAA@XZ 0000000180159164 f i libvcruntime:undname.obj
 0001:0015816c       ??0DName@@QEAA@AEAPEBDD@Z  000000018015916c f   libvcruntime:undname.obj
 0001:0015821c       ??0DName@@QEAA@AEBUStringLiteral@@@Z 000000018015921c f   libvcruntime:undname.obj
 0001:00158248       ??0DName@@QEAA@AEBV0@@Z    0000000180159248 f i libvcruntime:undname.obj
 0001:00158258       ??0DName@@QEAA@D@Z         0000000180159258 f   libvcruntime:undname.obj
 0001:00158278       ??0DName@@QEAA@PEAV0@@Z    0000000180159278 f   libvcruntime:undname.obj
 0001:001582fc       ??0DName@@QEAA@W4DNameStatus@@@Z 00000001801592fc f   libvcruntime:undname.obj
 0001:0015832c       ??0DName@@QEAA@XZ          000000018015932c f i libvcruntime:undname.obj
 0001:00158338       ??0DName@@QEAA@_J@Z        0000000180159338 f   libvcruntime:undname.obj
 0001:001583e0       ??0DName@@QEAA@_K@Z        00000001801593e0 f   libvcruntime:undname.obj
 0001:00158468       ??0DNameNode@@IEAA@XZ      0000000180159468 f i libvcruntime:undname.obj
 0001:00158478       ??0Replicator@@QEAA@XZ     0000000180159478 f i libvcruntime:undname.obj
 0001:0015848c       ??0UnDecorator@@QEAA@PEBDP6APEADJ@ZK@Z 000000018015948c f i libvcruntime:undname.obj
 0001:001584dc       ??0_Nontrivial_dummy_type@std@@QEAA@XZ 00000001801594dc f i libvcruntime:undname.obj
 0001:001584e0       ??0charNode@@QEAA@D@Z      00000001801594e0 f i libvcruntime:undname.obj
 0001:001584f4       ??0pDNameNode@@QEAA@PEAVDName@@@Z 00000001801594f4 f   libvcruntime:undname.obj
 0001:0015851c       ??0pairNode@@QEAA@PEBVDNameNode@@0@Z 000000018015951c f i libvcruntime:undname.obj
 0001:00158540       ??2@YAPEAX_KAEAV_HeapManager@@H@Z 0000000180159540 f   libvcruntime:undname.obj
 0001:0015856c       ??4DName@@QEAAAEAV0@AEBUStringLiteral@@@Z 000000018015956c f   libvcruntime:undname.obj
 0001:00158594       ??4DName@@QEAAAEAV0@AEBV0@@Z 0000000180159594 f   libvcruntime:undname.obj
 0001:001585a4       ??4DName@@QEAAAEAV0@D@Z    00000001801595a4 f i libvcruntime:undname.obj
 0001:001585c4       ??4DName@@QEAAAEAV0@PEAV0@@Z 00000001801595c4 f   libvcruntime:undname.obj
 0001:0015863c       ??4DName@@QEAAAEAV0@W4DNameStatus@@@Z 000000018015963c f   libvcruntime:undname.obj
 0001:0015865c       ??AReplicator@@QEBA?AVDName@@H@Z 000000018015965c f   libvcruntime:undname.obj
 0001:0015869c       ??B?$optional@_K@std@@QEBA_NXZ 000000018015969c f i libvcruntime:undname.obj
 0001:001586a0       ??D?$optional@_K@std@@QEGAAAEA_KXZ 00000001801596a0 f i libvcruntime:undname.obj
 0001:001586a4       ??H@YA?AVDName@@AEBUStringLiteral@@AEBV0@@Z 00000001801596a4 f i libvcruntime:undname.obj
 0001:001586dc       ??H@YA?AVDName@@DAEBV0@@Z  00000001801596dc f i libvcruntime:undname.obj
 0001:00158720       ??H@YA?AVDName@@W4DNameStatus@@AEBV0@@Z 0000000180159720 f i libvcruntime:undname.obj
 0001:0015876c       ??HDName@@QEBA?AV0@AEBUStringLiteral@@@Z 000000018015976c f   libvcruntime:undname.obj
 0001:00158798       ??HDName@@QEBA?AV0@AEBV0@@Z 0000000180159798 f   libvcruntime:undname.obj
 0001:001587c4       ??HDName@@QEBA?AV0@D@Z     00000001801597c4 f   libvcruntime:undname.obj
 0001:001587f0       ??HDName@@QEBA?AV0@PEAV0@@Z 00000001801597f0 f   libvcruntime:undname.obj
 0001:0015881c       ??HDName@@QEBA?AV0@W4DNameStatus@@@Z 000000018015981c f   libvcruntime:undname.obj
 0001:00158848       ??HStringLiteral@@QEBA?AU0@H@Z 0000000180159848 f i libvcruntime:undname.obj
 0001:00158860       ??YDName@@QEAAAEAV0@AEBUStringLiteral@@@Z 0000000180159860 f   libvcruntime:undname.obj
 0001:001588e0       ??YDName@@QEAAAEAV0@AEBV0@@Z 00000001801598e0 f   libvcruntime:undname.obj
 0001:00158994       ??YDName@@QEAAAEAV0@D@Z    0000000180159994 f   libvcruntime:undname.obj
 0001:00158a00       ??YDName@@QEAAAEAV0@PEAV0@@Z 0000000180159a00 f   libvcruntime:undname.obj
 0001:00158a94       ??YDName@@QEAAAEAV0@W4DNameStatus@@@Z 0000000180159a94 f   libvcruntime:undname.obj
 0001:00158b00       ??YReplicator@@QEAAAEAV0@AEBVDName@@@Z 0000000180159b00 f   libvcruntime:undname.obj
 0001:00158b58       ??_5DName@@QEAAAEAV0@AEBV0@@Z 0000000180159b58 f   libvcruntime:undname.obj
 0001:00158b6c       ??__K_l@@YA?AUStringLiteral@@PEBD_K@Z 0000000180159b6c f i libvcruntime:undname.obj
 0001:00158b78       ?Constructor@_HeapManager@@QEAAXP6APEAX_K@ZP6AXPEAX@Z@Z 0000000180159b78 f i libvcruntime:undname.obj
 0001:00158b90       ?Destructor@_HeapManager@@QEAAXXZ 0000000180159b90 f i libvcruntime:undname.obj
 0001:00158be4       ?UScore@UnDecorator@@SA?AUStringLiteral@@W4Tokens@@@Z 0000000180159be4 f   libvcruntime:undname.obj
 0001:00158c30       ?composeDeclaration@UnDecorator@@CA?AVDName@@AEBV2@@Z 0000000180159c30 f i libvcruntime:undname.obj
 0001:00159ad8       ?doAccessSpecifiers@UnDecorator@@SAHXZ 000000018015aad8 f i libvcruntime:undname.obj
 0001:00159ae8       ?doAllocationLanguage@UnDecorator@@SAHXZ 000000018015aae8 f i libvcruntime:undname.obj
 0001:00159af8       ?doAllocationModel@UnDecorator@@SAHXZ 000000018015aaf8 f i libvcruntime:undname.obj
 0001:00159b08       ?doEcsu@UnDecorator@@SAHXZ 000000018015ab08 f i libvcruntime:undname.obj
 0001:00159b18       ?doEllipsis@UnDecorator@@SAHXZ 000000018015ab18 f i libvcruntime:undname.obj
 0001:00159b28       ?doFunctionReturns@UnDecorator@@SAHXZ 000000018015ab28 f i libvcruntime:undname.obj
 0001:00159b38       ?doMSKeywords@UnDecorator@@SAHXZ 000000018015ab38 f i libvcruntime:undname.obj
 0001:00159b48       ?doMemberTypes@UnDecorator@@SAHXZ 000000018015ab48 f i libvcruntime:undname.obj
 0001:00159b58       ?doNameOnly@UnDecorator@@SAHXZ 000000018015ab58 f i libvcruntime:undname.obj
 0001:00159b64       ?doNoIdentCharCheck@UnDecorator@@SAHXZ 000000018015ab64 f i libvcruntime:undname.obj
 0001:00159b70       ?doPchar@DName@@AEAAXD@Z   000000018015ab70 f   libvcruntime:undname.obj
 0001:00159bc0       ?doPtr64@UnDecorator@@SAHXZ 000000018015abc0 f i libvcruntime:undname.obj
 0001:00159bd0       ?doRestrictionSpec@UnDecorator@@SAHXZ 000000018015abd0 f i libvcruntime:undname.obj
 0001:00159be0       ?doThisTypes@UnDecorator@@SAHXZ 000000018015abe0 f i libvcruntime:undname.obj
 0001:00159bf4       ?doThrowTypes@UnDecorator@@SAHXZ 000000018015abf4 f i libvcruntime:undname.obj
 0001:00159c04       ?doTypeOnly@UnDecorator@@SAHXZ 000000018015ac04 f i libvcruntime:undname.obj
 0001:00159c10       ?doUnderScore@UnDecorator@@SAHXZ 000000018015ac10 f i libvcruntime:undname.obj
 0001:00159c1c       ?getAddressOf@UnDecorator@@CA?AVDName@@XZ 000000018015ac1c f   libvcruntime:undname.obj
 0001:00159cac       ?getArgumentList@UnDecorator@@CA?AVDName@@XZ 000000018015acac f   libvcruntime:undname.obj
 0001:00159e40       ?getArgumentTypes@UnDecorator@@CA?AVDName@@XZ 000000018015ae40 f   libvcruntime:undname.obj
 0001:00159f9c       ?getArrayAccess@UnDecorator@@CA?AVDName@@XZ 000000018015af9c f   libvcruntime:undname.obj
 0001:0015a038       ?getArrayObject@UnDecorator@@CA?AVDName@@XZ 000000018015b038 f   libvcruntime:undname.obj
 0001:0015a100       ?getArrayType@UnDecorator@@CA?AVDName@@AEBV2@@Z 000000018015b100 f i libvcruntime:undname.obj
 0001:0015a348       ?getBasedType@UnDecorator@@CA?AVDName@@XZ 000000018015b348 f   libvcruntime:undname.obj
 0001:0015a440       ?getBasicDataType@UnDecorator@@CA?AVDName@@AEBV2@@Z 000000018015b440 f   libvcruntime:undname.obj
 0001:0015a9f0       ?getCHPEName@UnDecorator@@QEAAPEADPEADH@Z 000000018015b9f0 f i libvcruntime:undname.obj
 0001:0015ab10       ?getCallIndex@UnDecorator@@CA?AVDName@@XZ 000000018015bb10 f i libvcruntime:undname.obj
 0001:0015ab2c       ?getCallingConvention@UnDecorator@@CA?AVDName@@XZ 000000018015bb2c f   libvcruntime:undname.obj
 0001:0015ac6c       ?getDataIndirectType@UnDecorator@@CA?AVDName@@AEBV2@W4IndirectionKind@@0H@Z 000000018015bc6c f   libvcruntime:undname.obj
 0001:0015b504       ?getDataIndirectType@UnDecorator@@CA?AVDName@@XZ 000000018015c504 f i libvcruntime:undname.obj
 0001:0015b540       ?getDataType@UnDecorator@@CA?AVDName@@PEAV2@@Z 000000018015c540 f   libvcruntime:undname.obj
 0001:0015b654       ?getDecoratedName@UnDecorator@@CA?AVDName@@XZ 000000018015c654 f   libvcruntime:undname.obj
 0001:0015b938       ?getDimension@UnDecorator@@CA?AVDName@@_N@Z 000000018015c938 f   libvcruntime:undname.obj
 0001:0015ba84       ?getDispatchTarget@UnDecorator@@CA?AVDName@@XZ 000000018015ca84 f   libvcruntime:undname.obj
 0001:0015bad0       ?getDisplacement@UnDecorator@@CA?AVDName@@XZ 000000018015cad0 f i libvcruntime:undname.obj
 0001:0015baec       ?getECSUDataType@UnDecorator@@CA?AVDName@@XZ 000000018015caec f   libvcruntime:undname.obj
 0001:0015bccc       ?getECSUName@UnDecorator@@CA?AVDName@@XZ 000000018015cccc f i libvcruntime:undname.obj
 0001:0015bce4       ?getEnumType@UnDecorator@@CA?AVDName@@XZ 000000018015cce4 f i libvcruntime:undname.obj
 0001:0015be14       ?getExtendedDataIndirectType@UnDecorator@@CA?AVDName@@AEAW4IndirectionKind@@AEA_NH@Z 000000018015ce14 f   libvcruntime:undname.obj
 0001:0015c01c       ?getExternalDataType@UnDecorator@@CA?AVDName@@AEBV2@@Z 000000018015d01c f i libvcruntime:undname.obj
 0001:0015c0dc       ?getFloatingPoint@UnDecorator@@CA?AVDName@@H@Z 000000018015d0dc f   libvcruntime:undname.obj
 0001:0015c204       ?getFunctionIndirectType@UnDecorator@@CA?AVDName@@AEBV2@@Z 000000018015d204 f   libvcruntime:undname.obj
 0001:0015c73c       ?getGuardNumber@UnDecorator@@CA?AVDName@@XZ 000000018015d73c f i libvcruntime:undname.obj
 0001:0015c758       ?getLastChar@DName@@QEBADXZ 000000018015d758 f i libvcruntime:undname.obj
 0001:0015c774       ?getLastChar@DNameStatusNode@@UEBADXZ 000000018015d774 f i libvcruntime:undname.obj
 0001:0015c780       ?getLastChar@charNode@@UEBADXZ 000000018015d780 f i libvcruntime:undname.obj
 0001:0015c784       ?getLastChar@pDNameNode@@UEBADXZ 000000018015d784 f i libvcruntime:undname.obj
 0001:0015c7b0       ?getLastChar@pairNode@@UEBADXZ 000000018015d7b0 f i libvcruntime:undname.obj
 0001:0015c7e8       ?getLastChar@pcharNode@@UEBADXZ 000000018015d7e8 f i libvcruntime:undname.obj
 0001:0015c7fc       ?getLexicalFrame@UnDecorator@@CA?AVDName@@XZ 000000018015d7fc f i libvcruntime:undname.obj
 0001:0015c860       ?getMemberAccess@UnDecorator@@CA?AVDName@@XZ 000000018015d860 f   libvcruntime:undname.obj
 0001:0015c8f4       ?getMemoryWithBuffer@_HeapManager@@QEAAPEAX_K@Z 000000018015d8f4 f   libvcruntime:undname.obj
 0001:0015c984       ?getMemoryWithoutBuffer@_HeapManager@@QEAAPEAX_K@Z 000000018015d984 f   libvcruntime:undname.obj
 0001:0015c998       ?getNoexcept@UnDecorator@@CA?AVDName@@XZ 000000018015d998 f   libvcruntime:undname.obj
 0001:0015c9fc       ?getNumberOfDimensions@UnDecorator@@CAHXZ 000000018015d9fc f   libvcruntime:undname.obj
 0001:0015ca70       ?getOperatorName@UnDecorator@@CA?AVDName@@_NPEA_N@Z 000000018015da70 f i libvcruntime:undname.obj
 0001:0015d464       ?getPointerToMember@UnDecorator@@CA?AVDName@@XZ 000000018015e464 f   libvcruntime:undname.obj
 0001:0015d55c       ?getPointerType@UnDecorator@@CA?AVDName@@AEBV2@0@Z 000000018015e55c f i libvcruntime:undname.obj
 0001:0015d57c       ?getPointerTypeArray@UnDecorator@@CA?AVDName@@AEBV2@0@Z 000000018015e57c f i libvcruntime:undname.obj
 0001:0015d598       ?getPrimaryDataType@UnDecorator@@CA?AVDName@@AEBV2@@Z 000000018015e598 f   libvcruntime:undname.obj
 0001:0015d84c       ?getPtrRefDataType@UnDecorator@@CA?AVDName@@AEBV2@H@Z 000000018015e84c f   libvcruntime:undname.obj
 0001:0015da18       ?getPtrRefType@UnDecorator@@CA?AVDName@@AEBV2@0W4IndirectionKind@@@Z 000000018015ea18 f   libvcruntime:undname.obj
 0001:0015dbf0       ?getReferenceType@UnDecorator@@CA?AVDName@@AEBV2@0W4IndirectionKind@@@Z 000000018015ebf0 f i libvcruntime:undname.obj
 0001:0015dc08       ?getRestrictionSpec@UnDecorator@@CA?AVDName@@XZ 000000018015ec08 f   libvcruntime:undname.obj
 0001:0015ddd4       ?getReturnType@UnDecorator@@CA?AVDName@@PEAV2@@Z 000000018015edd4 f   libvcruntime:undname.obj
 0001:0015de08       ?getScope@UnDecorator@@CA?AVDName@@XZ 000000018015ee08 f   libvcruntime:undname.obj
 0001:0015e2bc       ?getScopedName@UnDecorator@@CA?AVDName@@XZ 000000018015f2bc f   libvcruntime:undname.obj
 0001:0015e3f8       ?getSignedDimension@UnDecorator@@CA?AVDName@@XZ 000000018015f3f8 f   libvcruntime:undname.obj
 0001:0015e480       ?getStorageConvention@UnDecorator@@CA?AVDName@@XZ 000000018015f480 f i libvcruntime:undname.obj
 0001:0015e4bc       ?getString@DName@@QEBAPEADPEAD0@Z 000000018015f4bc f i libvcruntime:undname.obj
 0001:0015e4d8       ?getString@DName@@QEBAPEADPEADH@Z 000000018015f4d8 f i libvcruntime:undname.obj
 0001:0015e56c       ?getString@DNameStatusNode@@UEBAPEADPEAD0@Z 000000018015f56c f i libvcruntime:undname.obj
 0001:0015e5b4       ?getString@charNode@@UEBAPEADPEAD0@Z 000000018015f5b4 f i libvcruntime:undname.obj
 0001:0015e5c8       ?getString@pDNameNode@@UEBAPEADPEAD0@Z 000000018015f5c8 f i libvcruntime:undname.obj
 0001:0015e5f8       ?getString@pairNode@@UEBAPEADPEAD0@Z 000000018015f5f8 f i libvcruntime:undname.obj
 0001:0015e644       ?getString@pcharNode@@UEBAPEADPEAD0@Z 000000018015f644 f i libvcruntime:undname.obj
 0001:0015e67c       ?getStringEncoding@UnDecorator@@CA?AVDName@@W4PrefixKind@@H@Z 000000018015f67c f   libvcruntime:undname.obj
 0001:0015e760       ?getStringHelper@@YAPEADPEADPEBD1H@Z 000000018015f760 f i libvcruntime:undname.obj
 0001:0015e790       ?getStringObject@UnDecorator@@CA?AVDName@@XZ 000000018015f790 f   libvcruntime:undname.obj
 0001:0015e7f8       ?getSymbolName@UnDecorator@@CA?AVDName@@XZ 000000018015f7f8 f i libvcruntime:undname.obj
 0001:0015e844       ?getTemplateArgumentList@UnDecorator@@CA?AVDName@@XZ 000000018015f844 f   libvcruntime:undname.obj
 0001:0015eab8       ?getTemplateName@UnDecorator@@CA?AVDName@@_N@Z 000000018015fab8 f   libvcruntime:undname.obj
 0001:0015ed4c       ?getTemplateNonTypeArgument@UnDecorator@@CA?AVDName@@XZ 000000018015fd4c f   libvcruntime:undname.obj
 0001:0015f280       ?getTemplateTypeArgument@UnDecorator@@CA?AVDName@@XZ 0000000180160280 f   libvcruntime:undname.obj
 0001:0015f3e8       ?getThisType@UnDecorator@@CA?AVDName@@XZ 00000001801603e8 f i libvcruntime:undname.obj
 0001:0015f428       ?getThrowTypes@UnDecorator@@CA?AVDName@@XZ 0000000180160428 f   libvcruntime:undname.obj
 0001:0015f44c       ?getTypeEncoding@UnDecorator@@CAHXZ 000000018016044c f i libvcruntime:undname.obj
 0001:0015f7dc       ?getUndecoratedName@UnDecorator@@QEAAPEADPEADH@Z 00000001801607dc f i libvcruntime:undname.obj
 0001:0015f930       ?getUnionObject@UnDecorator@@CA?AVDName@@XZ 0000000180160930 f   libvcruntime:undname.obj
 0001:0015fa08       ?getVCallThunkType@UnDecorator@@CA?AVDName@@XZ 0000000180160a08 f i libvcruntime:undname.obj
 0001:0015fa80       ?getValue@UnDecorator@@CA?AV?$optional@_K@std@@XZ 0000000180160a80 f   libvcruntime:undname.obj
 0001:0015faf4       ?getValueObject@UnDecorator@@CA?AVDName@@XZ 0000000180160af4 f   libvcruntime:undname.obj
 0001:0015fc4c       ?getVbTableType@UnDecorator@@CA?AVDName@@AEBV2@@Z 0000000180160c4c f i libvcruntime:undname.obj
 0001:0015fc64       ?getVdispMapType@UnDecorator@@CA?AVDName@@AEBV2@@Z 0000000180160c64 f i libvcruntime:undname.obj
 0001:0015fce0       ?getVfTableType@UnDecorator@@CA?AVDName@@AEBV2@@Z 0000000180160ce0 f i libvcruntime:undname.obj
 0001:0015fee8       ?getZName@UnDecorator@@CA?AVDName@@_N0@Z 0000000180160ee8 f   libvcruntime:undname.obj
 0001:001601d0       ?haveTemplateParameters@UnDecorator@@SAHXZ 00000001801611d0 f i libvcruntime:undname.obj
 0001:001601dc       ?isArray@DName@@QEBAHXZ    00000001801611dc f i libvcruntime:undname.obj
 0001:001601e8       ?isComArray@DName@@QEBAHXZ 00000001801611e8 f i libvcruntime:undname.obj
 0001:001601f4       ?isEmpty@DName@@QEBAHXZ    00000001801611f4 f i libvcruntime:undname.obj
 0001:00160200       ?isFull@Replicator@@QEBAHXZ 0000000180161200 f i libvcruntime:undname.obj
 0001:0016020c       ?isNoTE@DName@@QEBAHXZ     000000018016120c f i libvcruntime:undname.obj
 0001:00160218       ?isPinPtr@DName@@QEBAHXZ   0000000180161218 f i libvcruntime:undname.obj
 0001:00160224       ?isPtrRef@DName@@QEBAHXZ   0000000180161224 f i libvcruntime:undname.obj
 0001:00160230       ?isUDC@DName@@QEBAHXZ      0000000180161230 f i libvcruntime:undname.obj
 0001:00160248       ?isUDTThunk@DName@@QEBAHXZ 0000000180161248 f i libvcruntime:undname.obj
 0001:00160260       ?isVCallThunk@DName@@QEBAHXZ 0000000180161260 f i libvcruntime:undname.obj
 0001:0016026c       ?isValid@DName@@QEBAHXZ    000000018016126c f i libvcruntime:undname.obj
 0001:00160278       ?length@DName@@QEBAHXZ     0000000180161278 f i libvcruntime:undname.obj
 0001:00160290       ?length@DNameStatusNode@@UEBAHXZ 0000000180161290 f i libvcruntime:undname.obj
 0001:00160294       ?length@charNode@@UEBAHXZ  0000000180161294 f i libvcruntime:undname.obj
 0001:0016029c       ?length@pDNameNode@@UEBAHXZ 000000018016129c f i libvcruntime:undname.obj
 0001:001602c4       ?length@pairNode@@UEBAHXZ  00000001801612c4 f i libvcruntime:undname.obj
 0001:0016030c       ?length@pcharNode@@UEBAHXZ 000000018016130c f i libvcruntime:undname.obj
 0001:00160310       ?make@DNameStatusNode@@SAPEBV1@W4DNameStatus@@@Z 0000000180161310 f i libvcruntime:undname.obj
 0001:00160330       ?parseDecoratedName@UnDecorator@@CA?AVDName@@XZ 0000000180161330 f   libvcruntime:undname.obj
 0001:00160444       ?raw_length@DNameStatusNode@@UEBAHXZ 0000000180161444 f i libvcruntime:undname.obj
 0001:00160448       ?raw_length@charNode@@UEBAHXZ 0000000180161448 f i libvcruntime:undname.obj
 0001:00160450       ?raw_length@pDNameNode@@UEBAHXZ 0000000180161450 f i libvcruntime:undname.obj
 0001:00160454       ?raw_length@pairNode@@UEBAHXZ 0000000180161454 f i libvcruntime:undname.obj
 0001:00160458       ?raw_length@pcharNode@@UEBAHXZ 0000000180161458 f i libvcruntime:undname.obj
 0001:0016045c       ?setIsArray@DName@@QEAAXXZ 000000018016145c f i libvcruntime:undname.obj
 0001:00160464       ?setIsComArray@DName@@QEAAXXZ 0000000180161464 f i libvcruntime:undname.obj
 0001:0016046c       ?setIsNoTE@DName@@QEAAXXZ  000000018016146c f i libvcruntime:undname.obj
 0001:00160474       ?setIsPinPtr@DName@@QEAAXXZ 0000000180161474 f i libvcruntime:undname.obj
 0001:0016047c       ?setIsUDC@DName@@QEAAXXZ   000000018016147c f i libvcruntime:undname.obj
 0001:00160488       ?setIsVCallThunk@DName@@QEAAXXZ 0000000180161488 f i libvcruntime:undname.obj
 0001:00160490       ?setPtrRef@DName@@QEAAAEAV1@XZ 0000000180161490 f i libvcruntime:undname.obj
 0001:0016049c       ?status@DName@@QEBA?AW4DNameStatus@@XZ 000000018016149c f i libvcruntime:undname.obj
 0001:00160500       __unDName                  0000000180161500 f   libvcruntime:undname.obj
 0001:00160528       __unDNameEx                0000000180161528 f   libvcruntime:undname.obj
 0001:0016065c       _vsprintf_s_l              000000018016165c f i libvcruntime:undname.obj
 0001:001606c0       sprintf_s                  00000001801616c0 f i libvcruntime:undname.obj
 0001:00160714       unDNameGenerateCHPE        0000000180161714 f   libvcruntime:undname.obj
 0001:00160830       _NLG_Notify                0000000180161830 f   libvcruntime:notify.obj
 0001:00160850       __NLG_Dispatch2            0000000180161850 f   libvcruntime:notify.obj
 0001:00160860       __NLG_Return2              0000000180161860 f   libvcruntime:notify.obj
 0001:0016086c       __except_validate_context_record 000000018016186c f   libvcruntime:jbcxrval.obj
 0001:001608a4       __except_validate_jump_buffer 00000001801618a4 f   libvcruntime:jbcxrval.obj
 0001:001608e4       __except_validate_jump_buffer_common 00000001801618e4 f i libvcruntime:jbcxrval.obj
 0001:00160940       ??$?RU__vcrt_ptd@@@__crt_internal_free_policy@@QEBAXQEBU__vcrt_ptd@@@Z 0000000180161940 f i libvcruntime:per_thread_data.obj
 0001:00160948       ??0?$__crt_unique_heap_ptr@U__vcrt_ptd@@U__crt_internal_free_policy@@@@QEAA@QEAU__vcrt_ptd@@@Z 0000000180161948 f i libvcruntime:per_thread_data.obj
 0001:0016096c       ??1?$__crt_unique_heap_ptr@U__vcrt_ptd@@U__crt_internal_free_policy@@@@QEAA@XZ 000000018016196c f i libvcruntime:per_thread_data.obj
 0001:00160994       ??B?$__crt_unique_heap_ptr@U__vcrt_ptd@@U__crt_internal_free_policy@@@@QEBA_NXZ 0000000180161994 f i libvcruntime:per_thread_data.obj
 0001:0016099c       ?detach@?$__crt_unique_heap_ptr@U__vcrt_ptd@@U__crt_internal_free_policy@@@@QEAAPEAU__vcrt_ptd@@XZ 000000018016199c f i libvcruntime:per_thread_data.obj
 0001:001609a4       ?get@?$__crt_unique_heap_ptr@U__vcrt_ptd@@U__crt_internal_free_policy@@@@QEBAPEAU__vcrt_ptd@@XZ 00000001801619a4 f i libvcruntime:per_thread_data.obj
 0001:001609a8       ?is_valid@?$__crt_unique_heap_ptr@U__vcrt_ptd@@U__crt_internal_free_policy@@@@QEBA_NXZ 00000001801619a8 f i libvcruntime:per_thread_data.obj
 0001:001609b0       ?release@?$__crt_unique_heap_ptr@U__vcrt_ptd@@U__crt_internal_free_policy@@@@QEAAXXZ 00000001801619b0 f i libvcruntime:per_thread_data.obj
 0001:001609f8       __vcrt_freefls             00000001801619f8 f   libvcruntime:per_thread_data.obj
 0001:00160a18       __vcrt_freeptd             0000000180161a18 f   libvcruntime:per_thread_data.obj
 0001:00160a68       __vcrt_getptd              0000000180161a68 f   libvcruntime:per_thread_data.obj
 0001:00160a84       __vcrt_getptd_noexit       0000000180161a84 f   libvcruntime:per_thread_data.obj
 0001:00160b44       __vcrt_getptd_noinit       0000000180161b44 f   libvcruntime:per_thread_data.obj
 0001:00160b94       __vcrt_initialize_ptd      0000000180161b94 f   libvcruntime:per_thread_data.obj
 0001:00160bdc       __vcrt_uninitialize_ptd    0000000180161bdc f   libvcruntime:per_thread_data.obj
 0001:00160c00       __vcrt_initialize_locks    0000000180161c00 f   libvcruntime:locks.obj
 0001:00160c34       __vcrt_lock                0000000180161c34 f   libvcruntime:locks.obj
 0001:00160c50       __vcrt_uninitialize_locks  0000000180161c50 f   libvcruntime:locks.obj
 0001:00160c88       __vcrt_unlock              0000000180161c88 f   libvcruntime:locks.obj
 0001:00160ca4       ??$?0AEAViterator@TryBlockMap4@FH4@@AEAV012@$0A@@?$pair@Viterator@TryBlockMap4@FH4@@V123@@std@@QEAA@AEAViterator@TryBlockMap4@FH4@@0@Z 0000000180161ca4 f i libvcruntime:risctrnsctrl.obj
 0001:00160cb8       ??$?0AEAViterator@TryBlockMap@__FrameHandler3@@AEAV012@$0A@@?$pair@Viterator@TryBlockMap@__FrameHandler3@@V123@@std@@QEAA@AEAViterator@TryBlockMap@__FrameHandler3@@0@Z 0000000180161cb8 f i libvcruntime:risctrnsctrl.obj
 0001:00160e08       ??$_CallSETranslator@V__FrameHandler3@@@@YAHPEAUEHExceptionRecord@@PEA_KPEAU_CONTEXT@@PEAU_xDISPATCHER_CONTEXT@@PEBU_s_FuncInfo@@K1H@Z 0000000180161e08 f i libvcruntime:risctrnsctrl.obj
 0001:00160e5c       ??$_CallSETranslator@V__FrameHandler4@@@@YAHPEAUEHExceptionRecord@@PEA_KPEAU_CONTEXT@@PEAU_xDISPATCHER_CONTEXT@@PEAUFuncInfo4@FH4@@K1H@Z 0000000180161e5c f i libvcruntime:risctrnsctrl.obj
 0001:00160eb0       ??$forward@AEAViterator@TryBlockMap4@FH4@@@std@@YAAEAViterator@TryBlockMap4@FH4@@AEAV123@@Z 0000000180161eb0 f i libvcruntime:risctrnsctrl.obj
 0001:00160eb4       ??$forward@AEAViterator@TryBlockMap@__FrameHandler3@@@std@@YAAEAViterator@TryBlockMap@__FrameHandler3@@AEAV123@@Z 0000000180161eb4 f i libvcruntime:risctrnsctrl.obj
 0001:00160eb8       ??0FuncInfo4@FH4@@QEAA@XZ  0000000180161eb8 f i libvcruntime:risctrnsctrl.obj
 0001:00160ecc       ??0FuncInfoHeader@FH4@@QEAA@XZ 0000000180161ecc f i libvcruntime:risctrnsctrl.obj
 0001:00160ed4       ??0iterator@TryBlockMap4@FH4@@QEAA@AEAV12@I@Z 0000000180161ed4 f i libvcruntime:risctrnsctrl.obj
 0001:00160ee0       ??0iterator@TryBlockMap@__FrameHandler3@@QEAA@AEAV12@I@Z 0000000180161ee0 f i libvcruntime:risctrnsctrl.obj
 0001:00160eec       ??4iterator@TryBlockMap4@FH4@@QEAAAEAV012@AEBV012@@Z 0000000180161eec f i libvcruntime:risctrnsctrl.obj
 0001:00160ef8       ??9iterator@TryBlockMap4@FH4@@QEBA_NAEBV012@@Z 0000000180161ef8 f i libvcruntime:risctrnsctrl.obj
 0001:00160f04       ??Diterator@TryBlockMap4@FH4@@QEAA?AUTryBlockMapEntry4@2@XZ 0000000180161f04 f i libvcruntime:risctrnsctrl.obj
 0001:00160f14       ??Eiterator@TryBlockMap4@FH4@@QEAAAEAV012@XZ 0000000180161f14 f i libvcruntime:risctrnsctrl.obj
 0001:00160fb0       ?CatchTryBlock@__FrameHandler3@@SAPEBU_s_TryBlockMapEntry@@PEBU_s_FuncInfo@@H@Z 0000000180161fb0 f   libvcruntime:risctrnsctrl.obj
 0001:00161004       ?DecompFuncInfo@FH4@@YA_JPEAEAEAUFuncInfo4@1@_KH@Z 0000000180162004 f i libvcruntime:risctrnsctrl.obj
 0001:00161018       ?DecompFuncInfo@FH4@@YA_JPEAEAEAUFuncInfo4@1@_KH_N@Z 0000000180162018 f i libvcruntime:risctrnsctrl.obj
 0001:0016113c       ?DecompTryBlock@TryBlockMap4@FH4@@AEAAXXZ 000000018016213c f i libvcruntime:risctrnsctrl.obj
 0001:001611d0       ?ExecutionInCatch@__FrameHandler3@@SA_NPEAU_xDISPATCHER_CONTEXT@@PEBU_s_FuncInfo@@@Z 00000001801621d0 f   libvcruntime:risctrnsctrl.obj
 0001:001611fc       ?ExecutionInCatch@__FrameHandler4@@SA_NPEAU_xDISPATCHER_CONTEXT@@PEAUFuncInfo4@FH4@@@Z 00000001801621fc f   libvcruntime:risctrnsctrl.obj
 0001:00161204       ?FrameUnwindToEmptyState@__FrameHandler3@@SAXPEA_KPEAU_xDISPATCHER_CONTEXT@@PEBU_s_FuncInfo@@@Z 0000000180162204 f   libvcruntime:risctrnsctrl.obj
 0001:00161268       ?FrameUnwindToEmptyState@__FrameHandler4@@SAXPEA_KPEAU_xDISPATCHER_CONTEXT@@PEAUFuncInfo4@FH4@@@Z 0000000180162268 f   libvcruntime:risctrnsctrl.obj
 0001:0016129c       ?GetEstablisherFrame@__FrameHandler3@@SAPEA_KPEA_KPEAU_xDISPATCHER_CONTEXT@@PEBU_s_FuncInfo@@0@Z 000000018016229c f   libvcruntime:risctrnsctrl.obj
 0001:00161368       ?GetEstablisherFrame@__FrameHandler4@@SAPEA_KPEA_KPEAU_xDISPATCHER_CONTEXT@@PEAUFuncInfo4@FH4@@0@Z 0000000180162368 f   libvcruntime:risctrnsctrl.obj
 0001:0016138c       ?GetRangeOfTrysToCheck@__FrameHandler3@@SA?AU?$pair@Viterator@TryBlockMap@__FrameHandler3@@V123@@std@@AEAVTryBlockMap@1@HPEAU_xDISPATCHER_CONTEXT@@PEBU_s_FuncInfo@@H@Z 000000018016238c f   libvcruntime:risctrnsctrl.obj
 0001:001614cc       ?GetRangeOfTrysToCheck@__FrameHandler4@@SA?AU?$pair@Viterator@TryBlockMap4@FH4@@V123@@std@@AEAVTryBlockMap4@FH4@@HPEAU_xDISPATCHER_CONTEXT@@PEAUFuncInfo4@5@H@Z 00000001801624cc f   libvcruntime:risctrnsctrl.obj
 0001:00161634       ?ReadInt@FH4@@YAHPEAPEAE@Z 0000000180162634 f i libvcruntime:risctrnsctrl.obj
 0001:00161644       ?ReadUnsigned@FH4@@YAIPEAPEAE@Z 0000000180162644 f i libvcruntime:risctrnsctrl.obj
 0001:00161674       ?UnwindNestedFrames@__FrameHandler3@@SAXPEA_KPEAUEHExceptionRecord@@PEAU_CONTEXT@@0PEAXPEBU_s_FuncInfo@@HHPEBU_s_HandlerType@@PEAU_xDISPATCHER_CONTEXT@@E@Z 0000000180162674 f   libvcruntime:risctrnsctrl.obj
 0001:00161778       ?UnwindNestedFrames@__FrameHandler4@@SAXPEA_KPEAUEHExceptionRecord@@PEAU_CONTEXT@@0PEAXPEAUFuncInfo4@FH4@@HHPEAUHandlerType4@5@PEAU_xDISPATCHER_CONTEXT@@E@Z 0000000180162778 f   libvcruntime:risctrnsctrl.obj
 0001:00161898       ?begin@TryBlockMap4@FH4@@QEAA?AViterator@12@XZ 0000000180162898 f i libvcruntime:risctrnsctrl.obj
 0001:001618a4       ?end@TryBlockMap4@FH4@@QEAA?AViterator@12@XZ 00000001801628a4 f i libvcruntime:risctrnsctrl.obj
 0001:001618b0       ?imageRelToByteBuffer@FH4@@YAPEAE_KH@Z 00000001801628b0 f i libvcruntime:risctrnsctrl.obj
 0001:001618b8       ?incrementToSentinel@iterator@TryBlockMap4@FH4@@QEAAXXZ 00000001801628b8 f i libvcruntime:risctrnsctrl.obj
 0001:001618bc       ?setBuffer@TryBlockMap4@FH4@@QEAAXViterator@12@@Z 00000001801628bc f i libvcruntime:risctrnsctrl.obj
 0001:00161a7c       _CreateFrameInfo           0000000180162a7c f   libvcruntime:risctrnsctrl.obj
 0001:00161ab8       _FindAndUnlinkFrame        0000000180162ab8 f   libvcruntime:risctrnsctrl.obj
 0001:00161b0c       _GetImageBase              0000000180162b0c f   libvcruntime:risctrnsctrl.obj
 0001:00161b20       _GetThrowImageBase         0000000180162b20 f   libvcruntime:risctrnsctrl.obj
 0001:00161b34       _SetImageBase              0000000180162b34 f   libvcruntime:risctrnsctrl.obj
 0001:00161b4c       _SetThrowImageBase         0000000180162b4c f   libvcruntime:risctrnsctrl.obj
 0001:00161b64       __CxxFrameHandler          0000000180162b64 f   libvcruntime:risctrnsctrl.obj
 0001:00161b6c       __CxxFrameHandler2         0000000180162b6c f   libvcruntime:risctrnsctrl.obj
 0001:00161b74       __CxxFrameHandler3         0000000180162b74 f   libvcruntime:risctrnsctrl.obj
 0001:00161bfc       __CxxFrameHandler4         0000000180162bfc f   libvcruntime:risctrnsctrl.obj
 0001:00161cbc       ??$__crt_interlocked_exchange_pointer@UHINSTANCE__@@PEAU1@@@YAPEAUHINSTANCE__@@PEDSEAU0@QEAU0@@Z 0000000180162cbc f i libvcruntime:winapi_downlevel.obj
 0001:00161cc4       ??$__crt_interlocked_exchange_pointer@UHINSTANCE__@@PEAX@@YAPEAUHINSTANCE__@@PEDSEAU0@QEAX@Z 0000000180162cc4 f i libvcruntime:winapi_downlevel.obj
 0001:00161ccc       ??$__crt_interlocked_exchange_pointer@XPEAX@@YAPEAXPEDSEAXQEAX@Z 0000000180162ccc f i libvcruntime:winapi_downlevel.obj
 0001:00161cd4       ??$__crt_interlocked_read_pointer@UHINSTANCE__@@@@YAPEAUHINSTANCE__@@PEDSEAU0@@Z 0000000180162cd4 f i libvcruntime:winapi_downlevel.obj
 0001:00161cdc       ??$__crt_interlocked_read_pointer@X@@YAPEAXPEDSEAX@Z 0000000180162cdc f i libvcruntime:winapi_downlevel.obj
 0001:0016221c       __vcrt_FlsAlloc            000000018016321c f   libvcruntime:winapi_downlevel.obj
 0001:00162264       __vcrt_FlsFree             0000000180163264 f   libvcruntime:winapi_downlevel.obj
 0001:001622ac       __vcrt_FlsGetValue         00000001801632ac f   libvcruntime:winapi_downlevel.obj
 0001:001622f4       __vcrt_FlsSetValue         00000001801632f4 f   libvcruntime:winapi_downlevel.obj
 0001:00162348       __vcrt_InitializeCriticalSectionEx 0000000180163348 f   libvcruntime:winapi_downlevel.obj
 0001:001623ac       ?GetCurrentState@__FrameHandler3@@SAHPEA_KPEAU_xDISPATCHER_CONTEXT@@PEBU_s_FuncInfo@@@Z 00000001801633ac f   libvcruntime:ehstate.obj
 0001:001623d4       ?GetUnwindTryBlock@__FrameHandler3@@SAHPEA_KPEAU_xDISPATCHER_CONTEXT@@PEBU_s_FuncInfo@@@Z 00000001801633d4 f   libvcruntime:ehstate.obj
 0001:00162400       ?SetState@__FrameHandler3@@SAXPEA_KPEBU_s_FuncInfo@@H@Z 0000000180163400 f   libvcruntime:ehstate.obj
 0001:0016240c       ?SetUnwindTryBlock@__FrameHandler3@@SAXPEA_KPEAU_xDISPATCHER_CONTEXT@@PEBU_s_FuncInfo@@H@Z 000000018016340c f   libvcruntime:ehstate.obj
 0001:00162448       ?StateFromControlPc@__FrameHandler3@@SAHPEBU_s_FuncInfo@@PEAU_xDISPATCHER_CONTEXT@@@Z 0000000180163448 f   libvcruntime:ehstate.obj
 0001:00162450       ?StateFromControlPc@__FrameHandler4@@SAHPEAUFuncInfo4@FH4@@PEAU_xDISPATCHER_CONTEXT@@@Z 0000000180163450 f   libvcruntime:ehstate.obj
 0001:00162458       ?StateFromIp@__FrameHandler3@@SAHPEBU_s_FuncInfo@@PEAU_xDISPATCHER_CONTEXT@@_K@Z 0000000180163458 f   libvcruntime:ehstate.obj
 0001:001624c0       ?StateFromIp@__FrameHandler4@@SAHPEAUFuncInfo4@FH4@@PEAU_xDISPATCHER_CONTEXT@@_K@Z 00000001801634c0 f   libvcruntime:ehstate.obj
 0001:001625a8       ?__FuncRelToRealOffset@@YA_KPEAU_xDISPATCHER_CONTEXT@@I@Z 00000001801635a8 f i libvcruntime:ehstate.obj
 0001:001625b8       ?__RVAtoRealOffset@@YA_KPEAU_xDISPATCHER_CONTEXT@@H@Z 00000001801635b8 f i libvcruntime:ehstate.obj
 0001:00163bc0       ??$TypeMatchHelper@V__FrameHandler3@@@@YAHPEBU_s_HandlerType@@PEBU_s_CatchableType@@PEBU_s_ThrowInfo@@@Z 0000000180164bc0 f i libvcruntime:frame.obj
 0001:00163d00       ??$TypeMatchHelper@V__FrameHandler4@@@@YAHPEAUHandlerType4@FH4@@PEBU_s_CatchableType@@PEBU_s_ThrowInfo@@@Z 0000000180164d00 f i libvcruntime:frame.obj
 0001:00163e44       ??$__InternalCxxFrameHandler@V__FrameHandler3@@@@YA?AW4_EXCEPTION_DISPOSITION@@PEAUEHExceptionRecord@@PEA_KPEAU_CONTEXT@@PEAU_xDISPATCHER_CONTEXT@@PEBU_s_FuncInfo@@H1E@Z 0000000180164e44 f i libvcruntime:frame.obj
 0001:0016407c       ??$__InternalCxxFrameHandler@V__FrameHandler4@@@@YA?AW4_EXCEPTION_DISPOSITION@@PEAUEHExceptionRecord@@PEA_KPEAU_CONTEXT@@PEAU_xDISPATCHER_CONTEXT@@PEAUFuncInfo4@FH4@@H1E@Z 000000018016507c f i libvcruntime:frame.obj
 0001:00164310       ??0HandlerMap4@FH4@@QEAA@PEBUTryBlockMapEntry4@1@_KH@Z 0000000180165310 f i libvcruntime:frame.obj
 0001:0016438c       ??0HandlerMap@__FrameHandler3@@QEAA@PEBU_s_TryBlockMapEntry@@_KI@Z 000000018016538c f i libvcruntime:frame.obj
 0001:001643a0       ??0HandlerType4@FH4@@QEAA@XZ 00000001801653a0 f i libvcruntime:frame.obj
 0001:001643b8       ??0TryBlockMap4@FH4@@QEAA@PEBUFuncInfo4@1@_K@Z 00000001801653b8 f i libvcruntime:frame.obj
 0001:00164490       ??0TryBlockMap@__FrameHandler3@@QEAA@PEBU_s_FuncInfo@@_K@Z 0000000180165490 f i libvcruntime:frame.obj
 0001:0016449c       ??0UWMap4@FH4@@QEAA@PEBUFuncInfo4@1@_K@Z 000000018016549c f i libvcruntime:frame.obj
 0001:001644e0       ??0bad_exception@std@@QEAA@AEBV01@@Z 00000001801654e0 f i libvcruntime:frame.obj
 0001:0016451c       ??0bad_exception@std@@QEAA@XZ 000000018016551c f i libvcruntime:frame.obj
 0001:0016453c       ??0exception@std@@QEAA@AEBV01@@Z 000000018016553c f i libvcruntime:frame.obj
 0001:00164570       ??0exception@std@@QEAA@QEBDH@Z 0000000180165570 f i libvcruntime:frame.obj
 0001:00164588       ??0iterator@HandlerMap4@FH4@@QEAA@AEAV12@I@Z 0000000180165588 f i libvcruntime:frame.obj
 0001:00164594       ??0iterator@HandlerMap@__FrameHandler3@@QEAA@AEAV12@I@Z 0000000180165594 f i libvcruntime:frame.obj
 0001:001645a0       ??0iterator@UWMap4@FH4@@QEAA@AEAV12@PEAE@Z 00000001801655a0 f i libvcruntime:frame.obj
 0001:001645ac       ??1bad_exception@std@@UEAA@XZ 00000001801655ac f i libvcruntime:frame.obj
 0001:001645c0       ??1exception@std@@UEAA@XZ  00000001801655c0 f i libvcruntime:frame.obj
 0001:001645d4       ??4iterator@UWMap4@FH4@@QEAAAEAV012@AEBV012@@Z 00000001801655d4 f i libvcruntime:frame.obj
 0001:001645f4       ??8iterator@HandlerMap4@FH4@@QEBA_NAEBV012@@Z 00000001801655f4 f i libvcruntime:frame.obj
 0001:00164600       ??8iterator@HandlerMap@__FrameHandler3@@QEBA_NAEBV012@@Z 0000000180165600 f i libvcruntime:frame.obj
 0001:0016460c       ??8type_info@@QEBA_NAEBV0@@Z 000000018016560c f i libvcruntime:frame.obj
 0001:00164628       ??9iterator@HandlerMap4@FH4@@QEBA_NAEBV012@@Z 0000000180165628 f i libvcruntime:frame.obj
 0001:00164634       ??9iterator@HandlerMap@__FrameHandler3@@QEBA_NAEBV012@@Z 0000000180165634 f i libvcruntime:frame.obj
 0001:00164640       ??Diterator@HandlerMap4@FH4@@QEAA?AUHandlerType4@2@XZ 0000000180165640 f i libvcruntime:frame.obj
 0001:00164660       ??Diterator@HandlerMap@__FrameHandler3@@QEAA?BU_s_HandlerType@@XZ 0000000180165660 f i libvcruntime:frame.obj
 0001:00164684       ??Diterator@TryBlockMap@__FrameHandler3@@QEAA?BU_s_TryBlockMapEntry@@XZ 0000000180165684 f i libvcruntime:frame.obj
 0001:001646b4       ??Diterator@UWMap4@FH4@@QEAA?AUUnwindMapEntry4@2@XZ 00000001801656b4 f i libvcruntime:frame.obj
 0001:00164708       ??Eiterator@HandlerMap4@FH4@@QEAAAEAV012@XZ 0000000180165708 f i libvcruntime:frame.obj
 0001:00164728       ??Eiterator@HandlerMap@__FrameHandler3@@QEAAAEAV012@XZ 0000000180165728 f i libvcruntime:frame.obj
 0001:00164730       ??Eiterator@TryBlockMap@__FrameHandler3@@QEAAAEAV012@XZ 0000000180165730 f i libvcruntime:frame.obj
 0001:00164738       ??Eiterator@UWMap4@FH4@@QEAAAEAV012@XZ 0000000180165738 f i libvcruntime:frame.obj
 0001:00164758       ??Giterator@UWMap4@FH4@@QEBA_JAEBV012@@Z 0000000180165758 f i libvcruntime:frame.obj
 0001:00164764       ??Miterator@TryBlockMap4@FH4@@QEBA_NAEBV012@@Z 0000000180165764 f i libvcruntime:frame.obj
 0001:00164770       ??Miterator@TryBlockMap@__FrameHandler3@@QEBA_NAEBV012@@Z 0000000180165770 f i libvcruntime:frame.obj
 0001:0016477c       ??Oiterator@UWMap4@FH4@@QEBA_NAEBV012@@Z 000000018016577c f i libvcruntime:frame.obj
 0001:00164788       ??Piterator@UWMap4@FH4@@QEBA_NAEBV012@@Z 0000000180165788 f i libvcruntime:frame.obj
 0001:00164794       ??_Ebad_exception@std@@UEAAPEAXI@Z 0000000180165794 f i libvcruntime:frame.obj
 0001:00164794       ??_Gbad_exception@std@@UEAAPEAXI@Z 0000000180165794 f i libvcruntime:frame.obj
 0001:001647d8       ??_Eexception@std@@UEAAPEAXI@Z 00000001801657d8 f i libvcruntime:frame.obj
 0001:001647d8       ??_Gexception@std@@UEAAPEAXI@Z 00000001801657d8 f i libvcruntime:frame.obj
 0001:0016481c       ?BuildCatchObject@__FrameHandler3@@SAXPEAUEHExceptionRecord@@PEAXPEBU_s_HandlerType@@PEBU_s_CatchableType@@@Z 000000018016581c f   libvcruntime:frame.obj
 0001:00164824       ?BuildCatchObject@__FrameHandler4@@SAXPEAUEHExceptionRecord@@PEAXPEAUHandlerType4@FH4@@PEBU_s_CatchableType@@@Z 0000000180165824 f   libvcruntime:frame.obj
 0001:0016482c       ?BuildCatchObjectHelper@__FrameHandler3@@SAHPEAUEHExceptionRecord@@PEAXPEBU_s_HandlerType@@PEBU_s_CatchableType@@@Z 000000018016582c f   libvcruntime:frame.obj
 0001:00164834       ?BuildCatchObjectHelper@__FrameHandler4@@SAHPEAUEHExceptionRecord@@PEAXPEAUHandlerType4@FH4@@PEBU_s_CatchableType@@@Z 0000000180165834 f   libvcruntime:frame.obj
 0001:0016483c       ?CxxCallCatchBlock@__FrameHandler3@@SAPEAXPEAU_EXCEPTION_RECORD@@@Z 000000018016583c f   libvcruntime:frame.obj
 0001:00164a28       ?CxxCallCatchBlock@__FrameHandler4@@SAPEAXPEAU_EXCEPTION_RECORD@@@Z 0000000180165a28 f   libvcruntime:frame.obj
 0001:00164c78       ?DecompHandler@HandlerMap4@FH4@@AEAAXXZ 0000000180165c78 f i libvcruntime:frame.obj
 0001:00164eb8       ?FrameUnwindToState@__FrameHandler3@@SAXPEA_KPEAU_xDISPATCHER_CONTEXT@@PEBU_s_FuncInfo@@H@Z 0000000180165eb8 f   libvcruntime:frame.obj
 0001:00165044       ?FrameUnwindToState@__FrameHandler4@@SAXPEA_KPEAU_xDISPATCHER_CONTEXT@@PEAUFuncInfo4@FH4@@H@Z 0000000180166044 f   libvcruntime:frame.obj
 0001:0016532c       ?GetHandlerSearchState@__FrameHandler3@@SAHPEA_KPEAU_xDISPATCHER_CONTEXT@@PEBU_s_FuncInfo@@@Z 000000018016632c f i libvcruntime:frame.obj
 0001:001653c4       ?GetHandlerSearchState@__FrameHandler4@@SAHPEA_KPEAU_xDISPATCHER_CONTEXT@@PEAUFuncInfo4@FH4@@@Z 00000001801663c4 f i libvcruntime:frame.obj
 0001:00165428       ?GetMaxState@__FrameHandler3@@SAHPEAU_xDISPATCHER_CONTEXT@@PEBU_s_FuncInfo@@@Z 0000000180166428 f i libvcruntime:frame.obj
 0001:0016542c       ?GetMaxState@__FrameHandler4@@SAHPEAU_xDISPATCHER_CONTEXT@@PEAUFuncInfo4@FH4@@@Z 000000018016642c f i libvcruntime:frame.obj
 0001:001655dc       ?ReadEntry@UWMap4@FH4@@AEAAXPEAPEAE@Z 00000001801665dc f i libvcruntime:frame.obj
 0001:0016567c       ?TypeMatch@__FrameHandler3@@SAHPEBU_s_HandlerType@@PEBU_s_CatchableType@@PEBU_s_ThrowInfo@@@Z 000000018016667c f   libvcruntime:frame.obj
 0001:00165684       ?TypeMatch@__FrameHandler4@@SAHPEAUHandlerType4@FH4@@PEBU_s_CatchableType@@PEBU_s_ThrowInfo@@@Z 0000000180166684 f   libvcruntime:frame.obj
 0001:0016568c       ?WalkBack@UWMap4@FH4@@AEAAXPEAPEAE@Z 000000018016668c f i libvcruntime:frame.obj
 0001:001656c4       ?WalkBack@iterator@UWMap4@FH4@@QEAAXXZ 00000001801666c4 f i libvcruntime:frame.obj
 0001:00165704       ?WalkForward@UWMap4@FH4@@AEAAXPEAPEAE@Z 0000000180166704 f i libvcruntime:frame.obj
 0001:0016570c       ?_CallMemberFunction1@@YAXQEAX00@Z 000000018016670c f i libvcruntime:frame.obj
 0001:00165718       ?_CallMemberFunction2@@YAXQEAX00H@Z 0000000180166718 f i libvcruntime:frame.obj
 0001:0016573c       ?begin@HandlerMap4@FH4@@QEAA?AViterator@12@XZ 000000018016673c f i libvcruntime:frame.obj
 0001:00165748       ?begin@HandlerMap@__FrameHandler3@@QEAA?AViterator@12@XZ 0000000180166748 f i libvcruntime:frame.obj
 0001:00165754       ?begin@UWMap4@FH4@@QEAA?AViterator@12@XZ 0000000180166754 f i libvcruntime:frame.obj
 0001:00165764       ?end@HandlerMap4@FH4@@QEAA?AViterator@12@XZ 0000000180166764 f i libvcruntime:frame.obj
 0001:00165770       ?end@HandlerMap@__FrameHandler3@@QEAA?AViterator@12@XZ 0000000180166770 f i libvcruntime:frame.obj
 0001:0016577c       ?getESTypes@__FrameHandler3@@SAPEBU_s_ESTypeList@@PEBU_s_FuncInfo@@@Z 000000018016677c f i libvcruntime:frame.obj
 0001:001657a4       ?getESTypes@__FrameHandler4@@SAPEBU_s_ESTypeList@@PEAUFuncInfo4@FH4@@@Z 00000001801667a4 f i libvcruntime:frame.obj
 0001:001657a8       ?getLastEntry@HandlerMap4@FH4@@QEAAPEAUHandlerType4@2@XZ 00000001801667a8 f i libvcruntime:frame.obj
 0001:001657f8       ?getLastEntry@HandlerMap@__FrameHandler3@@QEAAPEBU_s_HandlerType@@XZ 00000001801667f8 f i libvcruntime:frame.obj
 0001:0016580c       ?getMagicNum@__FrameHandler3@@SAIPEBU_s_FuncInfo@@@Z 000000018016680c f i libvcruntime:frame.obj
 0001:00165814       ?getMagicNum@__FrameHandler4@@SAIPEAUFuncInfo4@FH4@@@Z 0000000180166814 f i libvcruntime:frame.obj
 0001:0016581c       ?getNumTryBlocks@TryBlockMap4@FH4@@QEAAIXZ 000000018016681c f i libvcruntime:frame.obj
 0001:00165820       ?getNumTryBlocks@TryBlockMap@__FrameHandler3@@QEAAIXZ 0000000180166820 f i libvcruntime:frame.obj
 0001:00165828       ?getStartStop@UWMap4@FH4@@QEAAXHHAEAViterator@12@0@Z 0000000180166828 f i libvcruntime:frame.obj
 0001:001658f8       ?getStateFromIterators@UWMap4@FH4@@SAHAEBViterator@12@H0H0@Z 00000001801668f8 f i libvcruntime:frame.obj
 0001:001659c0       ?isEHs@__FrameHandler3@@SA_NPEBU_s_FuncInfo@@@Z 00000001801669c0 f i libvcruntime:frame.obj
 0001:001659c8       ?isEHs@__FrameHandler4@@SA_NPEAUFuncInfo4@FH4@@@Z 00000001801669c8 f i libvcruntime:frame.obj
 0001:001659d0       ?isNoExcept@__FrameHandler3@@SA_NPEBU_s_FuncInfo@@@Z 00000001801669d0 f i libvcruntime:frame.obj
 0001:001659dc       ?isNoExcept@__FrameHandler4@@SA_NPEAUFuncInfo4@FH4@@@Z 00000001801669dc f i libvcruntime:frame.obj
 0001:001659e4       ?reset@HandlerType4@FH4@@QEAAXXZ 00000001801669e4 f i libvcruntime:frame.obj
 0001:001659f8       ?resetBuffer@HandlerMap4@FH4@@QEAAXXZ 00000001801669f8 f i libvcruntime:frame.obj
 0001:00165a08       ?setBuffer@HandlerMap4@FH4@@QEAAXI@Z 0000000180166a08 f i libvcruntime:frame.obj
 0001:00165a44       ?what@exception@std@@UEBAPEBDXZ 0000000180166a44 f i libvcruntime:frame.obj
 0001:00165a58       __BuildCatchObject         0000000180166a58 f   libvcruntime:frame.obj
 0001:00165a60       __BuildCatchObjectHelper   0000000180166a60 f   libvcruntime:frame.obj
 0001:00165a68       __TypeMatch                0000000180166a68 f   libvcruntime:frame.obj
 0001:00165a70       __vcrt_EncodePointer       0000000180166a70 f i libvcruntime:frame.obj
 0001:00165a90       _CallSettingFrame          0000000180166a90 f   libvcruntime:handlers.obj
 0001:00165ae0       _CallSettingFrame_LookupContinuationIndex 0000000180166ae0 f   libvcruntime:handlers.obj
 0001:00165b10       _CallSettingFrame_NotifyContinuationAddr 0000000180166b10 f   libvcruntime:handlers.obj
 0001:00165b40       _CallSettingFrameEncoded   0000000180166b40 f   libvcruntime:handlers.obj
 0001:00165b88       ??$?RD@__crt_public_free_policy@@QEBAXQEBD@Z 0000000180166b88 f i libvcruntime:std_exception.obj
 0001:00165b90       ??0?$__crt_unique_heap_ptr@DU__crt_public_free_policy@@@@QEAA@QEAD@Z 0000000180166b90 f i libvcruntime:std_exception.obj
 0001:00165b98       ??1?$__crt_unique_heap_ptr@DU__crt_public_free_policy@@@@QEAA@XZ 0000000180166b98 f i libvcruntime:std_exception.obj
 0001:00165bb4       ??B?$__crt_unique_heap_ptr@DU__crt_public_free_policy@@@@QEBA_NXZ 0000000180166bb4 f i libvcruntime:std_exception.obj
 0001:00165bbc       ?detach@?$__crt_unique_heap_ptr@DU__crt_public_free_policy@@@@QEAAPEADXZ 0000000180166bbc f i libvcruntime:std_exception.obj
 0001:00165bc4       ?get@?$__crt_unique_heap_ptr@DU__crt_public_free_policy@@@@QEBAPEADXZ 0000000180166bc4 f i libvcruntime:std_exception.obj
 0001:00165bc8       ?is_valid@?$__crt_unique_heap_ptr@DU__crt_public_free_policy@@@@QEBA_NXZ 0000000180166bc8 f i libvcruntime:std_exception.obj
 0001:00165bd0       ?release@?$__crt_unique_heap_ptr@DU__crt_public_free_policy@@@@QEAAXXZ 0000000180166bd0 f i libvcruntime:std_exception.obj
 0001:00165bec       __std_exception_copy       0000000180166bec f   libvcruntime:std_exception.obj
 0001:00165c7c       __std_exception_destroy    0000000180166c7c f   libvcruntime:std_exception.obj
 0001:00165ca4       _CxxThrowException         0000000180166ca4 f   libvcruntime:throw.obj
 0001:00165d50       cosf                       0000000180166d50 f   libucrt:cosf.obj
 0001:00166250       sinf                       0000000180167250 f   libucrt:sinf.obj
 0001:00166950       tanf                       0000000180167950 f   libucrt:tanf.obj
 0001:00166fe0       strcmp                     0000000180167fe0 f   libucrt:strcmp.obj
 0001:00167048       _fpclass                   0000000180168048 f   libucrt:ieeemisc.obj
 0001:001670d0       _fpclassf                  00000001801680d0 f   libucrt:ieeemisc.obj
 0001:0016713c       _isnan                     000000018016813c f   libucrt:ieeemisc.obj
 0001:00167168       _isnanf                    0000000180168168 f   libucrt:ieeemisc.obj
 0001:00167184       _nextafter                 0000000180168184 f   libucrt:ieeemisc.obj
 0001:0016718c       _nextafterf                000000018016818c f   libucrt:ieeemisc.obj
 0001:00167194       _scalb                     0000000180168194 f   libucrt:ieeemisc.obj
 0001:00167340       _scalbf                    0000000180168340 f   libucrt:ieeemisc.obj
 0001:001674e0       free                       00000001801684e0 f   libucrt:free.obj
 0001:001674f4       _initterm                  00000001801684f4 f   libucrt:initterm.obj
 0001:00167558       _initterm_e                0000000180168558 f   libucrt:initterm.obj
 0001:001675b8       _seh_filter_dll            00000001801685b8 f   libucrt:exception_filter.obj
 0001:001675cc       _seh_filter_exe            00000001801685cc f   libucrt:exception_filter.obj
 0001:00167750       ??$?B$$A6AXPEAXK0@Z@__crt_fast_encoded_nullptr_t@@QEBAP6AXPEAXK0@ZXZ 0000000180168750 f i libucrt:exit.obj
 0001:001677b8       ??$__crt_fast_decode_pointer@P6AXPEAXK0@Z@@YAP6AXPEAXK0@ZQ6AX0K0@Z@Z 00000001801687b8 f i libucrt:exit.obj
 0001:001677d0       ??$__crt_fast_encode_pointer@P6AXPEAXK0@Z@@YAP6AXPEAXK0@ZQ6AX0K0@Z@Z 00000001801687d0 f i libucrt:exit.obj
 0001:001677f0       ??$__crt_get_proc_address@P6AXI@Z@@YAP6AXI@ZQEAUHINSTANCE__@@QEBD@Z 00000001801687f0 f i libucrt:exit.obj
 0001:001677f8       ??$__crt_interlocked_read@J@@YAJPEDJ@Z 00000001801687f8 f i libucrt:exit.obj
 0001:0016781c       ??0?$__crt_unique_handle_t@U__crt_hmodule_traits@@@@QEAA@QEAUHINSTANCE__@@@Z 000000018016881c f i libucrt:exit.obj
 0001:00167824       ??1?$__crt_unique_handle_t@U__crt_hmodule_traits@@@@QEAA@XZ 0000000180168824 f i libucrt:exit.obj
 0001:0016791c       ?__acrt_select_exit_lock@@YA?AW4__acrt_lock_id@@XZ 000000018016891c f i libucrt:exit.obj
 0001:00167924       ?__crt_fast_encode_pointer@@YA?AU__crt_fast_encoded_nullptr_t@@$$T@Z 0000000180168924 f i libucrt:exit.obj
 0001:0016792c       ?__crt_interlocked_read_32@@YAHPEDH@Z 000000018016892c f i libucrt:exit.obj
 0001:00167930       ?__crt_rotate_pointer_value@@YA_K_KH@Z 0000000180168930 f i libucrt:exit.obj
 0001:00167948       ?close@?$__crt_unique_handle_t@U__crt_hmodule_traits@@@@QEAAXXZ 0000000180168948 f i libucrt:exit.obj
 0001:0016796c       ?close@__crt_hmodule_traits@@SA_NPEAUHINSTANCE__@@@Z 000000018016896c f i libucrt:exit.obj
 0001:00167a88       ?get@?$__crt_unique_handle_t@U__crt_hmodule_traits@@@@QEBAPEAUHINSTANCE__@@XZ 0000000180168a88 f i libucrt:exit.obj
 0001:00167a8c       ?get_address_of@?$__crt_unique_handle_t@U__crt_hmodule_traits@@@@QEAAPEAPEAUHINSTANCE__@@XZ 0000000180168a8c f i libucrt:exit.obj
 0001:00167a90       ?get_invalid_value@__crt_hmodule_traits@@SAPEAUHINSTANCE__@@XZ 0000000180168a90 f i libucrt:exit.obj
 0001:00167b74       _Exit                      0000000180168b74 f   libucrt:exit.obj
 0001:00167b80       __acrt_initialize_thread_local_exit_callback 0000000180168b80 f   libucrt:exit.obj
 0001:00167b88       _c_exit                    0000000180168b88 f   libucrt:exit.obj
 0001:00167b98       _cexit                     0000000180168b98 f   libucrt:exit.obj
 0001:00167ba8       _exit                      0000000180168ba8 f   libucrt:exit.obj
 0001:00167bb4       _is_c_termination_complete 0000000180168bb4 f   libucrt:exit.obj
 0001:00167bbc       _register_thread_local_exe_atexit_callback 0000000180168bbc f   libucrt:exit.obj
 0001:00167bf8       exit                       0000000180168bf8 f   libucrt:exit.obj
 0001:00167c04       quick_exit                 0000000180168c04 f   libucrt:exit.obj
 0001:00167c10       ??$?RE@__crt_internal_free_policy@@QEBAXQEBE@Z 0000000180168c10 f i libucrt:argv_parsing.obj
 0001:00167c18       ??$?RPEAD@__crt_internal_free_policy@@QEBAXQEBQEAD@Z 0000000180168c18 f i libucrt:argv_parsing.obj
 0001:00167c20       ??$?RPEA_W@__crt_internal_free_policy@@QEBAXQEBQEA_W@Z 0000000180168c20 f i libucrt:argv_parsing.obj
 0001:00167f14       ??$get_module_file_name@$$TAEAY0BAF@DH@?$__crt_char_traits@D@@SAK$$QEA$$TAEAY0BAF@D$$QEAH@Z 0000000180168f14 f i libucrt:argv_parsing.obj
 0001:00167f20       ??$get_module_file_name@$$TAEAY0BAF@_WH@?$__crt_char_traits@_W@@SAK$$QEA$$TAEAY0BAF@_W$$QEAH@Z 0000000180168f20 f i libucrt:argv_parsing.obj
 0001:00168290       ??$set_program_name@PEAD@?$__crt_char_traits@D@@SAX$$QEAPEAD@Z 0000000180169290 f i libucrt:argv_parsing.obj
 0001:0016829c       ??$set_program_name@PEA_W@?$__crt_char_traits@_W@@SAX$$QEAPEA_W@Z 000000018016929c f i libucrt:argv_parsing.obj
 0001:001682b8       ??0?$__crt_unique_heap_ptr@EU__crt_internal_free_policy@@@@QEAA@QEAE@Z 00000001801692b8 f i libucrt:argv_parsing.obj
 0001:001682c0       ??0?$__crt_unique_heap_ptr@PEADU__crt_internal_free_policy@@@@QEAA@QEAPEAD@Z 00000001801692c0 f i libucrt:argv_parsing.obj
 0001:001682c8       ??0?$__crt_unique_heap_ptr@PEA_WU__crt_internal_free_policy@@@@QEAA@QEAPEA_W@Z 00000001801692c8 f i libucrt:argv_parsing.obj
 0001:001682d0       ??1?$__crt_unique_heap_ptr@EU__crt_internal_free_policy@@@@QEAA@XZ 00000001801692d0 f i libucrt:argv_parsing.obj
 0001:001682ec       ??1?$__crt_unique_heap_ptr@PEADU__crt_internal_free_policy@@@@QEAA@XZ 00000001801692ec f i libucrt:argv_parsing.obj
 0001:00168308       ??1?$__crt_unique_heap_ptr@PEA_WU__crt_internal_free_policy@@@@QEAA@XZ 0000000180169308 f i libucrt:argv_parsing.obj
 0001:00168324       ??B?$__crt_unique_heap_ptr@EU__crt_internal_free_policy@@@@QEBA_NXZ 0000000180169324 f i libucrt:argv_parsing.obj
 0001:00168364       ?detach@?$__crt_unique_heap_ptr@EU__crt_internal_free_policy@@@@QEAAPEAEXZ 0000000180169364 f i libucrt:argv_parsing.obj
 0001:0016836c       ?detach@?$__crt_unique_heap_ptr@PEADU__crt_internal_free_policy@@@@QEAAPEAPEADXZ 000000018016936c f i libucrt:argv_parsing.obj
 0001:00168374       ?detach@?$__crt_unique_heap_ptr@PEA_WU__crt_internal_free_policy@@@@QEAAPEAPEA_WXZ 0000000180169374 f i libucrt:argv_parsing.obj
 0001:00168398       ?get@?$__crt_unique_heap_ptr@EU__crt_internal_free_policy@@@@QEBAPEAEXZ 0000000180169398 f i libucrt:argv_parsing.obj
 0001:0016839c       ?get@?$__crt_unique_heap_ptr@PEADU__crt_internal_free_policy@@@@QEBAPEAPEADXZ 000000018016939c f i libucrt:argv_parsing.obj
 0001:001683a0       ?get@?$__crt_unique_heap_ptr@PEA_WU__crt_internal_free_policy@@@@QEBAPEAPEA_WXZ 00000001801693a0 f i libucrt:argv_parsing.obj
 0001:001683a4       ?get_address_of@?$__crt_unique_heap_ptr@PEADU__crt_internal_free_policy@@@@QEAAPEAPEAPEADXZ 00000001801693a4 f i libucrt:argv_parsing.obj
 0001:001683a8       ?get_address_of@?$__crt_unique_heap_ptr@PEA_WU__crt_internal_free_policy@@@@QEAAPEAPEAPEA_WXZ 00000001801693a8 f i libucrt:argv_parsing.obj
 0001:001683cc       ?is_valid@?$__crt_unique_heap_ptr@EU__crt_internal_free_policy@@@@QEBA_NXZ 00000001801693cc f i libucrt:argv_parsing.obj
 0001:001683d4       ?release@?$__crt_unique_heap_ptr@EU__crt_internal_free_policy@@@@QEAAXXZ 00000001801693d4 f i libucrt:argv_parsing.obj
 0001:001683f0       ?release@?$__crt_unique_heap_ptr@PEADU__crt_internal_free_policy@@@@QEAAXXZ 00000001801693f0 f i libucrt:argv_parsing.obj
 0001:0016840c       ?release@?$__crt_unique_heap_ptr@PEA_WU__crt_internal_free_policy@@@@QEAAXXZ 000000018016940c f i libucrt:argv_parsing.obj
 0001:00168444       __acrt_allocate_buffer_for_argv 0000000180169444 f   libucrt:argv_parsing.obj
 0001:001684a4       _configure_narrow_argv     00000001801694a4 f   libucrt:argv_parsing.obj
 0001:0016862c       _configure_wide_argv       000000018016962c f   libucrt:argv_parsing.obj
 0001:001687b0       _set_pgmptr                00000001801697b0 f i libucrt:argv_parsing.obj
 0001:001687b8       _set_wpgmptr               00000001801697b8 f i libucrt:argv_parsing.obj
 0001:001687c0       ??$?R_W@__crt_internal_free_policy@@QEBAXQEB_W@Z 00000001801697c0 f i libucrt:environment_initialization.obj
 0001:00168cc8       ??$get_environment_from_os@$$V@?$__crt_char_traits@D@@SAPEADXZ 0000000180169cc8 f i libucrt:environment_initialization.obj
 0001:00168cd0       ??$get_environment_from_os@$$V@?$__crt_char_traits@_W@@SAPEA_WXZ 0000000180169cd0 f i libucrt:environment_initialization.obj
 0001:00168e60       ??$set_variable_in_environment_nolock@PEADH@?$__crt_char_traits@D@@SAH$$QEAPEAD$$QEAH@Z 0000000180169e60 f i libucrt:environment_initialization.obj
 0001:00168e6c       ??$set_variable_in_environment_nolock@PEA_WH@?$__crt_char_traits@_W@@SAH$$QEAPEA_W$$QEAH@Z 0000000180169e6c f i libucrt:environment_initialization.obj
 0001:00168e78       ??$tcscpy_s@PEADAEB_KAEAPEAD@?$__crt_char_traits@D@@SAH$$QEAPEADAEB_KAEAPEAD@Z 0000000180169e78 f i libucrt:environment_initialization.obj
 0001:00168e88       ??$tcscpy_s@PEA_WAEB_KAEAPEA_W@?$__crt_char_traits@_W@@SAH$$QEAPEA_WAEB_KAEAPEA_W@Z 0000000180169e88 f i libucrt:environment_initialization.obj
 0001:00168e98       ??$tcslen@AEAPEAD@?$__crt_char_traits@D@@SA_KAEAPEAD@Z 0000000180169e98 f i libucrt:environment_initialization.obj
 0001:00168eac       ??$tcslen@AEAPEA_W@?$__crt_char_traits@_W@@SA_KAEAPEA_W@Z 0000000180169eac f i libucrt:environment_initialization.obj
 0001:00168ec0       ??$uninitialize@A6AXAEAPEAPEAD@Z@?$dual_state_global@PEAPEAD@__crt_state_management@@QEAAXA6AXAEAPEAPEAD@Z@Z 0000000180169ec0 f i libucrt:environment_initialization.obj
 0001:00168f04       ??$uninitialize@A6AXAEAPEAPEA_W@Z@?$dual_state_global@PEAPEA_W@__crt_state_management@@QEAAXA6AXAEAPEAPEA_W@Z@Z 0000000180169f04 f i libucrt:environment_initialization.obj
 0001:00168f80       ??0?$__crt_unique_heap_ptr@_WU__crt_internal_free_policy@@@@QEAA@QEA_W@Z 0000000180169f80 f i libucrt:environment_initialization.obj
 0001:00168f88       ??1?$__crt_unique_heap_ptr@_WU__crt_internal_free_policy@@@@QEAA@XZ 0000000180169f88 f i libucrt:environment_initialization.obj
 0001:00168fa4       ??B?$__crt_unique_heap_ptr@PEADU__crt_internal_free_policy@@@@QEBA_NXZ 0000000180169fa4 f i libucrt:environment_initialization.obj
 0001:00168fac       ??B?$__crt_unique_heap_ptr@PEA_WU__crt_internal_free_policy@@@@QEBA_NXZ 0000000180169fac f i libucrt:environment_initialization.obj
 0001:00168fb4       ??B?$__crt_unique_heap_ptr@_WU__crt_internal_free_policy@@@@QEBA_NXZ 0000000180169fb4 f i libucrt:environment_initialization.obj
 0001:00168fbc       ?__crt_compute_required_transform_buffer_count@@YA_KIQEBD@Z 0000000180169fbc f i libucrt:environment_initialization.obj
 0001:00168fe0       ?__crt_compute_required_transform_buffer_count@@YA_KIQEB_W@Z 0000000180169fe0 f i libucrt:environment_initialization.obj
 0001:00169010       ?__crt_transform_string@@YA_KIQEBDQEA_W_K@Z 000000018016a010 f i libucrt:environment_initialization.obj
 0001:00169034       ?__crt_transform_string@@YA_KIQEB_WQEAD_K@Z 000000018016a034 f i libucrt:environment_initialization.obj
 0001:00169064       ?detach@?$__crt_unique_heap_ptr@DU__crt_internal_free_policy@@@@QEAAPEADXZ 000000018016a064 f i libucrt:environment_initialization.obj
 0001:0016906c       ?detach@?$__crt_unique_heap_ptr@_WU__crt_internal_free_policy@@@@QEAAPEA_WXZ 000000018016a06c f i libucrt:environment_initialization.obj
 0001:00169074       ?get@?$__crt_unique_heap_ptr@_WU__crt_internal_free_policy@@@@QEBAPEA_WXZ 000000018016a074 f i libucrt:environment_initialization.obj
 0001:00169078       ?get_current_state_index@__crt_state_management@@YA_KXZ 000000018016a078 f i libucrt:environment_initialization.obj
 0001:001690ac       ?initialize@?$dual_state_global@PEAPEAD@__crt_state_management@@QEAAXQEAPEAD@Z 000000018016a0ac f i libucrt:environment_initialization.obj
 0001:001690d4       ?initialize@?$dual_state_global@PEAPEA_W@__crt_state_management@@QEAAXQEAPEA_W@Z 000000018016a0d4 f i libucrt:environment_initialization.obj
 0001:001690fc       ?is_valid@?$__crt_unique_heap_ptr@PEADU__crt_internal_free_policy@@@@QEBA_NXZ 000000018016a0fc f i libucrt:environment_initialization.obj
 0001:00169104       ?is_valid@?$__crt_unique_heap_ptr@PEA_WU__crt_internal_free_policy@@@@QEBA_NXZ 000000018016a104 f i libucrt:environment_initialization.obj
 0001:0016910c       ?is_valid@?$__crt_unique_heap_ptr@_WU__crt_internal_free_policy@@@@QEBA_NXZ 000000018016a10c f i libucrt:environment_initialization.obj
 0001:00169120       ?release@?$__crt_unique_heap_ptr@_WU__crt_internal_free_policy@@@@QEAAXXZ 000000018016a120 f i libucrt:environment_initialization.obj
 0001:0016913c       ?value@?$dual_state_global@PEAPEAD@__crt_state_management@@QEAAAEAPEAPEADXZ 000000018016a13c f i libucrt:environment_initialization.obj
 0001:00169140       ?value@?$dual_state_global@PEAPEA_W@__crt_state_management@@QEAAAEAPEAPEA_WXZ 000000018016a140 f i libucrt:environment_initialization.obj
 0001:00169144       __dcrt_get_or_create_narrow_environment_nolock 000000018016a144 f   libucrt:environment_initialization.obj
 0001:00169180       __dcrt_get_or_create_wide_environment_nolock 000000018016a180 f   libucrt:environment_initialization.obj
 0001:001691bc       __dcrt_uninitialize_environments_nolock 000000018016a1bc f   libucrt:environment_initialization.obj
 0001:001691f4       __p__environ               000000018016a1f4 f   libucrt:environment_initialization.obj
 0001:001691fc       __p__wenviron              000000018016a1fc f   libucrt:environment_initialization.obj
 0001:00169204       _get_initial_narrow_environment 000000018016a204 f   libucrt:environment_initialization.obj
 0001:00169254       _get_initial_wide_environment 000000018016a254 f   libucrt:environment_initialization.obj
 0001:001692a4       _initialize_narrow_environment 000000018016a2a4 f   libucrt:environment_initialization.obj
 0001:001692ac       _initialize_wide_environment 000000018016a2ac f   libucrt:environment_initialization.obj
 0001:001692b4       _invoke_watson_if_error    000000018016a2b4 f i libucrt:environment_initialization.obj
 0001:001692e8       ??$?B$$A6AXXZ@__crt_fast_encoded_nullptr_t@@QEBAP6AXXZXZ 000000018016a2e8 f i libucrt:onexit.obj
 0001:001692f0       ??$?BP6AXXZ@__crt_fast_encoded_nullptr_t@@QEBAPEAP6AXXZXZ 000000018016a2f0 f i libucrt:onexit.obj
 0001:001692f8       ??$?RP6AXXZ@__crt_internal_free_policy@@QEBAXQEBQ6AXXZ@Z 000000018016a2f8 f i libucrt:onexit.obj
 0001:001693c8       ??$__crt_fast_decode_pointer@P6AXXZ@@YAP6AXXZQ6AXXZ@Z 000000018016a3c8 f i libucrt:onexit.obj
 0001:001693e0       ??$__crt_fast_decode_pointer@PEAP6AXXZ@@YAPEAP6AXXZQEAP6AXXZ@Z 000000018016a3e0 f i libucrt:onexit.obj
 0001:001693f8       ??$__crt_fast_encode_pointer@P6AHXZ@@YAP6AHXZQ6AHXZ@Z 000000018016a3f8 f i libucrt:onexit.obj
 0001:00169418       ??$__crt_fast_encode_pointer@P6AXXZ@@YAP6AXXZQ6AXXZ@Z 000000018016a418 f i libucrt:onexit.obj
 0001:00169438       ??$__crt_fast_encode_pointer@PEAP6AXXZ@@YAPEAP6AXXZQEAP6AXXZ@Z 000000018016a438 f i libucrt:onexit.obj
 0001:0016948c       ??0?$__crt_unique_heap_ptr@P6AXXZU__crt_internal_free_policy@@@@QEAA@QEAP6AXXZ@Z 000000018016a48c f i libucrt:onexit.obj
 0001:00169494       ??1?$__crt_unique_heap_ptr@P6AXXZU__crt_internal_free_policy@@@@QEAA@XZ 000000018016a494 f i libucrt:onexit.obj
 0001:001694b0       ??1scoped_global_state_reset@__crt_state_management@@QEAA@XZ 000000018016a4b0 f i libucrt:onexit.obj
 0001:0016979c       ?detach@?$__crt_unique_heap_ptr@P6AXXZU__crt_internal_free_policy@@@@QEAAPEAP6AXXZXZ 000000018016a79c f i libucrt:onexit.obj
 0001:001697a4       ?release@?$__crt_unique_heap_ptr@P6AXXZU__crt_internal_free_policy@@@@QEAAXXZ 000000018016a7a4 f i libucrt:onexit.obj
 0001:001697c0       _crt_at_quick_exit         000000018016a7c0 f   libucrt:onexit.obj
 0001:001697d0       _crt_atexit                000000018016a7d0 f   libucrt:onexit.obj
 0001:001697e0       _execute_onexit_table      000000018016a7e0 f   libucrt:onexit.obj
 0001:0016981c       _initialize_onexit_table   000000018016a81c f   libucrt:onexit.obj
 0001:00169844       _register_onexit_function  000000018016a844 f   libucrt:onexit.obj
 0001:001699cc       ??$?BX@__crt_fast_encoded_nullptr_t@@QEBAPEAXXZ 000000018016a9cc f i libucrt:initialization.obj
 0001:001699d4       ??$__crt_fast_encode_pointer@PEAX@@YAPEAXQEAX@Z 000000018016a9d4 f i libucrt:initialization.obj
 0001:00169aa4       ?__acrt_stdio_is_initialized@@YA_NXZ 000000018016aaa4 f i libucrt:initialization.obj
 0001:00169ab0       ?initialize@?$dual_state_global@PEAU__crt_locale_data@@@__crt_state_management@@QEAAXQEAU__crt_locale_data@@@Z 000000018016aab0 f i libucrt:initialization.obj
 0001:00169ad8       __acrt_initialize          000000018016aad8 f   libucrt:initialization.obj
 0001:00169aec       __acrt_thread_attach       000000018016aaec f   libucrt:initialization.obj
 0001:00169b00       __acrt_thread_detach       000000018016ab00 f   libucrt:initialization.obj
 0001:00169b10       __acrt_uninitialize        000000018016ab10 f   libucrt:initialization.obj
 0001:00169b48       __acrt_uninitialize_critical 000000018016ab48 f   libucrt:initialization.obj
 0001:00169b6c       _get_terminate             000000018016ab6c f   libucrt:terminate.obj
 0001:00169b90       set_terminate              000000018016ab90 f   libucrt:terminate.obj
 0001:00169bbc       terminate                  000000018016abbc f   libucrt:terminate.obj
 0001:00169bdc       _set_abort_behavior        000000018016abdc f   libucrt:abort.obj
 0001:00169bf8       abort                      000000018016abf8 f   libucrt:abort.obj
 0001:00169c50       malloc                     000000018016ac50 f   libucrt:malloc.obj
 0001:00169cbc       strcpy_s                   000000018016acbc f   libucrt:strcpy_s.obj
 0001:00169d1c       ??$?0AEBV?$stream_output_adapter@D@__crt_stdio_output@@AEB_KAEBQEBDAEBQEAU__crt_locale_pointers@@AEBQEAD@?$format_validation_base@DV?$stream_output_adapter@D@__crt_stdio_output@@@__crt_stdio_output@@IEAA@AEBV?$stream_output_adapter@D@1@AEB_KAEBQEBDAEBQEAU__crt_locale_pointers@@AEBQEAD@Z 000000018016ad1c f i libucrt:output.obj
 0001:00169da0       ??$?0AEBV?$stream_output_adapter@D@__crt_stdio_output@@AEB_KAEBQEBDAEBQEAU__crt_locale_pointers@@AEBQEAD@?$positional_parameter_base@DV?$stream_output_adapter@D@__crt_stdio_output@@@__crt_stdio_output@@IEAA@AEBV?$stream_output_adapter@D@1@AEB_KAEBQEBDAEBQEAU__crt_locale_pointers@@AEBQEAD@Z 000000018016ada0 f i libucrt:output.obj
 0001:00169e40       ??$?0AEBV?$stream_output_adapter@D@__crt_stdio_output@@AEB_KAEBQEBDAEBQEAU__crt_locale_pointers@@AEBQEAD@?$standard_base@DV?$stream_output_adapter@D@__crt_stdio_output@@@__crt_stdio_output@@IEAA@AEBV?$stream_output_adapter@D@1@AEB_KAEBQEBDAEBQEAU__crt_locale_pointers@@AEBQEAD@Z 000000018016ae40 f i libucrt:output.obj
 0001:00169ec4       ??$?0AEBV?$stream_output_adapter@_W@__crt_stdio_output@@AEB_KAEBQEB_WAEBQEAU__crt_locale_pointers@@AEBQEAD@?$format_validation_base@_WV?$stream_output_adapter@_W@__crt_stdio_output@@@__crt_stdio_output@@IEAA@AEBV?$stream_output_adapter@_W@1@AEB_KAEBQEB_WAEBQEAU__crt_locale_pointers@@AEBQEAD@Z 000000018016aec4 f i libucrt:output.obj
 0001:00169f4c       ??$?0AEBV?$stream_output_adapter@_W@__crt_stdio_output@@AEB_KAEBQEB_WAEBQEAU__crt_locale_pointers@@AEBQEAD@?$positional_parameter_base@_WV?$stream_output_adapter@_W@__crt_stdio_output@@@__crt_stdio_output@@IEAA@AEBV?$stream_output_adapter@_W@1@AEB_KAEBQEB_WAEBQEAU__crt_locale_pointers@@AEBQEAD@Z 000000018016af4c f i libucrt:output.obj
 0001:00169ff0       ??$?0AEBV?$stream_output_adapter@_W@__crt_stdio_output@@AEB_KAEBQEB_WAEBQEAU__crt_locale_pointers@@AEBQEAD@?$standard_base@_WV?$stream_output_adapter@_W@__crt_stdio_output@@@__crt_stdio_output@@IEAA@AEBV?$stream_output_adapter@_W@1@AEB_KAEBQEB_WAEBQEAU__crt_locale_pointers@@AEBQEAD@Z 000000018016aff0 f i libucrt:output.obj
 0001:0016a078       ??$?0AEBV?$string_output_adapter@D@__crt_stdio_output@@AEB_KAEBQEBDAEBQEAU__crt_locale_pointers@@AEBQEAD@?$format_validation_base@DV?$string_output_adapter@D@__crt_stdio_output@@@__crt_stdio_output@@IEAA@AEBV?$string_output_adapter@D@1@AEB_KAEBQEBDAEBQEAU__crt_locale_pointers@@AEBQEAD@Z 000000018016b078 f i libucrt:output.obj
 0001:0016a0fc       ??$?0AEBV?$string_output_adapter@D@__crt_stdio_output@@AEB_KAEBQEBDAEBQEAU__crt_locale_pointers@@AEBQEAD@?$positional_parameter_base@DV?$string_output_adapter@D@__crt_stdio_output@@@__crt_stdio_output@@IEAA@AEBV?$string_output_adapter@D@1@AEB_KAEBQEBDAEBQEAU__crt_locale_pointers@@AEBQEAD@Z 000000018016b0fc f i libucrt:output.obj
 0001:0016a19c       ??$?0AEBV?$string_output_adapter@D@__crt_stdio_output@@AEB_KAEBQEBDAEBQEAU__crt_locale_pointers@@AEBQEAD@?$standard_base@DV?$string_output_adapter@D@__crt_stdio_output@@@__crt_stdio_output@@IEAA@AEBV?$string_output_adapter@D@1@AEB_KAEBQEBDAEBQEAU__crt_locale_pointers@@AEBQEAD@Z 000000018016b19c f i libucrt:output.obj
 0001:0016a220       ??$?0AEBV?$string_output_adapter@_W@__crt_stdio_output@@AEB_KAEBQEB_WAEBQEAU__crt_locale_pointers@@AEBQEAD@?$format_validation_base@_WV?$string_output_adapter@_W@__crt_stdio_output@@@__crt_stdio_output@@IEAA@AEBV?$string_output_adapter@_W@1@AEB_KAEBQEB_WAEBQEAU__crt_locale_pointers@@AEBQEAD@Z 000000018016b220 f i libucrt:output.obj
 0001:0016a2a8       ??$?0AEBV?$string_output_adapter@_W@__crt_stdio_output@@AEB_KAEBQEB_WAEBQEAU__crt_locale_pointers@@AEBQEAD@?$positional_parameter_base@_WV?$string_output_adapter@_W@__crt_stdio_output@@@__crt_stdio_output@@IEAA@AEBV?$string_output_adapter@_W@1@AEB_KAEBQEB_WAEBQEAU__crt_locale_pointers@@AEBQEAD@Z 000000018016b2a8 f i libucrt:output.obj
 0001:0016a34c       ??$?0AEBV?$string_output_adapter@_W@__crt_stdio_output@@AEB_KAEBQEB_WAEBQEAU__crt_locale_pointers@@AEBQEAD@?$standard_base@_WV?$string_output_adapter@_W@__crt_stdio_output@@@__crt_stdio_output@@IEAA@AEBV?$string_output_adapter@_W@1@AEB_KAEBQEB_WAEBQEAU__crt_locale_pointers@@AEBQEAD@Z 000000018016b34c f i libucrt:output.obj
 0001:0016b7d0       ??$count@D@formatting_buffer@__crt_stdio_output@@QEBA_KXZ 000000018016c7d0 f i libucrt:output.obj
 0001:0016b7ec       ??$count@_W@formatting_buffer@__crt_stdio_output@@QEBA_KXZ 000000018016c7ec f i libucrt:output.obj
 0001:0016b808       ??$data@D@formatting_buffer@__crt_stdio_output@@QEAAPEADXZ 000000018016c808 f i libucrt:output.obj
 0001:0016b818       ??$data@_W@formatting_buffer@__crt_stdio_output@@QEAAPEA_WXZ 000000018016c818 f i libucrt:output.obj
 0001:0016b828       ??$ensure_buffer_is_big_enough@D@formatting_buffer@__crt_stdio_output@@QEAA_N_K@Z 000000018016c828 f i libucrt:output.obj
 0001:0016b8d0       ??$ensure_buffer_is_big_enough@_W@formatting_buffer@__crt_stdio_output@@QEAA_N_K@Z 000000018016c8d0 f i libucrt:output.obj
 0001:0016b97c       ??$extract_argument_from_va_list@C_J@?$positional_parameter_base@DV?$stream_output_adapter@D@__crt_stdio_output@@@__crt_stdio_output@@IEAA_NAEA_J@Z 000000018016c97c f i libucrt:output.obj
 0001:0016ba38       ??$extract_argument_from_va_list@C_J@?$positional_parameter_base@DV?$string_output_adapter@D@__crt_stdio_output@@@__crt_stdio_output@@IEAA_NAEA_J@Z 000000018016ca38 f i libucrt:output.obj
 0001:0016baf4       ??$extract_argument_from_va_list@C_J@?$positional_parameter_base@_WV?$stream_output_adapter@_W@__crt_stdio_output@@@__crt_stdio_output@@IEAA_NAEA_J@Z 000000018016caf4 f i libucrt:output.obj
 0001:0016bbb4       ??$extract_argument_from_va_list@C_J@?$positional_parameter_base@_WV?$string_output_adapter@_W@__crt_stdio_output@@@__crt_stdio_output@@IEAA_NAEA_J@Z 000000018016cbb4 f i libucrt:output.obj
 0001:0016bc74       ??$extract_argument_from_va_list@C_J@?$standard_base@DV?$stream_output_adapter@D@__crt_stdio_output@@@__crt_stdio_output@@IEAA_NAEA_J@Z 000000018016cc74 f i libucrt:output.obj
 0001:0016bc88       ??$extract_argument_from_va_list@C_J@?$standard_base@DV?$string_output_adapter@D@__crt_stdio_output@@@__crt_stdio_output@@IEAA_NAEA_J@Z 000000018016cc88 f i libucrt:output.obj
 0001:0016bc9c       ??$extract_argument_from_va_list@C_J@?$standard_base@_WV?$stream_output_adapter@_W@__crt_stdio_output@@@__crt_stdio_output@@IEAA_NAEA_J@Z 000000018016cc9c f i libucrt:output.obj
 0001:0016bcb0       ??$extract_argument_from_va_list@C_J@?$standard_base@_WV?$string_output_adapter@_W@__crt_stdio_output@@@__crt_stdio_output@@IEAA_NAEA_J@Z 000000018016ccb0 f i libucrt:output.obj
 0001:0016bcc4       ??$extract_argument_from_va_list@E_J@?$positional_parameter_base@DV?$stream_output_adapter@D@__crt_stdio_output@@@__crt_stdio_output@@IEAA_NAEA_J@Z 000000018016ccc4 f i libucrt:output.obj
 0001:0016bd80       ??$extract_argument_from_va_list@E_J@?$positional_parameter_base@DV?$string_output_adapter@D@__crt_stdio_output@@@__crt_stdio_output@@IEAA_NAEA_J@Z 000000018016cd80 f i libucrt:output.obj
 0001:0016be3c       ??$extract_argument_from_va_list@E_J@?$positional_parameter_base@_WV?$stream_output_adapter@_W@__crt_stdio_output@@@__crt_stdio_output@@IEAA_NAEA_J@Z 000000018016ce3c f i libucrt:output.obj
 0001:0016befc       ??$extract_argument_from_va_list@E_J@?$positional_parameter_base@_WV?$string_output_adapter@_W@__crt_stdio_output@@@__crt_stdio_output@@IEAA_NAEA_J@Z 000000018016cefc f i libucrt:output.obj
 0001:0016bfbc       ??$extract_argument_from_va_list@E_J@?$standard_base@DV?$stream_output_adapter@D@__crt_stdio_output@@@__crt_stdio_output@@IEAA_NAEA_J@Z 000000018016cfbc f i libucrt:output.obj
 0001:0016bfd0       ??$extract_argument_from_va_list@E_J@?$standard_base@DV?$string_output_adapter@D@__crt_stdio_output@@@__crt_stdio_output@@IEAA_NAEA_J@Z 000000018016cfd0 f i libucrt:output.obj
 0001:0016bfe4       ??$extract_argument_from_va_list@E_J@?$standard_base@_WV?$stream_output_adapter@_W@__crt_stdio_output@@@__crt_stdio_output@@IEAA_NAEA_J@Z 000000018016cfe4 f i libucrt:output.obj
 0001:0016bff8       ??$extract_argument_from_va_list@E_J@?$standard_base@_WV?$string_output_adapter@_W@__crt_stdio_output@@@__crt_stdio_output@@IEAA_NAEA_J@Z 000000018016cff8 f i libucrt:output.obj
 0001:0016c00c       ??$extract_argument_from_va_list@F_J@?$positional_parameter_base@DV?$stream_output_adapter@D@__crt_stdio_output@@@__crt_stdio_output@@IEAA_NAEA_J@Z 000000018016d00c f i libucrt:output.obj
 0001:0016c0c8       ??$extract_argument_from_va_list@F_J@?$positional_parameter_base@DV?$string_output_adapter@D@__crt_stdio_output@@@__crt_stdio_output@@IEAA_NAEA_J@Z 000000018016d0c8 f i libucrt:output.obj
 0001:0016c184       ??$extract_argument_from_va_list@F_J@?$positional_parameter_base@_WV?$stream_output_adapter@_W@__crt_stdio_output@@@__crt_stdio_output@@IEAA_NAEA_J@Z 000000018016d184 f i libucrt:output.obj
 0001:0016c244       ??$extract_argument_from_va_list@F_J@?$positional_parameter_base@_WV?$string_output_adapter@_W@__crt_stdio_output@@@__crt_stdio_output@@IEAA_NAEA_J@Z 000000018016d244 f i libucrt:output.obj
 0001:0016c304       ??$extract_argument_from_va_list@F_J@?$standard_base@DV?$stream_output_adapter@D@__crt_stdio_output@@@__crt_stdio_output@@IEAA_NAEA_J@Z 000000018016d304 f i libucrt:output.obj
 0001:0016c318       ??$extract_argument_from_va_list@F_J@?$standard_base@DV?$string_output_adapter@D@__crt_stdio_output@@@__crt_stdio_output@@IEAA_NAEA_J@Z 000000018016d318 f i libucrt:output.obj
 0001:0016c32c       ??$extract_argument_from_va_list@F_J@?$standard_base@_WV?$stream_output_adapter@_W@__crt_stdio_output@@@__crt_stdio_output@@IEAA_NAEA_J@Z 000000018016d32c f i libucrt:output.obj
 0001:0016c340       ??$extract_argument_from_va_list@F_J@?$standard_base@_WV?$string_output_adapter@_W@__crt_stdio_output@@@__crt_stdio_output@@IEAA_NAEA_J@Z 000000018016d340 f i libucrt:output.obj
 0001:0016c354       ??$extract_argument_from_va_list@GD@?$positional_parameter_base@DV?$stream_output_adapter@D@__crt_stdio_output@@@__crt_stdio_output@@IEAA_NAEAD@Z 000000018016d354 f i libucrt:output.obj
 0001:0016c40c       ??$extract_argument_from_va_list@GD@?$positional_parameter_base@DV?$string_output_adapter@D@__crt_stdio_output@@@__crt_stdio_output@@IEAA_NAEAD@Z 000000018016d40c f i libucrt:output.obj
 0001:0016c4c4       ??$extract_argument_from_va_list@GD@?$standard_base@DV?$stream_output_adapter@D@__crt_stdio_output@@@__crt_stdio_output@@IEAA_NAEAD@Z 000000018016d4c4 f i libucrt:output.obj
 0001:0016c4d8       ??$extract_argument_from_va_list@GD@?$standard_base@DV?$string_output_adapter@D@__crt_stdio_output@@@__crt_stdio_output@@IEAA_NAEAD@Z 000000018016d4d8 f i libucrt:output.obj
 0001:0016c4ec       ??$extract_argument_from_va_list@G_J@?$positional_parameter_base@DV?$stream_output_adapter@D@__crt_stdio_output@@@__crt_stdio_output@@IEAA_NAEA_J@Z 000000018016d4ec f i libucrt:output.obj
 0001:0016c5a8       ??$extract_argument_from_va_list@G_J@?$positional_parameter_base@DV?$string_output_adapter@D@__crt_stdio_output@@@__crt_stdio_output@@IEAA_NAEA_J@Z 000000018016d5a8 f i libucrt:output.obj
 0001:0016c664       ??$extract_argument_from_va_list@G_J@?$positional_parameter_base@_WV?$stream_output_adapter@_W@__crt_stdio_output@@@__crt_stdio_output@@IEAA_NAEA_J@Z 000000018016d664 f i libucrt:output.obj
 0001:0016c724       ??$extract_argument_from_va_list@G_J@?$positional_parameter_base@_WV?$string_output_adapter@_W@__crt_stdio_output@@@__crt_stdio_output@@IEAA_NAEA_J@Z 000000018016d724 f i libucrt:output.obj
 0001:0016c7e4       ??$extract_argument_from_va_list@G_J@?$standard_base@DV?$stream_output_adapter@D@__crt_stdio_output@@@__crt_stdio_output@@IEAA_NAEA_J@Z 000000018016d7e4 f i libucrt:output.obj
 0001:0016c7f8       ??$extract_argument_from_va_list@G_J@?$standard_base@DV?$string_output_adapter@D@__crt_stdio_output@@@__crt_stdio_output@@IEAA_NAEA_J@Z 000000018016d7f8 f i libucrt:output.obj
 0001:0016c80c       ??$extract_argument_from_va_list@G_J@?$standard_base@_WV?$stream_output_adapter@_W@__crt_stdio_output@@@__crt_stdio_output@@IEAA_NAEA_J@Z 000000018016d80c f i libucrt:output.obj
 0001:0016c820       ??$extract_argument_from_va_list@G_J@?$standard_base@_WV?$string_output_adapter@_W@__crt_stdio_output@@@__crt_stdio_output@@IEAA_NAEA_J@Z 000000018016d820 f i libucrt:output.obj
 0001:0016c834       ??$extract_argument_from_va_list@H_J@?$positional_parameter_base@DV?$stream_output_adapter@D@__crt_stdio_output@@@__crt_stdio_output@@IEAA_NAEA_J@Z 000000018016d834 f i libucrt:output.obj
 0001:0016c8f0       ??$extract_argument_from_va_list@H_J@?$positional_parameter_base@DV?$string_output_adapter@D@__crt_stdio_output@@@__crt_stdio_output@@IEAA_NAEA_J@Z 000000018016d8f0 f i libucrt:output.obj
 0001:0016c9ac       ??$extract_argument_from_va_list@H_J@?$positional_parameter_base@_WV?$stream_output_adapter@_W@__crt_stdio_output@@@__crt_stdio_output@@IEAA_NAEA_J@Z 000000018016d9ac f i libucrt:output.obj
 0001:0016ca68       ??$extract_argument_from_va_list@H_J@?$positional_parameter_base@_WV?$string_output_adapter@_W@__crt_stdio_output@@@__crt_stdio_output@@IEAA_NAEA_J@Z 000000018016da68 f i libucrt:output.obj
 0001:0016cb24       ??$extract_argument_from_va_list@H_J@?$standard_base@DV?$stream_output_adapter@D@__crt_stdio_output@@@__crt_stdio_output@@IEAA_NAEA_J@Z 000000018016db24 f i libucrt:output.obj
 0001:0016cb38       ??$extract_argument_from_va_list@H_J@?$standard_base@DV?$string_output_adapter@D@__crt_stdio_output@@@__crt_stdio_output@@IEAA_NAEA_J@Z 000000018016db38 f i libucrt:output.obj
 0001:0016cb4c       ??$extract_argument_from_va_list@H_J@?$standard_base@_WV?$stream_output_adapter@_W@__crt_stdio_output@@@__crt_stdio_output@@IEAA_NAEA_J@Z 000000018016db4c f i libucrt:output.obj
 0001:0016cb60       ??$extract_argument_from_va_list@H_J@?$standard_base@_WV?$string_output_adapter@_W@__crt_stdio_output@@@__crt_stdio_output@@IEAA_NAEA_J@Z 000000018016db60 f i libucrt:output.obj
 0001:0016cb74       ??$extract_argument_from_va_list@I_J@?$positional_parameter_base@DV?$stream_output_adapter@D@__crt_stdio_output@@@__crt_stdio_output@@IEAA_NAEA_J@Z 000000018016db74 f i libucrt:output.obj
 0001:0016cc30       ??$extract_argument_from_va_list@I_J@?$positional_parameter_base@DV?$string_output_adapter@D@__crt_stdio_output@@@__crt_stdio_output@@IEAA_NAEA_J@Z 000000018016dc30 f i libucrt:output.obj
 0001:0016ccec       ??$extract_argument_from_va_list@I_J@?$positional_parameter_base@_WV?$stream_output_adapter@_W@__crt_stdio_output@@@__crt_stdio_output@@IEAA_NAEA_J@Z 000000018016dcec f i libucrt:output.obj
 0001:0016cda8       ??$extract_argument_from_va_list@I_J@?$positional_parameter_base@_WV?$string_output_adapter@_W@__crt_stdio_output@@@__crt_stdio_output@@IEAA_NAEA_J@Z 000000018016dda8 f i libucrt:output.obj
 0001:0016ce64       ??$extract_argument_from_va_list@I_J@?$standard_base@DV?$stream_output_adapter@D@__crt_stdio_output@@@__crt_stdio_output@@IEAA_NAEA_J@Z 000000018016de64 f i libucrt:output.obj
 0001:0016ce78       ??$extract_argument_from_va_list@I_J@?$standard_base@DV?$string_output_adapter@D@__crt_stdio_output@@@__crt_stdio_output@@IEAA_NAEA_J@Z 000000018016de78 f i libucrt:output.obj
 0001:0016ce8c       ??$extract_argument_from_va_list@I_J@?$standard_base@_WV?$stream_output_adapter@_W@__crt_stdio_output@@@__crt_stdio_output@@IEAA_NAEA_J@Z 000000018016de8c f i libucrt:output.obj
 0001:0016cea0       ??$extract_argument_from_va_list@I_J@?$standard_base@_WV?$string_output_adapter@_W@__crt_stdio_output@@@__crt_stdio_output@@IEAA_NAEA_J@Z 000000018016dea0 f i libucrt:output.obj
 0001:0016ceb4       ??$extract_argument_from_va_list@PEADPEAD@?$positional_parameter_base@DV?$stream_output_adapter@D@__crt_stdio_output@@@__crt_stdio_output@@IEAA_NAEAPEAD@Z 000000018016deb4 f i libucrt:output.obj
 0001:0016cf70       ??$extract_argument_from_va_list@PEADPEAD@?$positional_parameter_base@DV?$string_output_adapter@D@__crt_stdio_output@@@__crt_stdio_output@@IEAA_NAEAPEAD@Z 000000018016df70 f i libucrt:output.obj
 0001:0016d02c       ??$extract_argument_from_va_list@PEADPEAD@?$positional_parameter_base@_WV?$stream_output_adapter@_W@__crt_stdio_output@@@__crt_stdio_output@@IEAA_NAEAPEAD@Z 000000018016e02c f i libucrt:output.obj
 0001:0016d0e8       ??$extract_argument_from_va_list@PEADPEAD@?$positional_parameter_base@_WV?$string_output_adapter@_W@__crt_stdio_output@@@__crt_stdio_output@@IEAA_NAEAPEAD@Z 000000018016e0e8 f i libucrt:output.obj
 0001:0016d1a4       ??$extract_argument_from_va_list@PEADPEAD@?$standard_base@DV?$stream_output_adapter@D@__crt_stdio_output@@@__crt_stdio_output@@IEAA_NAEAPEAD@Z 000000018016e1a4 f i libucrt:output.obj
 0001:0016d1b8       ??$extract_argument_from_va_list@PEADPEAD@?$standard_base@DV?$string_output_adapter@D@__crt_stdio_output@@@__crt_stdio_output@@IEAA_NAEAPEAD@Z 000000018016e1b8 f i libucrt:output.obj
 0001:0016d1cc       ??$extract_argument_from_va_list@PEADPEAD@?$standard_base@_WV?$stream_output_adapter@_W@__crt_stdio_output@@@__crt_stdio_output@@IEAA_NAEAPEAD@Z 000000018016e1cc f i libucrt:output.obj
 0001:0016d1e0       ??$extract_argument_from_va_list@PEADPEAD@?$standard_base@_WV?$string_output_adapter@_W@__crt_stdio_output@@@__crt_stdio_output@@IEAA_NAEAPEAD@Z 000000018016e1e0 f i libucrt:output.obj
 0001:0016d1f4       ??$extract_argument_from_va_list@PEAUansi_string@?1??type_case_Z@?$output_processor@DV?$stream_output_adapter@D@__crt_stdio_output@@V?$format_validation_base@DV?$stream_output_adapter@D@__crt_stdio_output@@@2@@__crt_stdio_output@@AEAA_NXZ@PEAU1?1??234@AEAA_NXZ@@?$standard_base@DV?$stream_output_adapter@D@__crt_stdio_output@@@__crt_stdio_output@@IEAA_NAEAPEAUansi_string@?1??type_case_Z@?$output_processor@DV?$stream_output_adapter@D@__crt_stdio_output@@V?$format_validation_base@DV?$stream_output_adapter@D@__crt_stdio_output@@@2@@1@AEAA_NXZ@@Z 000000018016e1f4 f i libucrt:output.obj
 0001:0016d208       ??$extract_argument_from_va_list@PEAUansi_string@?1??type_case_Z@?$output_processor@DV?$stream_output_adapter@D@__crt_stdio_output@@V?$positional_parameter_base@DV?$stream_output_adapter@D@__crt_stdio_output@@@2@@__crt_stdio_output@@AEAA_NXZ@PEAU1?1??234@AEAA_NXZ@@?$positional_parameter_base@DV?$stream_output_adapter@D@__crt_stdio_output@@@__crt_stdio_output@@IEAA_NAEAPEAUansi_string@?1??type_case_Z@?$output_processor@DV?$stream_output_adapter@D@__crt_stdio_output@@V?$positional_parameter_base@DV?$stream_output_adapter@D@__crt_stdio_output@@@2@@1@AEAA_NXZ@@Z 000000018016e208 f i libucrt:output.obj
 0001:0016d2c4       ??$extract_argument_from_va_list@PEAUansi_string@?1??type_case_Z@?$output_processor@DV?$stream_output_adapter@D@__crt_stdio_output@@V?$positional_parameter_base@DV?$stream_output_adapter@D@__crt_stdio_output@@@2@@__crt_stdio_output@@AEAA_NXZ@PEAU1?1??234@AEAA_NXZ@@?$standard_base@DV?$stream_output_adapter@D@__crt_stdio_output@@@__crt_stdio_output@@IEAA_NAEAPEAUansi_string@?1??type_case_Z@?$output_processor@DV?$stream_output_adapter@D@__crt_stdio_output@@V?$positional_parameter_base@DV?$stream_output_adapter@D@__crt_stdio_output@@@2@@1@AEAA_NXZ@@Z 000000018016e2c4 f i libucrt:output.obj
 0001:0016d2d8       ??$extract_argument_from_va_list@PEAUansi_string@?1??type_case_Z@?$output_processor@DV?$stream_output_adapter@D@__crt_stdio_output@@V?$standard_base@DV?$stream_output_adapter@D@__crt_stdio_output@@@2@@__crt_stdio_output@@AEAA_NXZ@PEAU1?1??234@AEAA_NXZ@@?$standard_base@DV?$stream_output_adapter@D@__crt_stdio_output@@@__crt_stdio_output@@IEAA_NAEAPEAUansi_string@?1??type_case_Z@?$output_processor@DV?$stream_output_adapter@D@__crt_stdio_output@@V?$standard_base@DV?$stream_output_adapter@D@__crt_stdio_output@@@2@@1@AEAA_NXZ@@Z 000000018016e2d8 f i libucrt:output.obj
 0001:0016d2ec       ??$extract_argument_from_va_list@PEAUansi_string@?1??type_case_Z@?$output_processor@DV?$string_output_adapter@D@__crt_stdio_output@@V?$format_validation_base@DV?$string_output_adapter@D@__crt_stdio_output@@@2@@__crt_stdio_output@@AEAA_NXZ@PEAU1?1??234@AEAA_NXZ@@?$standard_base@DV?$string_output_adapter@D@__crt_stdio_output@@@__crt_stdio_output@@IEAA_NAEAPEAUansi_string@?1??type_case_Z@?$output_processor@DV?$string_output_adapter@D@__crt_stdio_output@@V?$format_validation_base@DV?$string_output_adapter@D@__crt_stdio_output@@@2@@1@AEAA_NXZ@@Z 000000018016e2ec f i libucrt:output.obj
 0001:0016d300       ??$extract_argument_from_va_list@PEAUansi_string@?1??type_case_Z@?$output_processor@DV?$string_output_adapter@D@__crt_stdio_output@@V?$positional_parameter_base@DV?$string_output_adapter@D@__crt_stdio_output@@@2@@__crt_stdio_output@@AEAA_NXZ@PEAU1?1??234@AEAA_NXZ@@?$positional_parameter_base@DV?$string_output_adapter@D@__crt_stdio_output@@@__crt_stdio_output@@IEAA_NAEAPEAUansi_string@?1??type_case_Z@?$output_processor@DV?$string_output_adapter@D@__crt_stdio_output@@V?$positional_parameter_base@DV?$string_output_adapter@D@__crt_stdio_output@@@2@@1@AEAA_NXZ@@Z 000000018016e300 f i libucrt:output.obj
 0001:0016d3bc       ??$extract_argument_from_va_list@PEAUansi_string@?1??type_case_Z@?$output_processor@DV?$string_output_adapter@D@__crt_stdio_output@@V?$positional_parameter_base@DV?$string_output_adapter@D@__crt_stdio_output@@@2@@__crt_stdio_output@@AEAA_NXZ@PEAU1?1??234@AEAA_NXZ@@?$standard_base@DV?$string_output_adapter@D@__crt_stdio_output@@@__crt_stdio_output@@IEAA_NAEAPEAUansi_string@?1??type_case_Z@?$output_processor@DV?$string_output_adapter@D@__crt_stdio_output@@V?$positional_parameter_base@DV?$string_output_adapter@D@__crt_stdio_output@@@2@@1@AEAA_NXZ@@Z 000000018016e3bc f i libucrt:output.obj
 0001:0016d3d0       ??$extract_argument_from_va_list@PEAUansi_string@?1??type_case_Z@?$output_processor@DV?$string_output_adapter@D@__crt_stdio_output@@V?$standard_base@DV?$string_output_adapter@D@__crt_stdio_output@@@2@@__crt_stdio_output@@AEAA_NXZ@PEAU1?1??234@AEAA_NXZ@@?$standard_base@DV?$string_output_adapter@D@__crt_stdio_output@@@__crt_stdio_output@@IEAA_NAEAPEAUansi_string@?1??type_case_Z@?$output_processor@DV?$string_output_adapter@D@__crt_stdio_output@@V?$standard_base@DV?$string_output_adapter@D@__crt_stdio_output@@@2@@1@AEAA_NXZ@@Z 000000018016e3d0 f i libucrt:output.obj
 0001:0016d3e4       ??$extract_argument_from_va_list@PEAUansi_string@?1??type_case_Z@?$output_processor@_WV?$stream_output_adapter@_W@__crt_stdio_output@@V?$format_validation_base@_WV?$stream_output_adapter@_W@__crt_stdio_output@@@2@@__crt_stdio_output@@AEAA_NXZ@PEAU1?1??234@AEAA_NXZ@@?$standard_base@_WV?$stream_output_adapter@_W@__crt_stdio_output@@@__crt_stdio_output@@IEAA_NAEAPEAUansi_string@?1??type_case_Z@?$output_processor@_WV?$stream_output_adapter@_W@__crt_stdio_output@@V?$format_validation_base@_WV?$stream_output_adapter@_W@__crt_stdio_output@@@2@@1@AEAA_NXZ@@Z 000000018016e3e4 f i libucrt:output.obj
 0001:0016d3f8       ??$extract_argument_from_va_list@PEAUansi_string@?1??type_case_Z@?$output_processor@_WV?$stream_output_adapter@_W@__crt_stdio_output@@V?$positional_parameter_base@_WV?$stream_output_adapter@_W@__crt_stdio_output@@@2@@__crt_stdio_output@@AEAA_NXZ@PEAU1?1??234@AEAA_NXZ@@?$positional_parameter_base@_WV?$stream_output_adapter@_W@__crt_stdio_output@@@__crt_stdio_output@@IEAA_NAEAPEAUansi_string@?1??type_case_Z@?$output_processor@_WV?$stream_output_adapter@_W@__crt_stdio_output@@V?$positional_parameter_base@_WV?$stream_output_adapter@_W@__crt_stdio_output@@@2@@1@AEAA_NXZ@@Z 000000018016e3f8 f i libucrt:output.obj
 0001:0016d4b4       ??$extract_argument_from_va_list@PEAUansi_string@?1??type_case_Z@?$output_processor@_WV?$stream_output_adapter@_W@__crt_stdio_output@@V?$positional_parameter_base@_WV?$stream_output_adapter@_W@__crt_stdio_output@@@2@@__crt_stdio_output@@AEAA_NXZ@PEAU1?1??234@AEAA_NXZ@@?$standard_base@_WV?$stream_output_adapter@_W@__crt_stdio_output@@@__crt_stdio_output@@IEAA_NAEAPEAUansi_string@?1??type_case_Z@?$output_processor@_WV?$stream_output_adapter@_W@__crt_stdio_output@@V?$positional_parameter_base@_WV?$stream_output_adapter@_W@__crt_stdio_output@@@2@@1@AEAA_NXZ@@Z 000000018016e4b4 f i libucrt:output.obj
 0001:0016d4c8       ??$extract_argument_from_va_list@PEAUansi_string@?1??type_case_Z@?$output_processor@_WV?$stream_output_adapter@_W@__crt_stdio_output@@V?$standard_base@_WV?$stream_output_adapter@_W@__crt_stdio_output@@@2@@__crt_stdio_output@@AEAA_NXZ@PEAU1?1??234@AEAA_NXZ@@?$standard_base@_WV?$stream_output_adapter@_W@__crt_stdio_output@@@__crt_stdio_output@@IEAA_NAEAPEAUansi_string@?1??type_case_Z@?$output_processor@_WV?$stream_output_adapter@_W@__crt_stdio_output@@V?$standard_base@_WV?$stream_output_adapter@_W@__crt_stdio_output@@@2@@1@AEAA_NXZ@@Z 000000018016e4c8 f i libucrt:output.obj
 0001:0016d4dc       ??$extract_argument_from_va_list@PEAUansi_string@?1??type_case_Z@?$output_processor@_WV?$string_output_adapter@_W@__crt_stdio_output@@V?$format_validation_base@_WV?$string_output_adapter@_W@__crt_stdio_output@@@2@@__crt_stdio_output@@AEAA_NXZ@PEAU1?1??234@AEAA_NXZ@@?$standard_base@_WV?$string_output_adapter@_W@__crt_stdio_output@@@__crt_stdio_output@@IEAA_NAEAPEAUansi_string@?1??type_case_Z@?$output_processor@_WV?$string_output_adapter@_W@__crt_stdio_output@@V?$format_validation_base@_WV?$string_output_adapter@_W@__crt_stdio_output@@@2@@1@AEAA_NXZ@@Z 000000018016e4dc f i libucrt:output.obj
 0001:0016d4f0       ??$extract_argument_from_va_list@PEAUansi_string@?1??type_case_Z@?$output_processor@_WV?$string_output_adapter@_W@__crt_stdio_output@@V?$positional_parameter_base@_WV?$string_output_adapter@_W@__crt_stdio_output@@@2@@__crt_stdio_output@@AEAA_NXZ@PEAU1?1??234@AEAA_NXZ@@?$positional_parameter_base@_WV?$string_output_adapter@_W@__crt_stdio_output@@@__crt_stdio_output@@IEAA_NAEAPEAUansi_string@?1??type_case_Z@?$output_processor@_WV?$string_output_adapter@_W@__crt_stdio_output@@V?$positional_parameter_base@_WV?$string_output_adapter@_W@__crt_stdio_output@@@2@@1@AEAA_NXZ@@Z 000000018016e4f0 f i libucrt:output.obj
 0001:0016d5ac       ??$extract_argument_from_va_list@PEAUansi_string@?1??type_case_Z@?$output_processor@_WV?$string_output_adapter@_W@__crt_stdio_output@@V?$positional_parameter_base@_WV?$string_output_adapter@_W@__crt_stdio_output@@@2@@__crt_stdio_output@@AEAA_NXZ@PEAU1?1??234@AEAA_NXZ@@?$standard_base@_WV?$string_output_adapter@_W@__crt_stdio_output@@@__crt_stdio_output@@IEAA_NAEAPEAUansi_string@?1??type_case_Z@?$output_processor@_WV?$string_output_adapter@_W@__crt_stdio_output@@V?$positional_parameter_base@_WV?$string_output_adapter@_W@__crt_stdio_output@@@2@@1@AEAA_NXZ@@Z 000000018016e5ac f i libucrt:output.obj
 0001:0016d5c0       ??$extract_argument_from_va_list@PEAUansi_string@?1??type_case_Z@?$output_processor@_WV?$string_output_adapter@_W@__crt_stdio_output@@V?$standard_base@_WV?$string_output_adapter@_W@__crt_stdio_output@@@2@@__crt_stdio_output@@AEAA_NXZ@PEAU1?1??234@AEAA_NXZ@@?$standard_base@_WV?$string_output_adapter@_W@__crt_stdio_output@@@__crt_stdio_output@@IEAA_NAEAPEAUansi_string@?1??type_case_Z@?$output_processor@_WV?$string_output_adapter@_W@__crt_stdio_output@@V?$standard_base@_WV?$string_output_adapter@_W@__crt_stdio_output@@@2@@1@AEAA_NXZ@@Z 000000018016e5c0 f i libucrt:output.obj
 0001:0016d5d4       ??$extract_argument_from_va_list@PEAXPEAX@?$positional_parameter_base@DV?$stream_output_adapter@D@__crt_stdio_output@@@__crt_stdio_output@@IEAA_NAEAPEAX@Z 000000018016e5d4 f i libucrt:output.obj
 0001:0016d690       ??$extract_argument_from_va_list@PEAXPEAX@?$positional_parameter_base@DV?$string_output_adapter@D@__crt_stdio_output@@@__crt_stdio_output@@IEAA_NAEAPEAX@Z 000000018016e690 f i libucrt:output.obj
 0001:0016d74c       ??$extract_argument_from_va_list@PEAXPEAX@?$positional_parameter_base@_WV?$stream_output_adapter@_W@__crt_stdio_output@@@__crt_stdio_output@@IEAA_NAEAPEAX@Z 000000018016e74c f i libucrt:output.obj
 0001:0016d808       ??$extract_argument_from_va_list@PEAXPEAX@?$positional_parameter_base@_WV?$string_output_adapter@_W@__crt_stdio_output@@@__crt_stdio_output@@IEAA_NAEAPEAX@Z 000000018016e808 f i libucrt:output.obj
 0001:0016d8c4       ??$extract_argument_from_va_list@PEAXPEAX@?$standard_base@DV?$stream_output_adapter@D@__crt_stdio_output@@@__crt_stdio_output@@IEAA_NAEAPEAX@Z 000000018016e8c4 f i libucrt:output.obj
 0001:0016d8d8       ??$extract_argument_from_va_list@PEAXPEAX@?$standard_base@DV?$string_output_adapter@D@__crt_stdio_output@@@__crt_stdio_output@@IEAA_NAEAPEAX@Z 000000018016e8d8 f i libucrt:output.obj
 0001:0016d8ec       ??$extract_argument_from_va_list@PEAXPEAX@?$standard_base@_WV?$stream_output_adapter@_W@__crt_stdio_output@@@__crt_stdio_output@@IEAA_NAEAPEAX@Z 000000018016e8ec f i libucrt:output.obj
 0001:0016d900       ??$extract_argument_from_va_list@PEAXPEAX@?$standard_base@_WV?$string_output_adapter@_W@__crt_stdio_output@@@__crt_stdio_output@@IEAA_NAEAPEAX@Z 000000018016e900 f i libucrt:output.obj
 0001:0016d914       ??$extract_argument_from_va_list@U_CRT_DOUBLE@@U1@@?$positional_parameter_base@DV?$stream_output_adapter@D@__crt_stdio_output@@@__crt_stdio_output@@IEAA_NAEAU_CRT_DOUBLE@@@Z 000000018016e914 f i libucrt:output.obj
 0001:0016d9d0       ??$extract_argument_from_va_list@U_CRT_DOUBLE@@U1@@?$positional_parameter_base@DV?$string_output_adapter@D@__crt_stdio_output@@@__crt_stdio_output@@IEAA_NAEAU_CRT_DOUBLE@@@Z 000000018016e9d0 f i libucrt:output.obj
 0001:0016da8c       ??$extract_argument_from_va_list@U_CRT_DOUBLE@@U1@@?$positional_parameter_base@_WV?$stream_output_adapter@_W@__crt_stdio_output@@@__crt_stdio_output@@IEAA_NAEAU_CRT_DOUBLE@@@Z 000000018016ea8c f i libucrt:output.obj
 0001:0016db48       ??$extract_argument_from_va_list@U_CRT_DOUBLE@@U1@@?$positional_parameter_base@_WV?$string_output_adapter@_W@__crt_stdio_output@@@__crt_stdio_output@@IEAA_NAEAU_CRT_DOUBLE@@@Z 000000018016eb48 f i libucrt:output.obj
 0001:0016dc04       ??$extract_argument_from_va_list@U_CRT_DOUBLE@@U1@@?$standard_base@DV?$stream_output_adapter@D@__crt_stdio_output@@@__crt_stdio_output@@IEAA_NAEAU_CRT_DOUBLE@@@Z 000000018016ec04 f i libucrt:output.obj
 0001:0016dc1c       ??$extract_argument_from_va_list@U_CRT_DOUBLE@@U1@@?$standard_base@DV?$string_output_adapter@D@__crt_stdio_output@@@__crt_stdio_output@@IEAA_NAEAU_CRT_DOUBLE@@@Z 000000018016ec1c f i libucrt:output.obj
 0001:0016dc34       ??$extract_argument_from_va_list@U_CRT_DOUBLE@@U1@@?$standard_base@_WV?$stream_output_adapter@_W@__crt_stdio_output@@@__crt_stdio_output@@IEAA_NAEAU_CRT_DOUBLE@@@Z 000000018016ec34 f i libucrt:output.obj
 0001:0016dc4c       ??$extract_argument_from_va_list@U_CRT_DOUBLE@@U1@@?$standard_base@_WV?$string_output_adapter@_W@__crt_stdio_output@@@__crt_stdio_output@@IEAA_NAEAU_CRT_DOUBLE@@@Z 000000018016ec4c f i libucrt:output.obj
 0001:0016dc64       ??$extract_argument_from_va_list@_J_J@?$positional_parameter_base@DV?$stream_output_adapter@D@__crt_stdio_output@@@__crt_stdio_output@@IEAA_NAEA_J@Z 000000018016ec64 f i libucrt:output.obj
 0001:0016dd20       ??$extract_argument_from_va_list@_J_J@?$positional_parameter_base@DV?$string_output_adapter@D@__crt_stdio_output@@@__crt_stdio_output@@IEAA_NAEA_J@Z 000000018016ed20 f i libucrt:output.obj
 0001:0016dddc       ??$extract_argument_from_va_list@_J_J@?$positional_parameter_base@_WV?$stream_output_adapter@_W@__crt_stdio_output@@@__crt_stdio_output@@IEAA_NAEA_J@Z 000000018016eddc f i libucrt:output.obj
 0001:0016de98       ??$extract_argument_from_va_list@_J_J@?$positional_parameter_base@_WV?$string_output_adapter@_W@__crt_stdio_output@@@__crt_stdio_output@@IEAA_NAEA_J@Z 000000018016ee98 f i libucrt:output.obj
 0001:0016df54       ??$extract_argument_from_va_list@_J_J@?$standard_base@DV?$stream_output_adapter@D@__crt_stdio_output@@@__crt_stdio_output@@IEAA_NAEA_J@Z 000000018016ef54 f i libucrt:output.obj
 0001:0016df68       ??$extract_argument_from_va_list@_J_J@?$standard_base@DV?$string_output_adapter@D@__crt_stdio_output@@@__crt_stdio_output@@IEAA_NAEA_J@Z 000000018016ef68 f i libucrt:output.obj
 0001:0016df7c       ??$extract_argument_from_va_list@_J_J@?$standard_base@_WV?$stream_output_adapter@_W@__crt_stdio_output@@@__crt_stdio_output@@IEAA_NAEA_J@Z 000000018016ef7c f i libucrt:output.obj
 0001:0016df90       ??$extract_argument_from_va_list@_J_J@?$standard_base@_WV?$string_output_adapter@_W@__crt_stdio_output@@@__crt_stdio_output@@IEAA_NAEA_J@Z 000000018016ef90 f i libucrt:output.obj
 0001:0016dfa4       ??$extract_argument_from_va_list@_K_J@?$positional_parameter_base@DV?$stream_output_adapter@D@__crt_stdio_output@@@__crt_stdio_output@@IEAA_NAEA_J@Z 000000018016efa4 f i libucrt:output.obj
 0001:0016e060       ??$extract_argument_from_va_list@_K_J@?$positional_parameter_base@DV?$string_output_adapter@D@__crt_stdio_output@@@__crt_stdio_output@@IEAA_NAEA_J@Z 000000018016f060 f i libucrt:output.obj
 0001:0016e11c       ??$extract_argument_from_va_list@_K_J@?$positional_parameter_base@_WV?$stream_output_adapter@_W@__crt_stdio_output@@@__crt_stdio_output@@IEAA_NAEA_J@Z 000000018016f11c f i libucrt:output.obj
 0001:0016e1d8       ??$extract_argument_from_va_list@_K_J@?$positional_parameter_base@_WV?$string_output_adapter@_W@__crt_stdio_output@@@__crt_stdio_output@@IEAA_NAEA_J@Z 000000018016f1d8 f i libucrt:output.obj
 0001:0016e294       ??$extract_argument_from_va_list@_K_J@?$standard_base@DV?$stream_output_adapter@D@__crt_stdio_output@@@__crt_stdio_output@@IEAA_NAEA_J@Z 000000018016f294 f i libucrt:output.obj
 0001:0016e2a8       ??$extract_argument_from_va_list@_K_J@?$standard_base@DV?$string_output_adapter@D@__crt_stdio_output@@@__crt_stdio_output@@IEAA_NAEA_J@Z 000000018016f2a8 f i libucrt:output.obj
 0001:0016e2bc       ??$extract_argument_from_va_list@_K_J@?$standard_base@_WV?$stream_output_adapter@_W@__crt_stdio_output@@@__crt_stdio_output@@IEAA_NAEA_J@Z 000000018016f2bc f i libucrt:output.obj
 0001:0016e2d0       ??$extract_argument_from_va_list@_K_J@?$standard_base@_WV?$string_output_adapter@_W@__crt_stdio_output@@@__crt_stdio_output@@IEAA_NAEA_J@Z 000000018016f2d0 f i libucrt:output.obj
 0001:0016e2e4       ??$extract_argument_from_va_list@_W_W@?$positional_parameter_base@DV?$stream_output_adapter@D@__crt_stdio_output@@@__crt_stdio_output@@IEAA_NAEA_W@Z 000000018016f2e4 f i libucrt:output.obj
 0001:0016e3a0       ??$extract_argument_from_va_list@_W_W@?$positional_parameter_base@DV?$string_output_adapter@D@__crt_stdio_output@@@__crt_stdio_output@@IEAA_NAEA_W@Z 000000018016f3a0 f i libucrt:output.obj
 0001:0016e45c       ??$extract_argument_from_va_list@_W_W@?$positional_parameter_base@_WV?$stream_output_adapter@_W@__crt_stdio_output@@@__crt_stdio_output@@IEAA_NAEA_W@Z 000000018016f45c f i libucrt:output.obj
 0001:0016e51c       ??$extract_argument_from_va_list@_W_W@?$positional_parameter_base@_WV?$string_output_adapter@_W@__crt_stdio_output@@@__crt_stdio_output@@IEAA_NAEA_W@Z 000000018016f51c f i libucrt:output.obj
 0001:0016e5dc       ??$extract_argument_from_va_list@_W_W@?$standard_base@DV?$stream_output_adapter@D@__crt_stdio_output@@@__crt_stdio_output@@IEAA_NAEA_W@Z 000000018016f5dc f i libucrt:output.obj
 0001:0016e5f0       ??$extract_argument_from_va_list@_W_W@?$standard_base@DV?$string_output_adapter@D@__crt_stdio_output@@@__crt_stdio_output@@IEAA_NAEA_W@Z 000000018016f5f0 f i libucrt:output.obj
 0001:0016e604       ??$extract_argument_from_va_list@_W_W@?$standard_base@_WV?$stream_output_adapter@_W@__crt_stdio_output@@@__crt_stdio_output@@IEAA_NAEA_W@Z 000000018016f604 f i libucrt:output.obj
 0001:0016e618       ??$extract_argument_from_va_list@_W_W@?$standard_base@_WV?$string_output_adapter@_W@__crt_stdio_output@@@__crt_stdio_output@@IEAA_NAEA_W@Z 000000018016f618 f i libucrt:output.obj
 0001:0016e62c       ??$get_parameter_type@D@?$positional_parameter_base@DV?$stream_output_adapter@D@__crt_stdio_output@@@__crt_stdio_output@@CA?AW4parameter_type@01@PEAD@Z 000000018016f62c f i libucrt:output.obj
 0001:0016e634       ??$get_parameter_type@D@?$positional_parameter_base@DV?$string_output_adapter@D@__crt_stdio_output@@@__crt_stdio_output@@CA?AW4parameter_type@01@PEAD@Z 000000018016f634 f i libucrt:output.obj
 0001:0016e63c       ??$get_parameter_type@D@?$positional_parameter_base@_WV?$stream_output_adapter@_W@__crt_stdio_output@@@__crt_stdio_output@@CA?AW4parameter_type@01@PEAD@Z 000000018016f63c f i libucrt:output.obj
 0001:0016e644       ??$get_parameter_type@D@?$positional_parameter_base@_WV?$string_output_adapter@_W@__crt_stdio_output@@@__crt_stdio_output@@CA?AW4parameter_type@01@PEAD@Z 000000018016f644 f i libucrt:output.obj
 0001:0016e64c       ??$get_parameter_type@Uansi_string@?1??type_case_Z@?$output_processor@DV?$stream_output_adapter@D@__crt_stdio_output@@V?$positional_parameter_base@DV?$stream_output_adapter@D@__crt_stdio_output@@@2@@__crt_stdio_output@@AEAA_NXZ@@?$positional_parameter_base@DV?$stream_output_adapter@D@__crt_stdio_output@@@__crt_stdio_output@@CA?AW4parameter_type@01@PEAUansi_string@?1??type_case_Z@?$output_processor@DV?$stream_output_adapter@D@__crt_stdio_output@@V?$positional_parameter_base@DV?$stream_output_adapter@D@__crt_stdio_output@@@2@@1@AEAA_NXZ@@Z 000000018016f64c f i libucrt:output.obj
 0001:0016e654       ??$get_parameter_type@Uansi_string@?1??type_case_Z@?$output_processor@DV?$string_output_adapter@D@__crt_stdio_output@@V?$positional_parameter_base@DV?$string_output_adapter@D@__crt_stdio_output@@@2@@__crt_stdio_output@@AEAA_NXZ@@?$positional_parameter_base@DV?$string_output_adapter@D@__crt_stdio_output@@@__crt_stdio_output@@CA?AW4parameter_type@01@PEAUansi_string@?1??type_case_Z@?$output_processor@DV?$string_output_adapter@D@__crt_stdio_output@@V?$positional_parameter_base@DV?$string_output_adapter@D@__crt_stdio_output@@@2@@1@AEAA_NXZ@@Z 000000018016f654 f i libucrt:output.obj
 0001:0016e65c       ??$get_parameter_type@Uansi_string@?1??type_case_Z@?$output_processor@_WV?$stream_output_adapter@_W@__crt_stdio_output@@V?$positional_parameter_base@_WV?$stream_output_adapter@_W@__crt_stdio_output@@@2@@__crt_stdio_output@@AEAA_NXZ@@?$positional_parameter_base@_WV?$stream_output_adapter@_W@__crt_stdio_output@@@__crt_stdio_output@@CA?AW4parameter_type@01@PEAUansi_string@?1??type_case_Z@?$output_processor@_WV?$stream_output_adapter@_W@__crt_stdio_output@@V?$positional_parameter_base@_WV?$stream_output_adapter@_W@__crt_stdio_output@@@2@@1@AEAA_NXZ@@Z 000000018016f65c f i libucrt:output.obj
 0001:0016e664       ??$get_parameter_type@Uansi_string@?1??type_case_Z@?$output_processor@_WV?$string_output_adapter@_W@__crt_stdio_output@@V?$positional_parameter_base@_WV?$string_output_adapter@_W@__crt_stdio_output@@@2@@__crt_stdio_output@@AEAA_NXZ@@?$positional_parameter_base@_WV?$string_output_adapter@_W@__crt_stdio_output@@@__crt_stdio_output@@CA?AW4parameter_type@01@PEAUansi_string@?1??type_case_Z@?$output_processor@_WV?$string_output_adapter@_W@__crt_stdio_output@@V?$positional_parameter_base@_WV?$string_output_adapter@_W@__crt_stdio_output@@@2@@1@AEAA_NXZ@@Z 000000018016f664 f i libucrt:output.obj
 0001:0016e66c       ??$get_parameter_type@X@?$positional_parameter_base@DV?$stream_output_adapter@D@__crt_stdio_output@@@__crt_stdio_output@@CA?AW4parameter_type@01@PEAX@Z 000000018016f66c f i libucrt:output.obj
 0001:0016e674       ??$get_parameter_type@X@?$positional_parameter_base@DV?$string_output_adapter@D@__crt_stdio_output@@@__crt_stdio_output@@CA?AW4parameter_type@01@PEAX@Z 000000018016f674 f i libucrt:output.obj
 0001:0016e67c       ??$get_parameter_type@X@?$positional_parameter_base@_WV?$stream_output_adapter@_W@__crt_stdio_output@@@__crt_stdio_output@@CA?AW4parameter_type@01@PEAX@Z 000000018016f67c f i libucrt:output.obj
 0001:0016e684       ??$get_parameter_type@X@?$positional_parameter_base@_WV?$string_output_adapter@_W@__crt_stdio_output@@@__crt_stdio_output@@CA?AW4parameter_type@01@PEAX@Z 000000018016f684 f i libucrt:output.obj
 0001:0016e68c       ??$is_character_specifier@D@?$positional_parameter_base@DV?$stream_output_adapter@D@__crt_stdio_output@@@__crt_stdio_output@@CA_ND@Z 000000018016f68c f i libucrt:output.obj
 0001:0016e698       ??$is_character_specifier@D@?$positional_parameter_base@DV?$string_output_adapter@D@__crt_stdio_output@@@__crt_stdio_output@@CA_ND@Z 000000018016f698 f i libucrt:output.obj
 0001:0016e6a4       ??$is_character_specifier@_W@?$positional_parameter_base@_WV?$stream_output_adapter@_W@__crt_stdio_output@@@__crt_stdio_output@@CA_N_W@Z 000000018016f6a4 f i libucrt:output.obj
 0001:0016e6b4       ??$is_character_specifier@_W@?$positional_parameter_base@_WV?$string_output_adapter@_W@__crt_stdio_output@@@__crt_stdio_output@@CA_N_W@Z 000000018016f6b4 f i libucrt:output.obj
 0001:0016e6c4       ??$is_integral_specifier@D@?$positional_parameter_base@DV?$stream_output_adapter@D@__crt_stdio_output@@@__crt_stdio_output@@CA_ND@Z 000000018016f6c4 f i libucrt:output.obj
 0001:0016e6e8       ??$is_integral_specifier@D@?$positional_parameter_base@DV?$string_output_adapter@D@__crt_stdio_output@@@__crt_stdio_output@@CA_ND@Z 000000018016f6e8 f i libucrt:output.obj
 0001:0016e70c       ??$is_integral_specifier@_W@?$positional_parameter_base@_WV?$stream_output_adapter@_W@__crt_stdio_output@@@__crt_stdio_output@@CA_N_W@Z 000000018016f70c f i libucrt:output.obj
 0001:0016e734       ??$is_integral_specifier@_W@?$positional_parameter_base@_WV?$string_output_adapter@_W@__crt_stdio_output@@@__crt_stdio_output@@CA_N_W@Z 000000018016f734 f i libucrt:output.obj
 0001:0016e75c       ??$is_pointer_specifier@D@?$positional_parameter_base@DV?$stream_output_adapter@D@__crt_stdio_output@@@__crt_stdio_output@@CA_ND@Z 000000018016f75c f i libucrt:output.obj
 0001:0016e764       ??$is_pointer_specifier@D@?$positional_parameter_base@DV?$string_output_adapter@D@__crt_stdio_output@@@__crt_stdio_output@@CA_ND@Z 000000018016f764 f i libucrt:output.obj
 0001:0016e76c       ??$is_pointer_specifier@_W@?$positional_parameter_base@_WV?$stream_output_adapter@_W@__crt_stdio_output@@@__crt_stdio_output@@CA_N_W@Z 000000018016f76c f i libucrt:output.obj
 0001:0016e774       ??$is_pointer_specifier@_W@?$positional_parameter_base@_WV?$string_output_adapter@_W@__crt_stdio_output@@@__crt_stdio_output@@CA_N_W@Z 000000018016f774 f i libucrt:output.obj
 0001:0016e77c       ??$is_string_specifier@D@?$positional_parameter_base@DV?$stream_output_adapter@D@__crt_stdio_output@@@__crt_stdio_output@@CA_ND@Z 000000018016f77c f i libucrt:output.obj
 0001:0016e788       ??$is_string_specifier@D@?$positional_parameter_base@DV?$string_output_adapter@D@__crt_stdio_output@@@__crt_stdio_output@@CA_ND@Z 000000018016f788 f i libucrt:output.obj
 0001:0016e794       ??$is_string_specifier@_W@?$positional_parameter_base@_WV?$stream_output_adapter@_W@__crt_stdio_output@@@__crt_stdio_output@@CA_N_W@Z 000000018016f794 f i libucrt:output.obj
 0001:0016e7a4       ??$is_string_specifier@_W@?$positional_parameter_base@_WV?$string_output_adapter@_W@__crt_stdio_output@@@__crt_stdio_output@@CA_N_W@Z 000000018016f7a4 f i libucrt:output.obj
 0001:0016e7b4       ??$is_wide_character_specifier@D@__crt_stdio_output@@YA_N_KDW4length_modifier@0@@Z 000000018016f7b4 f i libucrt:output.obj
 0001:0016e7dc       ??$is_wide_character_specifier@_W@__crt_stdio_output@@YA_N_K_WW4length_modifier@0@@Z 000000018016f7dc f i libucrt:output.obj
 0001:0016e81c       ??$peek_va_arg@C@__crt_stdio_output@@YACPEAD@Z 000000018016f81c f i libucrt:output.obj
 0001:0016e820       ??$peek_va_arg@E@__crt_stdio_output@@YAEPEAD@Z 000000018016f820 f i libucrt:output.obj
 0001:0016e824       ??$peek_va_arg@F@__crt_stdio_output@@YAFPEAD@Z 000000018016f824 f i libucrt:output.obj
 0001:0016e828       ??$peek_va_arg@G@__crt_stdio_output@@YAGPEAD@Z 000000018016f828 f i libucrt:output.obj
 0001:0016e82c       ??$peek_va_arg@H@__crt_stdio_output@@YAHPEAD@Z 000000018016f82c f i libucrt:output.obj
 0001:0016e830       ??$peek_va_arg@I@__crt_stdio_output@@YAIPEAD@Z 000000018016f830 f i libucrt:output.obj
 0001:0016e834       ??$peek_va_arg@PEAD@__crt_stdio_output@@YAPEADPEAD@Z 000000018016f834 f i libucrt:output.obj
 0001:0016e838       ??$peek_va_arg@PEAUansi_string@?1??type_case_Z@?$output_processor@DV?$stream_output_adapter@D@__crt_stdio_output@@V?$positional_parameter_base@DV?$stream_output_adapter@D@__crt_stdio_output@@@2@@__crt_stdio_output@@AEAA_NXZ@@__crt_stdio_output@@YAPEAUansi_string@?1??type_case_Z@?$output_processor@DV?$stream_output_adapter@D@__crt_stdio_output@@V?$positional_parameter_base@DV?$stream_output_adapter@D@__crt_stdio_output@@@2@@0@AEAA_NXZ@PEAD@Z 000000018016f838 f i libucrt:output.obj
 0001:0016e83c       ??$peek_va_arg@PEAUansi_string@?1??type_case_Z@?$output_processor@DV?$string_output_adapter@D@__crt_stdio_output@@V?$positional_parameter_base@DV?$string_output_adapter@D@__crt_stdio_output@@@2@@__crt_stdio_output@@AEAA_NXZ@@__crt_stdio_output@@YAPEAUansi_string@?1??type_case_Z@?$output_processor@DV?$string_output_adapter@D@__crt_stdio_output@@V?$positional_parameter_base@DV?$string_output_adapter@D@__crt_stdio_output@@@2@@0@AEAA_NXZ@PEAD@Z 000000018016f83c f i libucrt:output.obj
 0001:0016e840       ??$peek_va_arg@PEAUansi_string@?1??type_case_Z@?$output_processor@_WV?$stream_output_adapter@_W@__crt_stdio_output@@V?$positional_parameter_base@_WV?$stream_output_adapter@_W@__crt_stdio_output@@@2@@__crt_stdio_output@@AEAA_NXZ@@__crt_stdio_output@@YAPEAUansi_string@?1??type_case_Z@?$output_processor@_WV?$stream_output_adapter@_W@__crt_stdio_output@@V?$positional_parameter_base@_WV?$stream_output_adapter@_W@__crt_stdio_output@@@2@@0@AEAA_NXZ@PEAD@Z 000000018016f840 f i libucrt:output.obj
 0001:0016e844       ??$peek_va_arg@PEAUansi_string@?1??type_case_Z@?$output_processor@_WV?$string_output_adapter@_W@__crt_stdio_output@@V?$positional_parameter_base@_WV?$string_output_adapter@_W@__crt_stdio_output@@@2@@__crt_stdio_output@@AEAA_NXZ@@__crt_stdio_output@@YAPEAUansi_string@?1??type_case_Z@?$output_processor@_WV?$string_output_adapter@_W@__crt_stdio_output@@V?$positional_parameter_base@_WV?$string_output_adapter@_W@__crt_stdio_output@@@2@@0@AEAA_NXZ@PEAD@Z 000000018016f844 f i libucrt:output.obj
 0001:0016e848       ??$peek_va_arg@PEAX@__crt_stdio_output@@YAPEAXPEAD@Z 000000018016f848 f i libucrt:output.obj
 0001:0016e84c       ??$peek_va_arg@U_CRT_DOUBLE@@@__crt_stdio_output@@YA?AU_CRT_DOUBLE@@PEAD@Z 000000018016f84c f i libucrt:output.obj
 0001:0016e850       ??$peek_va_arg@_J@__crt_stdio_output@@YA_JPEAD@Z 000000018016f850 f i libucrt:output.obj
 0001:0016e854       ??$peek_va_arg@_K@__crt_stdio_output@@YA_KPEAD@Z 000000018016f854 f i libucrt:output.obj
 0001:0016e858       ??$peek_va_arg@_W@__crt_stdio_output@@YA_WPEAD@Z 000000018016f858 f i libucrt:output.obj
 0001:0016e85c       ??$puttc_nolock@AEBDPEAU_iobuf@@@?$__crt_char_traits@D@@SAHAEBD$$QEAPEAU_iobuf@@@Z 000000018016f85c f i libucrt:output.obj
 0001:0016e868       ??$puttc_nolock@AEB_WPEAU_iobuf@@@?$__crt_char_traits@_W@@SAGAEB_W$$QEAPEAU_iobuf@@@Z 000000018016f868 f i libucrt:output.obj
 0001:0016e874       ??$read_va_arg@C@__crt_stdio_output@@YACAEAPEAD@Z 000000018016f874 f i libucrt:output.obj
 0001:0016e880       ??$read_va_arg@E@__crt_stdio_output@@YAEAEAPEAD@Z 000000018016f880 f i libucrt:output.obj
 0001:0016e88c       ??$read_va_arg@F@__crt_stdio_output@@YAFAEAPEAD@Z 000000018016f88c f i libucrt:output.obj
 0001:0016e898       ??$read_va_arg@G@__crt_stdio_output@@YAGAEAPEAD@Z 000000018016f898 f i libucrt:output.obj
 0001:0016e8a4       ??$read_va_arg@H@__crt_stdio_output@@YAHAEAPEAD@Z 000000018016f8a4 f i libucrt:output.obj
 0001:0016e8b0       ??$read_va_arg@I@__crt_stdio_output@@YAIAEAPEAD@Z 000000018016f8b0 f i libucrt:output.obj
 0001:0016e8bc       ??$read_va_arg@PEAD@__crt_stdio_output@@YAPEADAEAPEAD@Z 000000018016f8bc f i libucrt:output.obj
 0001:0016e8c8       ??$read_va_arg@PEAUansi_string@?1??type_case_Z@?$output_processor@DV?$stream_output_adapter@D@__crt_stdio_output@@V?$format_validation_base@DV?$stream_output_adapter@D@__crt_stdio_output@@@2@@__crt_stdio_output@@AEAA_NXZ@@__crt_stdio_output@@YAPEAUansi_string@?1??type_case_Z@?$output_processor@DV?$stream_output_adapter@D@__crt_stdio_output@@V?$format_validation_base@DV?$stream_output_adapter@D@__crt_stdio_output@@@2@@0@AEAA_NXZ@AEAPEAD@Z 000000018016f8c8 f i libucrt:output.obj
 0001:0016e8d4       ??$read_va_arg@PEAUansi_string@?1??type_case_Z@?$output_processor@DV?$stream_output_adapter@D@__crt_stdio_output@@V?$positional_parameter_base@DV?$stream_output_adapter@D@__crt_stdio_output@@@2@@__crt_stdio_output@@AEAA_NXZ@@__crt_stdio_output@@YAPEAUansi_string@?1??type_case_Z@?$output_processor@DV?$stream_output_adapter@D@__crt_stdio_output@@V?$positional_parameter_base@DV?$stream_output_adapter@D@__crt_stdio_output@@@2@@0@AEAA_NXZ@AEAPEAD@Z 000000018016f8d4 f i libucrt:output.obj
 0001:0016e8e0       ??$read_va_arg@PEAUansi_string@?1??type_case_Z@?$output_processor@DV?$stream_output_adapter@D@__crt_stdio_output@@V?$standard_base@DV?$stream_output_adapter@D@__crt_stdio_output@@@2@@__crt_stdio_output@@AEAA_NXZ@@__crt_stdio_output@@YAPEAUansi_string@?1??type_case_Z@?$output_processor@DV?$stream_output_adapter@D@__crt_stdio_output@@V?$standard_base@DV?$stream_output_adapter@D@__crt_stdio_output@@@2@@0@AEAA_NXZ@AEAPEAD@Z 000000018016f8e0 f i libucrt:output.obj
 0001:0016e8ec       ??$read_va_arg@PEAUansi_string@?1??type_case_Z@?$output_processor@DV?$string_output_adapter@D@__crt_stdio_output@@V?$format_validation_base@DV?$string_output_adapter@D@__crt_stdio_output@@@2@@__crt_stdio_output@@AEAA_NXZ@@__crt_stdio_output@@YAPEAUansi_string@?1??type_case_Z@?$output_processor@DV?$string_output_adapter@D@__crt_stdio_output@@V?$format_validation_base@DV?$string_output_adapter@D@__crt_stdio_output@@@2@@0@AEAA_NXZ@AEAPEAD@Z 000000018016f8ec f i libucrt:output.obj
 0001:0016e8f8       ??$read_va_arg@PEAUansi_string@?1??type_case_Z@?$output_processor@DV?$string_output_adapter@D@__crt_stdio_output@@V?$positional_parameter_base@DV?$string_output_adapter@D@__crt_stdio_output@@@2@@__crt_stdio_output@@AEAA_NXZ@@__crt_stdio_output@@YAPEAUansi_string@?1??type_case_Z@?$output_processor@DV?$string_output_adapter@D@__crt_stdio_output@@V?$positional_parameter_base@DV?$string_output_adapter@D@__crt_stdio_output@@@2@@0@AEAA_NXZ@AEAPEAD@Z 000000018016f8f8 f i libucrt:output.obj
 0001:0016e904       ??$read_va_arg@PEAUansi_string@?1??type_case_Z@?$output_processor@DV?$string_output_adapter@D@__crt_stdio_output@@V?$standard_base@DV?$string_output_adapter@D@__crt_stdio_output@@@2@@__crt_stdio_output@@AEAA_NXZ@@__crt_stdio_output@@YAPEAUansi_string@?1??type_case_Z@?$output_processor@DV?$string_output_adapter@D@__crt_stdio_output@@V?$standard_base@DV?$string_output_adapter@D@__crt_stdio_output@@@2@@0@AEAA_NXZ@AEAPEAD@Z 000000018016f904 f i libucrt:output.obj
 0001:0016e910       ??$read_va_arg@PEAUansi_string@?1??type_case_Z@?$output_processor@_WV?$stream_output_adapter@_W@__crt_stdio_output@@V?$format_validation_base@_WV?$stream_output_adapter@_W@__crt_stdio_output@@@2@@__crt_stdio_output@@AEAA_NXZ@@__crt_stdio_output@@YAPEAUansi_string@?1??type_case_Z@?$output_processor@_WV?$stream_output_adapter@_W@__crt_stdio_output@@V?$format_validation_base@_WV?$stream_output_adapter@_W@__crt_stdio_output@@@2@@0@AEAA_NXZ@AEAPEAD@Z 000000018016f910 f i libucrt:output.obj
 0001:0016e91c       ??$read_va_arg@PEAUansi_string@?1??type_case_Z@?$output_processor@_WV?$stream_output_adapter@_W@__crt_stdio_output@@V?$positional_parameter_base@_WV?$stream_output_adapter@_W@__crt_stdio_output@@@2@@__crt_stdio_output@@AEAA_NXZ@@__crt_stdio_output@@YAPEAUansi_string@?1??type_case_Z@?$output_processor@_WV?$stream_output_adapter@_W@__crt_stdio_output@@V?$positional_parameter_base@_WV?$stream_output_adapter@_W@__crt_stdio_output@@@2@@0@AEAA_NXZ@AEAPEAD@Z 000000018016f91c f i libucrt:output.obj
 0001:0016e928       ??$read_va_arg@PEAUansi_string@?1??type_case_Z@?$output_processor@_WV?$stream_output_adapter@_W@__crt_stdio_output@@V?$standard_base@_WV?$stream_output_adapter@_W@__crt_stdio_output@@@2@@__crt_stdio_output@@AEAA_NXZ@@__crt_stdio_output@@YAPEAUansi_string@?1??type_case_Z@?$output_processor@_WV?$stream_output_adapter@_W@__crt_stdio_output@@V?$standard_base@_WV?$stream_output_adapter@_W@__crt_stdio_output@@@2@@0@AEAA_NXZ@AEAPEAD@Z 000000018016f928 f i libucrt:output.obj
 0001:0016e934       ??$read_va_arg@PEAUansi_string@?1??type_case_Z@?$output_processor@_WV?$string_output_adapter@_W@__crt_stdio_output@@V?$format_validation_base@_WV?$string_output_adapter@_W@__crt_stdio_output@@@2@@__crt_stdio_output@@AEAA_NXZ@@__crt_stdio_output@@YAPEAUansi_string@?1??type_case_Z@?$output_processor@_WV?$string_output_adapter@_W@__crt_stdio_output@@V?$format_validation_base@_WV?$string_output_adapter@_W@__crt_stdio_output@@@2@@0@AEAA_NXZ@AEAPEAD@Z 000000018016f934 f i libucrt:output.obj
 0001:0016e940       ??$read_va_arg@PEAUansi_string@?1??type_case_Z@?$output_processor@_WV?$string_output_adapter@_W@__crt_stdio_output@@V?$positional_parameter_base@_WV?$string_output_adapter@_W@__crt_stdio_output@@@2@@__crt_stdio_output@@AEAA_NXZ@@__crt_stdio_output@@YAPEAUansi_string@?1??type_case_Z@?$output_processor@_WV?$string_output_adapter@_W@__crt_stdio_output@@V?$positional_parameter_base@_WV?$string_output_adapter@_W@__crt_stdio_output@@@2@@0@AEAA_NXZ@AEAPEAD@Z 000000018016f940 f i libucrt:output.obj
 0001:0016e94c       ??$read_va_arg@PEAUansi_string@?1??type_case_Z@?$output_processor@_WV?$string_output_adapter@_W@__crt_stdio_output@@V?$standard_base@_WV?$string_output_adapter@_W@__crt_stdio_output@@@2@@__crt_stdio_output@@AEAA_NXZ@@__crt_stdio_output@@YAPEAUansi_string@?1??type_case_Z@?$output_processor@_WV?$string_output_adapter@_W@__crt_stdio_output@@V?$standard_base@_WV?$string_output_adapter@_W@__crt_stdio_output@@@2@@0@AEAA_NXZ@AEAPEAD@Z 000000018016f94c f i libucrt:output.obj
 0001:0016e958       ??$read_va_arg@PEAX@__crt_stdio_output@@YAPEAXAEAPEAD@Z 000000018016f958 f i libucrt:output.obj
 0001:0016e964       ??$read_va_arg@U_CRT_DOUBLE@@@__crt_stdio_output@@YA?AU_CRT_DOUBLE@@AEAPEAD@Z 000000018016f964 f i libucrt:output.obj
 0001:0016e970       ??$read_va_arg@_J@__crt_stdio_output@@YA_JAEAPEAD@Z 000000018016f970 f i libucrt:output.obj
 0001:0016e97c       ??$read_va_arg@_K@__crt_stdio_output@@YA_KAEAPEAD@Z 000000018016f97c f i libucrt:output.obj
 0001:0016e988       ??$read_va_arg@_W@__crt_stdio_output@@YA_WAEAPEAD@Z 000000018016f988 f i libucrt:output.obj
 0001:0016e994       ??$scratch_count@D@formatting_buffer@__crt_stdio_output@@QEBA_KXZ 000000018016f994 f i libucrt:output.obj
 0001:0016e9b0       ??$scratch_data@D@formatting_buffer@__crt_stdio_output@@QEAAPEADXZ 000000018016f9b0 f i libucrt:output.obj
 0001:0016e9d4       ??$tcstol@AEAPEBDPEAPEADH@?$__crt_char_traits@D@@SAJAEAPEBD$$QEAPEAPEAD$$QEAH@Z 000000018016f9d4 f i libucrt:output.obj
 0001:0016e9e4       ??$tcstol@AEAPEB_WPEAPEA_WH@?$__crt_char_traits@_W@@SAJAEAPEB_W$$QEAPEAPEA_W$$QEAH@Z 000000018016f9e4 f i libucrt:output.obj
 0001:0016e9f4       ??$tcstol@PEBDPEAPEADH@?$__crt_char_traits@D@@SAJ$$QEAPEBD$$QEAPEAPEAD$$QEAH@Z 000000018016f9f4 f i libucrt:output.obj
 0001:0016ea04       ??$tcstol@PEB_WPEAPEA_WH@?$__crt_char_traits@_W@@SAJ$$QEAPEB_W$$QEAPEAPEA_W$$QEAH@Z 000000018016fa04 f i libucrt:output.obj
 0001:0016ea14       ??$type_case_integer_parse_into_buffer@I@?$output_processor@DV?$stream_output_adapter@D@__crt_stdio_output@@V?$format_validation_base@DV?$stream_output_adapter@D@__crt_stdio_output@@@2@@__crt_stdio_output@@AEAAXII_N@Z 000000018016fa14 f i libucrt:output.obj
 0001:0016ea9c       ??$type_case_integer_parse_into_buffer@I@?$output_processor@DV?$stream_output_adapter@D@__crt_stdio_output@@V?$positional_parameter_base@DV?$stream_output_adapter@D@__crt_stdio_output@@@2@@__crt_stdio_output@@AEAAXII_N@Z 000000018016fa9c f i libucrt:output.obj
 0001:0016eb24       ??$type_case_integer_parse_into_buffer@I@?$output_processor@DV?$stream_output_adapter@D@__crt_stdio_output@@V?$standard_base@DV?$stream_output_adapter@D@__crt_stdio_output@@@2@@__crt_stdio_output@@AEAAXII_N@Z 000000018016fb24 f i libucrt:output.obj
 0001:0016ebac       ??$type_case_integer_parse_into_buffer@I@?$output_processor@DV?$string_output_adapter@D@__crt_stdio_output@@V?$format_validation_base@DV?$string_output_adapter@D@__crt_stdio_output@@@2@@__crt_stdio_output@@AEAAXII_N@Z 000000018016fbac f i libucrt:output.obj
 0001:0016ec34       ??$type_case_integer_parse_into_buffer@I@?$output_processor@DV?$string_output_adapter@D@__crt_stdio_output@@V?$positional_parameter_base@DV?$string_output_adapter@D@__crt_stdio_output@@@2@@__crt_stdio_output@@AEAAXII_N@Z 000000018016fc34 f i libucrt:output.obj
 0001:0016ecbc       ??$type_case_integer_parse_into_buffer@I@?$output_processor@DV?$string_output_adapter@D@__crt_stdio_output@@V?$standard_base@DV?$string_output_adapter@D@__crt_stdio_output@@@2@@__crt_stdio_output@@AEAAXII_N@Z 000000018016fcbc f i libucrt:output.obj
 0001:0016ed44       ??$type_case_integer_parse_into_buffer@I@?$output_processor@_WV?$stream_output_adapter@_W@__crt_stdio_output@@V?$format_validation_base@_WV?$stream_output_adapter@_W@__crt_stdio_output@@@2@@__crt_stdio_output@@AEAAXII_N@Z 000000018016fd44 f i libucrt:output.obj
 0001:0016ede8       ??$type_case_integer_parse_into_buffer@I@?$output_processor@_WV?$stream_output_adapter@_W@__crt_stdio_output@@V?$positional_parameter_base@_WV?$stream_output_adapter@_W@__crt_stdio_output@@@2@@__crt_stdio_output@@AEAAXII_N@Z 000000018016fde8 f i libucrt:output.obj
 0001:0016ee8c       ??$type_case_integer_parse_into_buffer@I@?$output_processor@_WV?$stream_output_adapter@_W@__crt_stdio_output@@V?$standard_base@_WV?$stream_output_adapter@_W@__crt_stdio_output@@@2@@__crt_stdio_output@@AEAAXII_N@Z 000000018016fe8c f i libucrt:output.obj
 0001:0016ef30       ??$type_case_integer_parse_into_buffer@I@?$output_processor@_WV?$string_output_adapter@_W@__crt_stdio_output@@V?$format_validation_base@_WV?$string_output_adapter@_W@__crt_stdio_output@@@2@@__crt_stdio_output@@AEAAXII_N@Z 000000018016ff30 f i libucrt:output.obj
 0001:0016efd4       ??$type_case_integer_parse_into_buffer@I@?$output_processor@_WV?$string_output_adapter@_W@__crt_stdio_output@@V?$positional_parameter_base@_WV?$string_output_adapter@_W@__crt_stdio_output@@@2@@__crt_stdio_output@@AEAAXII_N@Z 000000018016ffd4 f i libucrt:output.obj
 0001:0016f078       ??$type_case_integer_parse_into_buffer@I@?$output_processor@_WV?$string_output_adapter@_W@__crt_stdio_output@@V?$standard_base@_WV?$string_output_adapter@_W@__crt_stdio_output@@@2@@__crt_stdio_output@@AEAAXII_N@Z 0000000180170078 f i libucrt:output.obj
 0001:0016f11c       ??$type_case_integer_parse_into_buffer@_K@?$output_processor@DV?$stream_output_adapter@D@__crt_stdio_output@@V?$format_validation_base@DV?$stream_output_adapter@D@__crt_stdio_output@@@2@@__crt_stdio_output@@AEAAX_KI_N@Z 000000018017011c f i libucrt:output.obj
 0001:0016f1ac       ??$type_case_integer_parse_into_buffer@_K@?$output_processor@DV?$stream_output_adapter@D@__crt_stdio_output@@V?$positional_parameter_base@DV?$stream_output_adapter@D@__crt_stdio_output@@@2@@__crt_stdio_output@@AEAAX_KI_N@Z 00000001801701ac f i libucrt:output.obj
 0001:0016f23c       ??$type_case_integer_parse_into_buffer@_K@?$output_processor@DV?$stream_output_adapter@D@__crt_stdio_output@@V?$standard_base@DV?$stream_output_adapter@D@__crt_stdio_output@@@2@@__crt_stdio_output@@AEAAX_KI_N@Z 000000018017023c f i libucrt:output.obj
 0001:0016f2cc       ??$type_case_integer_parse_into_buffer@_K@?$output_processor@DV?$string_output_adapter@D@__crt_stdio_output@@V?$format_validation_base@DV?$string_output_adapter@D@__crt_stdio_output@@@2@@__crt_stdio_output@@AEAAX_KI_N@Z 00000001801702cc f i libucrt:output.obj
 0001:0016f35c       ??$type_case_integer_parse_into_buffer@_K@?$output_processor@DV?$string_output_adapter@D@__crt_stdio_output@@V?$positional_parameter_base@DV?$string_output_adapter@D@__crt_stdio_output@@@2@@__crt_stdio_output@@AEAAX_KI_N@Z 000000018017035c f i libucrt:output.obj
 0001:0016f3ec       ??$type_case_integer_parse_into_buffer@_K@?$output_processor@DV?$string_output_adapter@D@__crt_stdio_output@@V?$standard_base@DV?$string_output_adapter@D@__crt_stdio_output@@@2@@__crt_stdio_output@@AEAAX_KI_N@Z 00000001801703ec f i libucrt:output.obj
 0001:0016f47c       ??$type_case_integer_parse_into_buffer@_K@?$output_processor@_WV?$stream_output_adapter@_W@__crt_stdio_output@@V?$format_validation_base@_WV?$stream_output_adapter@_W@__crt_stdio_output@@@2@@__crt_stdio_output@@AEAAX_KI_N@Z 000000018017047c f i libucrt:output.obj
 0001:0016f520       ??$type_case_integer_parse_into_buffer@_K@?$output_processor@_WV?$stream_output_adapter@_W@__crt_stdio_output@@V?$positional_parameter_base@_WV?$stream_output_adapter@_W@__crt_stdio_output@@@2@@__crt_stdio_output@@AEAAX_KI_N@Z 0000000180170520 f i libucrt:output.obj
 0001:0016f5c4       ??$type_case_integer_parse_into_buffer@_K@?$output_processor@_WV?$stream_output_adapter@_W@__crt_stdio_output@@V?$standard_base@_WV?$stream_output_adapter@_W@__crt_stdio_output@@@2@@__crt_stdio_output@@AEAAX_KI_N@Z 00000001801705c4 f i libucrt:output.obj
 0001:0016f668       ??$type_case_integer_parse_into_buffer@_K@?$output_processor@_WV?$string_output_adapter@_W@__crt_stdio_output@@V?$format_validation_base@_WV?$string_output_adapter@_W@__crt_stdio_output@@@2@@__crt_stdio_output@@AEAAX_KI_N@Z 0000000180170668 f i libucrt:output.obj
 0001:0016f70c       ??$type_case_integer_parse_into_buffer@_K@?$output_processor@_WV?$string_output_adapter@_W@__crt_stdio_output@@V?$positional_parameter_base@_WV?$string_output_adapter@_W@__crt_stdio_output@@@2@@__crt_stdio_output@@AEAAX_KI_N@Z 000000018017070c f i libucrt:output.obj
 0001:0016f7b0       ??$type_case_integer_parse_into_buffer@_K@?$output_processor@_WV?$string_output_adapter@_W@__crt_stdio_output@@V?$standard_base@_WV?$string_output_adapter@_W@__crt_stdio_output@@@2@@__crt_stdio_output@@AEAAX_KI_N@Z 00000001801707b0 f i libucrt:output.obj
 0001:0016f854       ??$write_multiple_characters@V?$stream_output_adapter@D@__crt_stdio_output@@D@__crt_stdio_output@@YAXAEBV?$stream_output_adapter@D@0@DHQEAH@Z 0000000180170854 f i libucrt:output.obj
 0001:0016f8e0       ??$write_multiple_characters@V?$stream_output_adapter@_W@__crt_stdio_output@@D@__crt_stdio_output@@YAXAEBV?$stream_output_adapter@_W@0@DHQEAH@Z 00000001801708e0 f i libucrt:output.obj
 0001:0016f974       ??$write_multiple_characters@V?$string_output_adapter@D@__crt_stdio_output@@D@__crt_stdio_output@@YAXAEBV?$string_output_adapter@D@0@DHQEAH@Z 0000000180170974 f i libucrt:output.obj
 0001:0016f9ec       ??$write_multiple_characters@V?$string_output_adapter@_W@__crt_stdio_output@@D@__crt_stdio_output@@YAXAEBV?$string_output_adapter@_W@0@DHQEAH@Z 00000001801709ec f i libucrt:output.obj
 0001:0016fbcc       ??0?$common_data@D@__crt_stdio_output@@IEAA@XZ 0000000180170bcc f i libucrt:output.obj
 0001:0016fc08       ??0?$common_data@_W@__crt_stdio_output@@IEAA@XZ 0000000180170c08 f i libucrt:output.obj
 0001:0016fc48       ??0?$output_adapter_data@DV?$stream_output_adapter@D@__crt_stdio_output@@@__crt_stdio_output@@IEAA@AEBV?$stream_output_adapter@D@1@_KQEBDQEAU__crt_locale_pointers@@QEAD@Z 0000000180170c48 f i libucrt:output.obj
 0001:0016fca8       ??0?$output_adapter_data@DV?$string_output_adapter@D@__crt_stdio_output@@@__crt_stdio_output@@IEAA@AEBV?$string_output_adapter@D@1@_KQEBDQEAU__crt_locale_pointers@@QEAD@Z 0000000180170ca8 f i libucrt:output.obj
 0001:0016fd08       ??0?$output_adapter_data@_WV?$stream_output_adapter@_W@__crt_stdio_output@@@__crt_stdio_output@@IEAA@AEBV?$stream_output_adapter@_W@1@_KQEB_WQEAU__crt_locale_pointers@@QEAD@Z 0000000180170d08 f i libucrt:output.obj
 0001:0016fd6c       ??0?$output_adapter_data@_WV?$string_output_adapter@_W@__crt_stdio_output@@@__crt_stdio_output@@IEAA@AEBV?$string_output_adapter@_W@1@_KQEB_WQEAU__crt_locale_pointers@@QEAD@Z 0000000180170d6c f i libucrt:output.obj
 0001:0016fdd0       ??0?$output_processor@DV?$stream_output_adapter@D@__crt_stdio_output@@V?$format_validation_base@DV?$stream_output_adapter@D@__crt_stdio_output@@@2@@__crt_stdio_output@@QEAA@AEBV?$stream_output_adapter@D@1@_KQEBDQEAU__crt_locale_pointers@@QEAD@Z 0000000180170dd0 f i libucrt:output.obj
 0001:0016fe3c       ??0?$output_processor@DV?$stream_output_adapter@D@__crt_stdio_output@@V?$positional_parameter_base@DV?$stream_output_adapter@D@__crt_stdio_output@@@2@@__crt_stdio_output@@QEAA@AEBV?$stream_output_adapter@D@1@_KQEBDQEAU__crt_locale_pointers@@QEAD@Z 0000000180170e3c f i libucrt:output.obj
 0001:0016fec4       ??0?$output_processor@DV?$stream_output_adapter@D@__crt_stdio_output@@V?$standard_base@DV?$stream_output_adapter@D@__crt_stdio_output@@@2@@__crt_stdio_output@@QEAA@AEBV?$stream_output_adapter@D@1@_KQEBDQEAU__crt_locale_pointers@@QEAD@Z 0000000180170ec4 f i libucrt:output.obj
 0001:0016ff30       ??0?$output_processor@DV?$string_output_adapter@D@__crt_stdio_output@@V?$format_validation_base@DV?$string_output_adapter@D@__crt_stdio_output@@@2@@__crt_stdio_output@@QEAA@AEBV?$string_output_adapter@D@1@_KQEBDQEAU__crt_locale_pointers@@QEAD@Z 0000000180170f30 f i libucrt:output.obj
 0001:0016ff9c       ??0?$output_processor@DV?$string_output_adapter@D@__crt_stdio_output@@V?$positional_parameter_base@DV?$string_output_adapter@D@__crt_stdio_output@@@2@@__crt_stdio_output@@QEAA@AEBV?$string_output_adapter@D@1@_KQEBDQEAU__crt_locale_pointers@@QEAD@Z 0000000180170f9c f i libucrt:output.obj
 0001:00170024       ??0?$output_processor@DV?$string_output_adapter@D@__crt_stdio_output@@V?$standard_base@DV?$string_output_adapter@D@__crt_stdio_output@@@2@@__crt_stdio_output@@QEAA@AEBV?$string_output_adapter@D@1@_KQEBDQEAU__crt_locale_pointers@@QEAD@Z 0000000180171024 f i libucrt:output.obj
 0001:00170090       ??0?$output_processor@_WV?$stream_output_adapter@_W@__crt_stdio_output@@V?$format_validation_base@_WV?$stream_output_adapter@_W@__crt_stdio_output@@@2@@__crt_stdio_output@@QEAA@AEBV?$stream_output_adapter@_W@1@_KQEB_WQEAU__crt_locale_pointers@@QEAD@Z 0000000180171090 f i libucrt:output.obj
 0001:00170100       ??0?$output_processor@_WV?$stream_output_adapter@_W@__crt_stdio_output@@V?$positional_parameter_base@_WV?$stream_output_adapter@_W@__crt_stdio_output@@@2@@__crt_stdio_output@@QEAA@AEBV?$stream_output_adapter@_W@1@_KQEB_WQEAU__crt_locale_pointers@@QEAD@Z 0000000180171100 f i libucrt:output.obj
 0001:0017018c       ??0?$output_processor@_WV?$stream_output_adapter@_W@__crt_stdio_output@@V?$standard_base@_WV?$stream_output_adapter@_W@__crt_stdio_output@@@2@@__crt_stdio_output@@QEAA@AEBV?$stream_output_adapter@_W@1@_KQEB_WQEAU__crt_locale_pointers@@QEAD@Z 000000018017118c f i libucrt:output.obj
 0001:001701fc       ??0?$output_processor@_WV?$string_output_adapter@_W@__crt_stdio_output@@V?$format_validation_base@_WV?$string_output_adapter@_W@__crt_stdio_output@@@2@@__crt_stdio_output@@QEAA@AEBV?$string_output_adapter@_W@1@_KQEB_WQEAU__crt_locale_pointers@@QEAD@Z 00000001801711fc f i libucrt:output.obj
 0001:0017026c       ??0?$output_processor@_WV?$string_output_adapter@_W@__crt_stdio_output@@V?$positional_parameter_base@_WV?$string_output_adapter@_W@__crt_stdio_output@@@2@@__crt_stdio_output@@QEAA@AEBV?$string_output_adapter@_W@1@_KQEB_WQEAU__crt_locale_pointers@@QEAD@Z 000000018017126c f i libucrt:output.obj
 0001:001702f8       ??0?$output_processor@_WV?$string_output_adapter@_W@__crt_stdio_output@@V?$standard_base@_WV?$string_output_adapter@_W@__crt_stdio_output@@@2@@__crt_stdio_output@@QEAA@AEBV?$string_output_adapter@_W@1@_KQEB_WQEAU__crt_locale_pointers@@QEAD@Z 00000001801712f8 f i libucrt:output.obj
 0001:00170368       ??0?$stream_output_adapter@D@__crt_stdio_output@@QEAA@QEAU_iobuf@@@Z 0000000180171368 f i libucrt:output.obj
 0001:00170370       ??0?$stream_output_adapter@_W@__crt_stdio_output@@QEAA@QEAU_iobuf@@@Z 0000000180171370 f i libucrt:output.obj
 0001:00170378       ??0?$string_output_adapter@D@__crt_stdio_output@@QEAA@QEAU?$string_output_adapter_context@D@1@@Z 0000000180171378 f i libucrt:output.obj
 0001:00170380       ??0?$string_output_adapter@_W@__crt_stdio_output@@QEAA@QEAU?$string_output_adapter_context@_W@1@@Z 0000000180171380 f i libucrt:output.obj
 0001:00170388       ??0_LocaleUpdate@@QEAA@QEAU__crt_locale_pointers@@@Z 0000000180171388 f i libucrt:output.obj
 0001:00170424       ??0__acrt_stdio_temporary_buffering_guard@@QEAA@QEAU_iobuf@@@Z 0000000180171424 f i libucrt:output.obj
 0001:00170444       ??0__crt_deferred_errno_cache@@QEAA@XZ 0000000180171444 f i libucrt:output.obj
 0001:0017044c       ??0__crt_errno_guard@@QEAA@QEAH@Z 000000018017144c f i libucrt:output.obj
 0001:0017045c       ??0__crt_stdio_stream@@QEAA@QEAU_iobuf@@@Z 000000018017145c f i libucrt:output.obj
 0001:00170470       ??0formatting_buffer@__crt_stdio_output@@QEAA@XZ 0000000180171470 f i libucrt:output.obj
 0001:00170484       ??1?$common_data@D@__crt_stdio_output@@QEAA@XZ 0000000180171484 f i libucrt:output.obj
 0001:001704a8       ??1?$common_data@_W@__crt_stdio_output@@QEAA@XZ 00000001801714a8 f i libucrt:output.obj
 0001:001704cc       ??1?$format_validation_base@DV?$stream_output_adapter@D@__crt_stdio_output@@@__crt_stdio_output@@QEAA@XZ 00000001801714cc f i libucrt:output.obj
 0001:001704f0       ??1?$format_validation_base@DV?$string_output_adapter@D@__crt_stdio_output@@@__crt_stdio_output@@QEAA@XZ 00000001801714f0 f i libucrt:output.obj
 0001:00170514       ??1?$format_validation_base@_WV?$stream_output_adapter@_W@__crt_stdio_output@@@__crt_stdio_output@@QEAA@XZ 0000000180171514 f i libucrt:output.obj
 0001:00170538       ??1?$format_validation_base@_WV?$string_output_adapter@_W@__crt_stdio_output@@@__crt_stdio_output@@QEAA@XZ 0000000180171538 f i libucrt:output.obj
 0001:0017055c       ??1?$output_adapter_data@DV?$stream_output_adapter@D@__crt_stdio_output@@@__crt_stdio_output@@QEAA@XZ 000000018017155c f i libucrt:output.obj
 0001:00170580       ??1?$output_adapter_data@DV?$string_output_adapter@D@__crt_stdio_output@@@__crt_stdio_output@@QEAA@XZ 0000000180171580 f i libucrt:output.obj
 0001:001705a4       ??1?$output_adapter_data@_WV?$stream_output_adapter@_W@__crt_stdio_output@@@__crt_stdio_output@@QEAA@XZ 00000001801715a4 f i libucrt:output.obj
 0001:001705c8       ??1?$output_adapter_data@_WV?$string_output_adapter@_W@__crt_stdio_output@@@__crt_stdio_output@@QEAA@XZ 00000001801715c8 f i libucrt:output.obj
 0001:001705ec       ??1?$output_processor@DV?$stream_output_adapter@D@__crt_stdio_output@@V?$format_validation_base@DV?$stream_output_adapter@D@__crt_stdio_output@@@2@@__crt_stdio_output@@QEAA@XZ 00000001801715ec f i libucrt:output.obj
 0001:00170610       ??1?$output_processor@DV?$stream_output_adapter@D@__crt_stdio_output@@V?$positional_parameter_base@DV?$stream_output_adapter@D@__crt_stdio_output@@@2@@__crt_stdio_output@@QEAA@XZ 0000000180171610 f i libucrt:output.obj
 0001:00170634       ??1?$output_processor@DV?$stream_output_adapter@D@__crt_stdio_output@@V?$standard_base@DV?$stream_output_adapter@D@__crt_stdio_output@@@2@@__crt_stdio_output@@QEAA@XZ 0000000180171634 f i libucrt:output.obj
 0001:00170658       ??1?$output_processor@DV?$string_output_adapter@D@__crt_stdio_output@@V?$format_validation_base@DV?$string_output_adapter@D@__crt_stdio_output@@@2@@__crt_stdio_output@@QEAA@XZ 0000000180171658 f i libucrt:output.obj
 0001:0017067c       ??1?$output_processor@DV?$string_output_adapter@D@__crt_stdio_output@@V?$positional_parameter_base@DV?$string_output_adapter@D@__crt_stdio_output@@@2@@__crt_stdio_output@@QEAA@XZ 000000018017167c f i libucrt:output.obj
 0001:001706a0       ??1?$output_processor@DV?$string_output_adapter@D@__crt_stdio_output@@V?$standard_base@DV?$string_output_adapter@D@__crt_stdio_output@@@2@@__crt_stdio_output@@QEAA@XZ 00000001801716a0 f i libucrt:output.obj
 0001:001706c4       ??1?$output_processor@_WV?$stream_output_adapter@_W@__crt_stdio_output@@V?$format_validation_base@_WV?$stream_output_adapter@_W@__crt_stdio_output@@@2@@__crt_stdio_output@@QEAA@XZ 00000001801716c4 f i libucrt:output.obj
 0001:001706e8       ??1?$output_processor@_WV?$stream_output_adapter@_W@__crt_stdio_output@@V?$positional_parameter_base@_WV?$stream_output_adapter@_W@__crt_stdio_output@@@2@@__crt_stdio_output@@QEAA@XZ 00000001801716e8 f i libucrt:output.obj
 0001:0017070c       ??1?$output_processor@_WV?$stream_output_adapter@_W@__crt_stdio_output@@V?$standard_base@_WV?$stream_output_adapter@_W@__crt_stdio_output@@@2@@__crt_stdio_output@@QEAA@XZ 000000018017170c f i libucrt:output.obj
 0001:00170730       ??1?$output_processor@_WV?$string_output_adapter@_W@__crt_stdio_output@@V?$format_validation_base@_WV?$string_output_adapter@_W@__crt_stdio_output@@@2@@__crt_stdio_output@@QEAA@XZ 0000000180171730 f i libucrt:output.obj
 0001:00170754       ??1?$output_processor@_WV?$string_output_adapter@_W@__crt_stdio_output@@V?$positional_parameter_base@_WV?$string_output_adapter@_W@__crt_stdio_output@@@2@@__crt_stdio_output@@QEAA@XZ 0000000180171754 f i libucrt:output.obj
 0001:00170778       ??1?$output_processor@_WV?$string_output_adapter@_W@__crt_stdio_output@@V?$standard_base@_WV?$string_output_adapter@_W@__crt_stdio_output@@@2@@__crt_stdio_output@@QEAA@XZ 0000000180171778 f i libucrt:output.obj
 0001:0017079c       ??1?$positional_parameter_base@DV?$stream_output_adapter@D@__crt_stdio_output@@@__crt_stdio_output@@QEAA@XZ 000000018017179c f i libucrt:output.obj
 0001:001707c0       ??1?$positional_parameter_base@DV?$string_output_adapter@D@__crt_stdio_output@@@__crt_stdio_output@@QEAA@XZ 00000001801717c0 f i libucrt:output.obj
 0001:001707e4       ??1?$positional_parameter_base@_WV?$stream_output_adapter@_W@__crt_stdio_output@@@__crt_stdio_output@@QEAA@XZ 00000001801717e4 f i libucrt:output.obj
 0001:00170808       ??1?$positional_parameter_base@_WV?$string_output_adapter@_W@__crt_stdio_output@@@__crt_stdio_output@@QEAA@XZ 0000000180171808 f i libucrt:output.obj
 0001:0017082c       ??1?$standard_base@DV?$stream_output_adapter@D@__crt_stdio_output@@@__crt_stdio_output@@QEAA@XZ 000000018017182c f i libucrt:output.obj
 0001:00170850       ??1?$standard_base@DV?$string_output_adapter@D@__crt_stdio_output@@@__crt_stdio_output@@QEAA@XZ 0000000180171850 f i libucrt:output.obj
 0001:00170874       ??1?$standard_base@_WV?$stream_output_adapter@_W@__crt_stdio_output@@@__crt_stdio_output@@QEAA@XZ 0000000180171874 f i libucrt:output.obj
 0001:00170898       ??1?$standard_base@_WV?$string_output_adapter@_W@__crt_stdio_output@@@__crt_stdio_output@@QEAA@XZ 0000000180171898 f i libucrt:output.obj
 0001:001708bc       ??1_LocaleUpdate@@QEAA@XZ  00000001801718bc f i libucrt:output.obj
 0001:001708d0       ??1__acrt_stdio_temporary_buffering_guard@@QEAA@XZ 00000001801718d0 f i libucrt:output.obj
 0001:001708dc       ??1__crt_errno_guard@@QEAA@XZ 00000001801718dc f i libucrt:output.obj
 0001:001708f0       ??1formatting_buffer@__crt_stdio_output@@QEAA@XZ 00000001801718f0 f i libucrt:output.obj
 0001:00170914       ??4?$__crt_unique_heap_ptr@DU__crt_internal_free_policy@@@@QEAAAEAV0@$$QEAV0@@Z 0000000180171914 f i libucrt:output.obj
 0001:00170948       ??A?$spectre_mitigated_lookup_table@Ustate_transition_pair@__crt_stdio_output@@$0IA@@__crt_stdio_output@@QEBAAEBUstate_transition_pair@1@_K@Z 0000000180171948 f i libucrt:output.obj
 0001:00170950       ??C__crt_stdio_stream@@QEBAPEAU__crt_stdio_stream_data@@XZ 0000000180171950 f i libucrt:output.obj
 0001:00171118       ?GetLocaleT@_LocaleUpdate@@QEAAPEAU__crt_locale_pointers@@XZ 0000000180172118 f i libucrt:output.obj
 0001:00171120       ?adjust_hexit@?$output_processor@DV?$stream_output_adapter@D@__crt_stdio_output@@V?$format_validation_base@DV?$stream_output_adapter@D@__crt_stdio_output@@@2@@__crt_stdio_output@@CADH_N@Z 0000000180172120 f i libucrt:output.obj
 0001:0017112c       ?adjust_hexit@?$output_processor@DV?$stream_output_adapter@D@__crt_stdio_output@@V?$positional_parameter_base@DV?$stream_output_adapter@D@__crt_stdio_output@@@2@@__crt_stdio_output@@CADH_N@Z 000000018017212c f i libucrt:output.obj
 0001:00171138       ?adjust_hexit@?$output_processor@DV?$stream_output_adapter@D@__crt_stdio_output@@V?$standard_base@DV?$stream_output_adapter@D@__crt_stdio_output@@@2@@__crt_stdio_output@@CADH_N@Z 0000000180172138 f i libucrt:output.obj
 0001:00171144       ?adjust_hexit@?$output_processor@DV?$string_output_adapter@D@__crt_stdio_output@@V?$format_validation_base@DV?$string_output_adapter@D@__crt_stdio_output@@@2@@__crt_stdio_output@@CADH_N@Z 0000000180172144 f i libucrt:output.obj
 0001:00171150       ?adjust_hexit@?$output_processor@DV?$string_output_adapter@D@__crt_stdio_output@@V?$positional_parameter_base@DV?$string_output_adapter@D@__crt_stdio_output@@@2@@__crt_stdio_output@@CADH_N@Z 0000000180172150 f i libucrt:output.obj
 0001:0017115c       ?adjust_hexit@?$output_processor@DV?$string_output_adapter@D@__crt_stdio_output@@V?$standard_base@DV?$string_output_adapter@D@__crt_stdio_output@@@2@@__crt_stdio_output@@CADH_N@Z 000000018017215c f i libucrt:output.obj
 0001:00171168       ?adjust_hexit@?$output_processor@_WV?$stream_output_adapter@_W@__crt_stdio_output@@V?$format_validation_base@_WV?$stream_output_adapter@_W@__crt_stdio_output@@@2@@__crt_stdio_output@@CADH_N@Z 0000000180172168 f i libucrt:output.obj
 0001:00171174       ?adjust_hexit@?$output_processor@_WV?$stream_output_adapter@_W@__crt_stdio_output@@V?$positional_parameter_base@_WV?$stream_output_adapter@_W@__crt_stdio_output@@@2@@__crt_stdio_output@@CADH_N@Z 0000000180172174 f i libucrt:output.obj
 0001:00171180       ?adjust_hexit@?$output_processor@_WV?$stream_output_adapter@_W@__crt_stdio_output@@V?$standard_base@_WV?$stream_output_adapter@_W@__crt_stdio_output@@@2@@__crt_stdio_output@@CADH_N@Z 0000000180172180 f i libucrt:output.obj
 0001:0017118c       ?adjust_hexit@?$output_processor@_WV?$string_output_adapter@_W@__crt_stdio_output@@V?$format_validation_base@_WV?$string_output_adapter@_W@__crt_stdio_output@@@2@@__crt_stdio_output@@CADH_N@Z 000000018017218c f i libucrt:output.obj
 0001:00171198       ?adjust_hexit@?$output_processor@_WV?$string_output_adapter@_W@__crt_stdio_output@@V?$positional_parameter_base@_WV?$string_output_adapter@_W@__crt_stdio_output@@@2@@__crt_stdio_output@@CADH_N@Z 0000000180172198 f i libucrt:output.obj
 0001:001711a4       ?adjust_hexit@?$output_processor@_WV?$string_output_adapter@_W@__crt_stdio_output@@V?$standard_base@_WV?$string_output_adapter@_W@__crt_stdio_output@@@2@@__crt_stdio_output@@CADH_N@Z 00000001801721a4 f i libucrt:output.obj
 0001:001711b0       ?advance_to_next_pass@?$positional_parameter_base@DV?$stream_output_adapter@D@__crt_stdio_output@@@__crt_stdio_output@@IEAA_NXZ 00000001801721b0 f i libucrt:output.obj
 0001:00171200       ?advance_to_next_pass@?$positional_parameter_base@DV?$string_output_adapter@D@__crt_stdio_output@@@__crt_stdio_output@@IEAA_NXZ 0000000180172200 f i libucrt:output.obj
 0001:00171250       ?advance_to_next_pass@?$positional_parameter_base@_WV?$stream_output_adapter@_W@__crt_stdio_output@@@__crt_stdio_output@@IEAA_NXZ 0000000180172250 f i libucrt:output.obj
 0001:001712a0       ?advance_to_next_pass@?$positional_parameter_base@_WV?$string_output_adapter@_W@__crt_stdio_output@@@__crt_stdio_output@@IEAA_NXZ 00000001801722a0 f i libucrt:output.obj
 0001:001712f0       ?advance_to_next_pass@?$standard_base@DV?$stream_output_adapter@D@__crt_stdio_output@@@__crt_stdio_output@@IEAA_NXZ 00000001801722f0 f i libucrt:output.obj
 0001:00171304       ?advance_to_next_pass@?$standard_base@DV?$string_output_adapter@D@__crt_stdio_output@@@__crt_stdio_output@@IEAA_NXZ 0000000180172304 f i libucrt:output.obj
 0001:00171318       ?advance_to_next_pass@?$standard_base@_WV?$stream_output_adapter@_W@__crt_stdio_output@@@__crt_stdio_output@@IEAA_NXZ 0000000180172318 f i libucrt:output.obj
 0001:0017132c       ?advance_to_next_pass@?$standard_base@_WV?$string_output_adapter@_W@__crt_stdio_output@@@__crt_stdio_output@@IEAA_NXZ 000000018017232c f i libucrt:output.obj
 0001:00171340       ?crop_zeroes@__crt_stdio_output@@YAXPEADQEAU__crt_locale_pointers@@@Z 0000000180172340 f i libucrt:output.obj
 0001:001713d4       ?find_next_state@?$output_processor@DV?$stream_output_adapter@D@__crt_stdio_output@@V?$format_validation_base@DV?$stream_output_adapter@D@__crt_stdio_output@@@2@@__crt_stdio_output@@AEBA?AW4state@2@DW432@@Z 00000001801723d4 f i libucrt:output.obj
 0001:00171404       ?find_next_state@?$output_processor@DV?$stream_output_adapter@D@__crt_stdio_output@@V?$positional_parameter_base@DV?$stream_output_adapter@D@__crt_stdio_output@@@2@@__crt_stdio_output@@AEBA?AW4state@2@DW432@@Z 0000000180172404 f i libucrt:output.obj
 0001:00171434       ?find_next_state@?$output_processor@DV?$stream_output_adapter@D@__crt_stdio_output@@V?$standard_base@DV?$stream_output_adapter@D@__crt_stdio_output@@@2@@__crt_stdio_output@@AEBA?AW4state@2@DW432@@Z 0000000180172434 f i libucrt:output.obj
 0001:00171464       ?find_next_state@?$output_processor@DV?$string_output_adapter@D@__crt_stdio_output@@V?$format_validation_base@DV?$string_output_adapter@D@__crt_stdio_output@@@2@@__crt_stdio_output@@AEBA?AW4state@2@DW432@@Z 0000000180172464 f i libucrt:output.obj
 0001:00171494       ?find_next_state@?$output_processor@DV?$string_output_adapter@D@__crt_stdio_output@@V?$positional_parameter_base@DV?$string_output_adapter@D@__crt_stdio_output@@@2@@__crt_stdio_output@@AEBA?AW4state@2@DW432@@Z 0000000180172494 f i libucrt:output.obj
 0001:001714c4       ?find_next_state@?$output_processor@DV?$string_output_adapter@D@__crt_stdio_output@@V?$standard_base@DV?$string_output_adapter@D@__crt_stdio_output@@@2@@__crt_stdio_output@@AEBA?AW4state@2@DW432@@Z 00000001801724c4 f i libucrt:output.obj
 0001:001714f4       ?find_next_state@?$output_processor@_WV?$stream_output_adapter@_W@__crt_stdio_output@@V?$format_validation_base@_WV?$stream_output_adapter@_W@__crt_stdio_output@@@2@@__crt_stdio_output@@AEBA?AW4state@2@_WW432@@Z 00000001801724f4 f i libucrt:output.obj
 0001:0017152c       ?find_next_state@?$output_processor@_WV?$stream_output_adapter@_W@__crt_stdio_output@@V?$positional_parameter_base@_WV?$stream_output_adapter@_W@__crt_stdio_output@@@2@@__crt_stdio_output@@AEBA?AW4state@2@_WW432@@Z 000000018017252c f i libucrt:output.obj
 0001:00171564       ?find_next_state@?$output_processor@_WV?$stream_output_adapter@_W@__crt_stdio_output@@V?$standard_base@_WV?$stream_output_adapter@_W@__crt_stdio_output@@@2@@__crt_stdio_output@@AEBA?AW4state@2@_WW432@@Z 0000000180172564 f i libucrt:output.obj
 0001:0017159c       ?find_next_state@?$output_processor@_WV?$string_output_adapter@_W@__crt_stdio_output@@V?$format_validation_base@_WV?$string_output_adapter@_W@__crt_stdio_output@@@2@@__crt_stdio_output@@AEBA?AW4state@2@_WW432@@Z 000000018017259c f i libucrt:output.obj
 0001:001715d4       ?find_next_state@?$output_processor@_WV?$string_output_adapter@_W@__crt_stdio_output@@V?$positional_parameter_base@_WV?$string_output_adapter@_W@__crt_stdio_output@@@2@@__crt_stdio_output@@AEBA?AW4state@2@_WW432@@Z 00000001801725d4 f i libucrt:output.obj
 0001:0017160c       ?find_next_state@?$output_processor@_WV?$string_output_adapter@_W@__crt_stdio_output@@V?$standard_base@_WV?$string_output_adapter@_W@__crt_stdio_output@@@2@@__crt_stdio_output@@AEBA?AW4state@2@_WW432@@Z 000000018017260c f i libucrt:output.obj
 0001:00171650       ?force_decimal_point@__crt_stdio_output@@YAXPEADQEAU__crt_locale_pointers@@@Z 0000000180172650 f i libucrt:output.obj
 0001:001716c8       ?get@__crt_deferred_errno_cache@@QEAAAEAHXZ 00000001801726c8 f i libucrt:output.obj
 0001:001716e8       ?get_flags@__crt_stdio_stream@@QEBAJXZ 00000001801726e8 f i libucrt:output.obj
 0001:001716f0       ?get_parameter_type@?$positional_parameter_base@DV?$stream_output_adapter@D@__crt_stdio_output@@@__crt_stdio_output@@CA?AW4parameter_type@12@F@Z 00000001801726f0 f i libucrt:output.obj
 0001:001716f8       ?get_parameter_type@?$positional_parameter_base@DV?$stream_output_adapter@D@__crt_stdio_output@@@__crt_stdio_output@@CA?AW4parameter_type@12@G@Z 00000001801726f8 f i libucrt:output.obj
 0001:00171700       ?get_parameter_type@?$positional_parameter_base@DV?$stream_output_adapter@D@__crt_stdio_output@@@__crt_stdio_output@@CA?AW4parameter_type@12@H@Z 0000000180172700 f i libucrt:output.obj
 0001:00171708       ?get_parameter_type@?$positional_parameter_base@DV?$stream_output_adapter@D@__crt_stdio_output@@@__crt_stdio_output@@CA?AW4parameter_type@12@I@Z 0000000180172708 f i libucrt:output.obj
 0001:00171710       ?get_parameter_type@?$positional_parameter_base@DV?$stream_output_adapter@D@__crt_stdio_output@@@__crt_stdio_output@@CA?AW4parameter_type@12@U_CRT_DOUBLE@@@Z 0000000180172710 f i libucrt:output.obj
 0001:00171718       ?get_parameter_type@?$positional_parameter_base@DV?$stream_output_adapter@D@__crt_stdio_output@@@__crt_stdio_output@@CA?AW4parameter_type@12@_J@Z 0000000180172718 f i libucrt:output.obj
 0001:00171720       ?get_parameter_type@?$positional_parameter_base@DV?$stream_output_adapter@D@__crt_stdio_output@@@__crt_stdio_output@@CA?AW4parameter_type@12@_K@Z 0000000180172720 f i libucrt:output.obj
 0001:00171728       ?get_parameter_type@?$positional_parameter_base@DV?$stream_output_adapter@D@__crt_stdio_output@@@__crt_stdio_output@@CA?AW4parameter_type@12@_W@Z 0000000180172728 f i libucrt:output.obj
 0001:00171730       ?get_parameter_type@?$positional_parameter_base@DV?$string_output_adapter@D@__crt_stdio_output@@@__crt_stdio_output@@CA?AW4parameter_type@12@F@Z 0000000180172730 f i libucrt:output.obj
 0001:00171738       ?get_parameter_type@?$positional_parameter_base@DV?$string_output_adapter@D@__crt_stdio_output@@@__crt_stdio_output@@CA?AW4parameter_type@12@G@Z 0000000180172738 f i libucrt:output.obj
 0001:00171740       ?get_parameter_type@?$positional_parameter_base@DV?$string_output_adapter@D@__crt_stdio_output@@@__crt_stdio_output@@CA?AW4parameter_type@12@H@Z 0000000180172740 f i libucrt:output.obj
 0001:00171748       ?get_parameter_type@?$positional_parameter_base@DV?$string_output_adapter@D@__crt_stdio_output@@@__crt_stdio_output@@CA?AW4parameter_type@12@I@Z 0000000180172748 f i libucrt:output.obj
 0001:00171750       ?get_parameter_type@?$positional_parameter_base@DV?$string_output_adapter@D@__crt_stdio_output@@@__crt_stdio_output@@CA?AW4parameter_type@12@U_CRT_DOUBLE@@@Z 0000000180172750 f i libucrt:output.obj
 0001:00171758       ?get_parameter_type@?$positional_parameter_base@DV?$string_output_adapter@D@__crt_stdio_output@@@__crt_stdio_output@@CA?AW4parameter_type@12@_J@Z 0000000180172758 f i libucrt:output.obj
 0001:00171760       ?get_parameter_type@?$positional_parameter_base@DV?$string_output_adapter@D@__crt_stdio_output@@@__crt_stdio_output@@CA?AW4parameter_type@12@_K@Z 0000000180172760 f i libucrt:output.obj
 0001:00171768       ?get_parameter_type@?$positional_parameter_base@DV?$string_output_adapter@D@__crt_stdio_output@@@__crt_stdio_output@@CA?AW4parameter_type@12@_W@Z 0000000180172768 f i libucrt:output.obj
 0001:00171770       ?get_parameter_type@?$positional_parameter_base@_WV?$stream_output_adapter@_W@__crt_stdio_output@@@__crt_stdio_output@@CA?AW4parameter_type@12@F@Z 0000000180172770 f i libucrt:output.obj
 0001:00171778       ?get_parameter_type@?$positional_parameter_base@_WV?$stream_output_adapter@_W@__crt_stdio_output@@@__crt_stdio_output@@CA?AW4parameter_type@12@G@Z 0000000180172778 f i libucrt:output.obj
 0001:00171780       ?get_parameter_type@?$positional_parameter_base@_WV?$stream_output_adapter@_W@__crt_stdio_output@@@__crt_stdio_output@@CA?AW4parameter_type@12@H@Z 0000000180172780 f i libucrt:output.obj
 0001:00171788       ?get_parameter_type@?$positional_parameter_base@_WV?$stream_output_adapter@_W@__crt_stdio_output@@@__crt_stdio_output@@CA?AW4parameter_type@12@I@Z 0000000180172788 f i libucrt:output.obj
 0001:00171790       ?get_parameter_type@?$positional_parameter_base@_WV?$stream_output_adapter@_W@__crt_stdio_output@@@__crt_stdio_output@@CA?AW4parameter_type@12@U_CRT_DOUBLE@@@Z 0000000180172790 f i libucrt:output.obj
 0001:00171798       ?get_parameter_type@?$positional_parameter_base@_WV?$stream_output_adapter@_W@__crt_stdio_output@@@__crt_stdio_output@@CA?AW4parameter_type@12@_J@Z 0000000180172798 f i libucrt:output.obj
 0001:001717a0       ?get_parameter_type@?$positional_parameter_base@_WV?$stream_output_adapter@_W@__crt_stdio_output@@@__crt_stdio_output@@CA?AW4parameter_type@12@_K@Z 00000001801727a0 f i libucrt:output.obj
 0001:001717a8       ?get_parameter_type@?$positional_parameter_base@_WV?$stream_output_adapter@_W@__crt_stdio_output@@@__crt_stdio_output@@CA?AW4parameter_type@12@_W@Z 00000001801727a8 f i libucrt:output.obj
 0001:001717b0       ?get_parameter_type@?$positional_parameter_base@_WV?$string_output_adapter@_W@__crt_stdio_output@@@__crt_stdio_output@@CA?AW4parameter_type@12@F@Z 00000001801727b0 f i libucrt:output.obj
 0001:001717b8       ?get_parameter_type@?$positional_parameter_base@_WV?$string_output_adapter@_W@__crt_stdio_output@@@__crt_stdio_output@@CA?AW4parameter_type@12@G@Z 00000001801727b8 f i libucrt:output.obj
 0001:001717c0       ?get_parameter_type@?$positional_parameter_base@_WV?$string_output_adapter@_W@__crt_stdio_output@@@__crt_stdio_output@@CA?AW4parameter_type@12@H@Z 00000001801727c0 f i libucrt:output.obj
 0001:001717c8       ?get_parameter_type@?$positional_parameter_base@_WV?$string_output_adapter@_W@__crt_stdio_output@@@__crt_stdio_output@@CA?AW4parameter_type@12@I@Z 00000001801727c8 f i libucrt:output.obj
 0001:001717d0       ?get_parameter_type@?$positional_parameter_base@_WV?$string_output_adapter@_W@__crt_stdio_output@@@__crt_stdio_output@@CA?AW4parameter_type@12@U_CRT_DOUBLE@@@Z 00000001801727d0 f i libucrt:output.obj
 0001:001717d8       ?get_parameter_type@?$positional_parameter_base@_WV?$string_output_adapter@_W@__crt_stdio_output@@@__crt_stdio_output@@CA?AW4parameter_type@12@_J@Z 00000001801727d8 f i libucrt:output.obj
 0001:001717e0       ?get_parameter_type@?$positional_parameter_base@_WV?$string_output_adapter@_W@__crt_stdio_output@@@__crt_stdio_output@@CA?AW4parameter_type@12@_K@Z 00000001801727e0 f i libucrt:output.obj
 0001:001717e8       ?get_parameter_type@?$positional_parameter_base@_WV?$string_output_adapter@_W@__crt_stdio_output@@@__crt_stdio_output@@CA?AW4parameter_type@12@_W@Z 00000001801727e8 f i libucrt:output.obj
 0001:001717f0       ?has_flag@?$output_processor@DV?$stream_output_adapter@D@__crt_stdio_output@@V?$format_validation_base@DV?$stream_output_adapter@D@__crt_stdio_output@@@2@@__crt_stdio_output@@AEBA_NI@Z 00000001801727f0 f i libucrt:output.obj
 0001:001717f8       ?has_flag@?$output_processor@DV?$stream_output_adapter@D@__crt_stdio_output@@V?$positional_parameter_base@DV?$stream_output_adapter@D@__crt_stdio_output@@@2@@__crt_stdio_output@@AEBA_NI@Z 00000001801727f8 f i libucrt:output.obj
 0001:00171800       ?has_flag@?$output_processor@DV?$stream_output_adapter@D@__crt_stdio_output@@V?$standard_base@DV?$stream_output_adapter@D@__crt_stdio_output@@@2@@__crt_stdio_output@@AEBA_NI@Z 0000000180172800 f i libucrt:output.obj
 0001:00171808       ?has_flag@?$output_processor@DV?$string_output_adapter@D@__crt_stdio_output@@V?$format_validation_base@DV?$string_output_adapter@D@__crt_stdio_output@@@2@@__crt_stdio_output@@AEBA_NI@Z 0000000180172808 f i libucrt:output.obj
 0001:00171810       ?has_flag@?$output_processor@DV?$string_output_adapter@D@__crt_stdio_output@@V?$positional_parameter_base@DV?$string_output_adapter@D@__crt_stdio_output@@@2@@__crt_stdio_output@@AEBA_NI@Z 0000000180172810 f i libucrt:output.obj
 0001:00171818       ?has_flag@?$output_processor@DV?$string_output_adapter@D@__crt_stdio_output@@V?$standard_base@DV?$string_output_adapter@D@__crt_stdio_output@@@2@@__crt_stdio_output@@AEBA_NI@Z 0000000180172818 f i libucrt:output.obj
 0001:00171820       ?has_flag@?$output_processor@_WV?$stream_output_adapter@_W@__crt_stdio_output@@V?$format_validation_base@_WV?$stream_output_adapter@_W@__crt_stdio_output@@@2@@__crt_stdio_output@@AEBA_NI@Z 0000000180172820 f i libucrt:output.obj
 0001:00171828       ?has_flag@?$output_processor@_WV?$stream_output_adapter@_W@__crt_stdio_output@@V?$positional_parameter_base@_WV?$stream_output_adapter@_W@__crt_stdio_output@@@2@@__crt_stdio_output@@AEBA_NI@Z 0000000180172828 f i libucrt:output.obj
 0001:00171830       ?has_flag@?$output_processor@_WV?$stream_output_adapter@_W@__crt_stdio_output@@V?$standard_base@_WV?$stream_output_adapter@_W@__crt_stdio_output@@@2@@__crt_stdio_output@@AEBA_NI@Z 0000000180172830 f i libucrt:output.obj
 0001:00171838       ?has_flag@?$output_processor@_WV?$string_output_adapter@_W@__crt_stdio_output@@V?$format_validation_base@_WV?$string_output_adapter@_W@__crt_stdio_output@@@2@@__crt_stdio_output@@AEBA_NI@Z 0000000180172838 f i libucrt:output.obj
 0001:00171840       ?has_flag@?$output_processor@_WV?$string_output_adapter@_W@__crt_stdio_output@@V?$positional_parameter_base@_WV?$string_output_adapter@_W@__crt_stdio_output@@@2@@__crt_stdio_output@@AEBA_NI@Z 0000000180172840 f i libucrt:output.obj
 0001:00171848       ?has_flag@?$output_processor@_WV?$string_output_adapter@_W@__crt_stdio_output@@V?$standard_base@_WV?$string_output_adapter@_W@__crt_stdio_output@@@2@@__crt_stdio_output@@AEBA_NI@Z 0000000180172848 f i libucrt:output.obj
 0001:00171850       ?is_positional_parameter_reappearance_consistent@?$positional_parameter_base@DV?$stream_output_adapter@D@__crt_stdio_output@@@__crt_stdio_output@@AEAA_NAEBUparameter_data@12@W4parameter_type@12@DW4length_modifier@2@@Z 0000000180172850 f i libucrt:output.obj
 0001:001719f0       ?is_positional_parameter_reappearance_consistent@?$positional_parameter_base@DV?$string_output_adapter@D@__crt_stdio_output@@@__crt_stdio_output@@AEAA_NAEBUparameter_data@12@W4parameter_type@12@DW4length_modifier@2@@Z 00000001801729f0 f i libucrt:output.obj
 0001:00171b90       ?is_positional_parameter_reappearance_consistent@?$positional_parameter_base@_WV?$stream_output_adapter@_W@__crt_stdio_output@@@__crt_stdio_output@@AEAA_NAEBUparameter_data@12@W4parameter_type@12@_WW4length_modifier@2@@Z 0000000180172b90 f i libucrt:output.obj
 0001:00171cfc       ?is_positional_parameter_reappearance_consistent@?$positional_parameter_base@_WV?$string_output_adapter@_W@__crt_stdio_output@@@__crt_stdio_output@@AEAA_NAEBUparameter_data@12@W4parameter_type@12@_WW4length_modifier@2@@Z 0000000180172cfc f i libucrt:output.obj
 0001:00171e68       ?is_string_backed@__crt_stdio_stream@@QEBA_NXZ 0000000180172e68 f i libucrt:output.obj
 0001:00171e74       ?narrow_null_string@?$output_processor@DV?$stream_output_adapter@D@__crt_stdio_output@@V?$format_validation_base@DV?$stream_output_adapter@D@__crt_stdio_output@@@2@@__crt_stdio_output@@CAPEADXZ 0000000180172e74 f i libucrt:output.obj
 0001:00171e7c       ?narrow_null_string@?$output_processor@DV?$stream_output_adapter@D@__crt_stdio_output@@V?$positional_parameter_base@DV?$stream_output_adapter@D@__crt_stdio_output@@@2@@__crt_stdio_output@@CAPEADXZ 0000000180172e7c f i libucrt:output.obj
 0001:00171e84       ?narrow_null_string@?$output_processor@DV?$stream_output_adapter@D@__crt_stdio_output@@V?$standard_base@DV?$stream_output_adapter@D@__crt_stdio_output@@@2@@__crt_stdio_output@@CAPEADXZ 0000000180172e84 f i libucrt:output.obj
 0001:00171e8c       ?narrow_null_string@?$output_processor@DV?$string_output_adapter@D@__crt_stdio_output@@V?$format_validation_base@DV?$string_output_adapter@D@__crt_stdio_output@@@2@@__crt_stdio_output@@CAPEADXZ 0000000180172e8c f i libucrt:output.obj
 0001:00171e94       ?narrow_null_string@?$output_processor@DV?$string_output_adapter@D@__crt_stdio_output@@V?$positional_parameter_base@DV?$string_output_adapter@D@__crt_stdio_output@@@2@@__crt_stdio_output@@CAPEADXZ 0000000180172e94 f i libucrt:output.obj
 0001:00171e9c       ?narrow_null_string@?$output_processor@DV?$string_output_adapter@D@__crt_stdio_output@@V?$standard_base@DV?$string_output_adapter@D@__crt_stdio_output@@@2@@__crt_stdio_output@@CAPEADXZ 0000000180172e9c f i libucrt:output.obj
 0001:00171ea4       ?narrow_null_string@?$output_processor@_WV?$stream_output_adapter@_W@__crt_stdio_output@@V?$format_validation_base@_WV?$stream_output_adapter@_W@__crt_stdio_output@@@2@@__crt_stdio_output@@CAPEADXZ 0000000180172ea4 f i libucrt:output.obj
 0001:00171eac       ?narrow_null_string@?$output_processor@_WV?$stream_output_adapter@_W@__crt_stdio_output@@V?$positional_parameter_base@_WV?$stream_output_adapter@_W@__crt_stdio_output@@@2@@__crt_stdio_output@@CAPEADXZ 0000000180172eac f i libucrt:output.obj
 0001:00171eb4       ?narrow_null_string@?$output_processor@_WV?$stream_output_adapter@_W@__crt_stdio_output@@V?$standard_base@_WV?$stream_output_adapter@_W@__crt_stdio_output@@@2@@__crt_stdio_output@@CAPEADXZ 0000000180172eb4 f i libucrt:output.obj
 0001:00171ebc       ?narrow_null_string@?$output_processor@_WV?$string_output_adapter@_W@__crt_stdio_output@@V?$format_validation_base@_WV?$string_output_adapter@_W@__crt_stdio_output@@@2@@__crt_stdio_output@@CAPEADXZ 0000000180172ebc f i libucrt:output.obj
 0001:00171ec4       ?narrow_null_string@?$output_processor@_WV?$string_output_adapter@_W@__crt_stdio_output@@V?$positional_parameter_base@_WV?$string_output_adapter@_W@__crt_stdio_output@@@2@@__crt_stdio_output@@CAPEADXZ 0000000180172ec4 f i libucrt:output.obj
 0001:00171ecc       ?narrow_null_string@?$output_processor@_WV?$string_output_adapter@_W@__crt_stdio_output@@V?$standard_base@_WV?$string_output_adapter@_W@__crt_stdio_output@@@2@@__crt_stdio_output@@CAPEADXZ 0000000180172ecc f i libucrt:output.obj
 0001:00171ed4       ?parse_int_from_format_string@?$output_processor@DV?$stream_output_adapter@D@__crt_stdio_output@@V?$format_validation_base@DV?$stream_output_adapter@D@__crt_stdio_output@@@2@@__crt_stdio_output@@AEAA_NQEAH@Z 0000000180172ed4 f i libucrt:output.obj
 0001:00171f78       ?parse_int_from_format_string@?$output_processor@DV?$stream_output_adapter@D@__crt_stdio_output@@V?$positional_parameter_base@DV?$stream_output_adapter@D@__crt_stdio_output@@@2@@__crt_stdio_output@@AEAA_NQEAH@Z 0000000180172f78 f i libucrt:output.obj
 0001:0017201c       ?parse_int_from_format_string@?$output_processor@DV?$stream_output_adapter@D@__crt_stdio_output@@V?$standard_base@DV?$stream_output_adapter@D@__crt_stdio_output@@@2@@__crt_stdio_output@@AEAA_NQEAH@Z 000000018017301c f i libucrt:output.obj
 0001:001720c0       ?parse_int_from_format_string@?$output_processor@DV?$string_output_adapter@D@__crt_stdio_output@@V?$format_validation_base@DV?$string_output_adapter@D@__crt_stdio_output@@@2@@__crt_stdio_output@@AEAA_NQEAH@Z 00000001801730c0 f i libucrt:output.obj
 0001:00172164       ?parse_int_from_format_string@?$output_processor@DV?$string_output_adapter@D@__crt_stdio_output@@V?$positional_parameter_base@DV?$string_output_adapter@D@__crt_stdio_output@@@2@@__crt_stdio_output@@AEAA_NQEAH@Z 0000000180173164 f i libucrt:output.obj
 0001:00172208       ?parse_int_from_format_string@?$output_processor@DV?$string_output_adapter@D@__crt_stdio_output@@V?$standard_base@DV?$string_output_adapter@D@__crt_stdio_output@@@2@@__crt_stdio_output@@AEAA_NQEAH@Z 0000000180173208 f i libucrt:output.obj
 0001:001722ac       ?parse_int_from_format_string@?$output_processor@_WV?$stream_output_adapter@_W@__crt_stdio_output@@V?$format_validation_base@_WV?$stream_output_adapter@_W@__crt_stdio_output@@@2@@__crt_stdio_output@@AEAA_NQEAH@Z 00000001801732ac f i libucrt:output.obj
 0001:00172350       ?parse_int_from_format_string@?$output_processor@_WV?$stream_output_adapter@_W@__crt_stdio_output@@V?$positional_parameter_base@_WV?$stream_output_adapter@_W@__crt_stdio_output@@@2@@__crt_stdio_output@@AEAA_NQEAH@Z 0000000180173350 f i libucrt:output.obj
 0001:001723f4       ?parse_int_from_format_string@?$output_processor@_WV?$stream_output_adapter@_W@__crt_stdio_output@@V?$standard_base@_WV?$stream_output_adapter@_W@__crt_stdio_output@@@2@@__crt_stdio_output@@AEAA_NQEAH@Z 00000001801733f4 f i libucrt:output.obj
 0001:00172498       ?parse_int_from_format_string@?$output_processor@_WV?$string_output_adapter@_W@__crt_stdio_output@@V?$format_validation_base@_WV?$string_output_adapter@_W@__crt_stdio_output@@@2@@__crt_stdio_output@@AEAA_NQEAH@Z 0000000180173498 f i libucrt:output.obj
 0001:0017253c       ?parse_int_from_format_string@?$output_processor@_WV?$string_output_adapter@_W@__crt_stdio_output@@V?$positional_parameter_base@_WV?$string_output_adapter@_W@__crt_stdio_output@@@2@@__crt_stdio_output@@AEAA_NQEAH@Z 000000018017353c f i libucrt:output.obj
 0001:001725e0       ?parse_int_from_format_string@?$output_processor@_WV?$string_output_adapter@_W@__crt_stdio_output@@V?$standard_base@_WV?$string_output_adapter@_W@__crt_stdio_output@@@2@@__crt_stdio_output@@AEAA_NQEAH@Z 00000001801735e0 f i libucrt:output.obj
 0001:00172684       ?process@?$output_processor@DV?$stream_output_adapter@D@__crt_stdio_output@@V?$format_validation_base@DV?$stream_output_adapter@D@__crt_stdio_output@@@2@@__crt_stdio_output@@QEAAHXZ 0000000180173684 f i libucrt:output.obj
 0001:001728a8       ?process@?$output_processor@DV?$stream_output_adapter@D@__crt_stdio_output@@V?$positional_parameter_base@DV?$stream_output_adapter@D@__crt_stdio_output@@@2@@__crt_stdio_output@@QEAAHXZ 00000001801738a8 f i libucrt:output.obj
 0001:00172b4c       ?process@?$output_processor@DV?$stream_output_adapter@D@__crt_stdio_output@@V?$standard_base@DV?$stream_output_adapter@D@__crt_stdio_output@@@2@@__crt_stdio_output@@QEAAHXZ 0000000180173b4c f i libucrt:output.obj
 0001:00172d60       ?process@?$output_processor@DV?$string_output_adapter@D@__crt_stdio_output@@V?$format_validation_base@DV?$string_output_adapter@D@__crt_stdio_output@@@2@@__crt_stdio_output@@QEAAHXZ 0000000180173d60 f i libucrt:output.obj
 0001:00172f74       ?process@?$output_processor@DV?$string_output_adapter@D@__crt_stdio_output@@V?$positional_parameter_base@DV?$string_output_adapter@D@__crt_stdio_output@@@2@@__crt_stdio_output@@QEAAHXZ 0000000180173f74 f i libucrt:output.obj
 0001:00173208       ?process@?$output_processor@DV?$string_output_adapter@D@__crt_stdio_output@@V?$standard_base@DV?$string_output_adapter@D@__crt_stdio_output@@@2@@__crt_stdio_output@@QEAAHXZ 0000000180174208 f i libucrt:output.obj
 0001:00173410       ?process@?$output_processor@_WV?$stream_output_adapter@_W@__crt_stdio_output@@V?$format_validation_base@_WV?$stream_output_adapter@_W@__crt_stdio_output@@@2@@__crt_stdio_output@@QEAAHXZ 0000000180174410 f i libucrt:output.obj
 0001:00173694       ?process@?$output_processor@_WV?$stream_output_adapter@_W@__crt_stdio_output@@V?$positional_parameter_base@_WV?$stream_output_adapter@_W@__crt_stdio_output@@@2@@__crt_stdio_output@@QEAAHXZ 0000000180174694 f i libucrt:output.obj
 0001:00173950       ?process@?$output_processor@_WV?$stream_output_adapter@_W@__crt_stdio_output@@V?$standard_base@_WV?$stream_output_adapter@_W@__crt_stdio_output@@@2@@__crt_stdio_output@@QEAAHXZ 0000000180174950 f i libucrt:output.obj
 0001:00173bc8       ?process@?$output_processor@_WV?$string_output_adapter@_W@__crt_stdio_output@@V?$format_validation_base@_WV?$string_output_adapter@_W@__crt_stdio_output@@@2@@__crt_stdio_output@@QEAAHXZ 0000000180174bc8 f i libucrt:output.obj
 0001:00173e40       ?process@?$output_processor@_WV?$string_output_adapter@_W@__crt_stdio_output@@V?$positional_parameter_base@_WV?$string_output_adapter@_W@__crt_stdio_output@@@2@@__crt_stdio_output@@QEAAHXZ 0000000180174e40 f i libucrt:output.obj
 0001:001740fc       ?process@?$output_processor@_WV?$string_output_adapter@_W@__crt_stdio_output@@V?$standard_base@_WV?$string_output_adapter@_W@__crt_stdio_output@@@2@@__crt_stdio_output@@QEAAHXZ 00000001801750fc f i libucrt:output.obj
 0001:00174368       ?public_stream@__crt_stdio_stream@@QEBAPEAU_iobuf@@XZ 0000000180175368 f i libucrt:output.obj
 0001:0017436c       ?set_flag@?$output_processor@DV?$stream_output_adapter@D@__crt_stdio_output@@V?$format_validation_base@DV?$stream_output_adapter@D@__crt_stdio_output@@@2@@__crt_stdio_output@@AEAAXI@Z 000000018017536c f i libucrt:output.obj
 0001:00174370       ?set_flag@?$output_processor@DV?$stream_output_adapter@D@__crt_stdio_output@@V?$positional_parameter_base@DV?$stream_output_adapter@D@__crt_stdio_output@@@2@@__crt_stdio_output@@AEAAXI@Z 0000000180175370 f i libucrt:output.obj
 0001:00174374       ?set_flag@?$output_processor@DV?$stream_output_adapter@D@__crt_stdio_output@@V?$standard_base@DV?$stream_output_adapter@D@__crt_stdio_output@@@2@@__crt_stdio_output@@AEAAXI@Z 0000000180175374 f i libucrt:output.obj
 0001:00174378       ?set_flag@?$output_processor@DV?$string_output_adapter@D@__crt_stdio_output@@V?$format_validation_base@DV?$string_output_adapter@D@__crt_stdio_output@@@2@@__crt_stdio_output@@AEAAXI@Z 0000000180175378 f i libucrt:output.obj
 0001:0017437c       ?set_flag@?$output_processor@DV?$string_output_adapter@D@__crt_stdio_output@@V?$positional_parameter_base@DV?$string_output_adapter@D@__crt_stdio_output@@@2@@__crt_stdio_output@@AEAAXI@Z 000000018017537c f i libucrt:output.obj
 0001:00174380       ?set_flag@?$output_processor@DV?$string_output_adapter@D@__crt_stdio_output@@V?$standard_base@DV?$string_output_adapter@D@__crt_stdio_output@@@2@@__crt_stdio_output@@AEAAXI@Z 0000000180175380 f i libucrt:output.obj
 0001:00174384       ?set_flag@?$output_processor@_WV?$stream_output_adapter@_W@__crt_stdio_output@@V?$format_validation_base@_WV?$stream_output_adapter@_W@__crt_stdio_output@@@2@@__crt_stdio_output@@AEAAXI@Z 0000000180175384 f i libucrt:output.obj
 0001:00174388       ?set_flag@?$output_processor@_WV?$stream_output_adapter@_W@__crt_stdio_output@@V?$positional_parameter_base@_WV?$stream_output_adapter@_W@__crt_stdio_output@@@2@@__crt_stdio_output@@AEAAXI@Z 0000000180175388 f i libucrt:output.obj
 0001:0017438c       ?set_flag@?$output_processor@_WV?$stream_output_adapter@_W@__crt_stdio_output@@V?$standard_base@_WV?$stream_output_adapter@_W@__crt_stdio_output@@@2@@__crt_stdio_output@@AEAAXI@Z 000000018017538c f i libucrt:output.obj
 0001:00174390       ?set_flag@?$output_processor@_WV?$string_output_adapter@_W@__crt_stdio_output@@V?$format_validation_base@_WV?$string_output_adapter@_W@__crt_stdio_output@@@2@@__crt_stdio_output@@AEAAXI@Z 0000000180175390 f i libucrt:output.obj
 0001:00174394       ?set_flag@?$output_processor@_WV?$string_output_adapter@_W@__crt_stdio_output@@V?$positional_parameter_base@_WV?$string_output_adapter@_W@__crt_stdio_output@@@2@@__crt_stdio_output@@AEAAXI@Z 0000000180175394 f i libucrt:output.obj
 0001:00174398       ?set_flag@?$output_processor@_WV?$string_output_adapter@_W@__crt_stdio_output@@V?$standard_base@_WV?$string_output_adapter@_W@__crt_stdio_output@@@2@@__crt_stdio_output@@AEAAXI@Z 0000000180175398 f i libucrt:output.obj
 0001:0017439c       ?should_format@?$positional_parameter_base@DV?$stream_output_adapter@D@__crt_stdio_output@@@__crt_stdio_output@@IEAA_NXZ 000000018017539c f i libucrt:output.obj
 0001:001743b4       ?should_format@?$positional_parameter_base@DV?$string_output_adapter@D@__crt_stdio_output@@@__crt_stdio_output@@IEAA_NXZ 00000001801753b4 f i libucrt:output.obj
 0001:001743cc       ?should_format@?$positional_parameter_base@_WV?$stream_output_adapter@_W@__crt_stdio_output@@@__crt_stdio_output@@IEAA_NXZ 00000001801753cc f i libucrt:output.obj
 0001:001743e4       ?should_format@?$positional_parameter_base@_WV?$string_output_adapter@_W@__crt_stdio_output@@@__crt_stdio_output@@IEAA_NXZ 00000001801753e4 f i libucrt:output.obj
 0001:001743fc       ?should_format@?$standard_base@DV?$stream_output_adapter@D@__crt_stdio_output@@@__crt_stdio_output@@IEAA_NXZ 00000001801753fc f i libucrt:output.obj
 0001:00174400       ?should_format@?$standard_base@DV?$string_output_adapter@D@__crt_stdio_output@@@__crt_stdio_output@@IEAA_NXZ 0000000180175400 f i libucrt:output.obj
 0001:00174404       ?should_format@?$standard_base@_WV?$stream_output_adapter@_W@__crt_stdio_output@@@__crt_stdio_output@@IEAA_NXZ 0000000180175404 f i libucrt:output.obj
 0001:00174408       ?should_format@?$standard_base@_WV?$string_output_adapter@_W@__crt_stdio_output@@@__crt_stdio_output@@IEAA_NXZ 0000000180175408 f i libucrt:output.obj
 0001:0017440c       ?should_skip_normal_state_processing@?$positional_parameter_base@DV?$stream_output_adapter@D@__crt_stdio_output@@@__crt_stdio_output@@IEAA_NXZ 000000018017540c f i libucrt:output.obj
 0001:00174434       ?should_skip_normal_state_processing@?$positional_parameter_base@DV?$string_output_adapter@D@__crt_stdio_output@@@__crt_stdio_output@@IEAA_NXZ 0000000180175434 f i libucrt:output.obj
 0001:0017445c       ?should_skip_normal_state_processing@?$positional_parameter_base@_WV?$stream_output_adapter@_W@__crt_stdio_output@@@__crt_stdio_output@@IEAA_NXZ 000000018017545c f i libucrt:output.obj
 0001:00174484       ?should_skip_normal_state_processing@?$positional_parameter_base@_WV?$string_output_adapter@_W@__crt_stdio_output@@@__crt_stdio_output@@IEAA_NXZ 0000000180175484 f i libucrt:output.obj
 0001:001744ac       ?should_skip_normal_state_processing@?$standard_base@DV?$stream_output_adapter@D@__crt_stdio_output@@@__crt_stdio_output@@IEAA_NXZ 00000001801754ac f i libucrt:output.obj
 0001:001744b0       ?should_skip_normal_state_processing@?$standard_base@DV?$string_output_adapter@D@__crt_stdio_output@@@__crt_stdio_output@@IEAA_NXZ 00000001801754b0 f i libucrt:output.obj
 0001:001744b4       ?should_skip_normal_state_processing@?$standard_base@_WV?$stream_output_adapter@_W@__crt_stdio_output@@@__crt_stdio_output@@IEAA_NXZ 00000001801754b4 f i libucrt:output.obj
 0001:001744b8       ?should_skip_normal_state_processing@?$standard_base@_WV?$string_output_adapter@_W@__crt_stdio_output@@@__crt_stdio_output@@IEAA_NXZ 00000001801754b8 f i libucrt:output.obj
 0001:001744bc       ?should_skip_type_state_output@?$positional_parameter_base@DV?$stream_output_adapter@D@__crt_stdio_output@@@__crt_stdio_output@@IEBA_NXZ 00000001801754bc f i libucrt:output.obj
 0001:001744d8       ?should_skip_type_state_output@?$positional_parameter_base@DV?$string_output_adapter@D@__crt_stdio_output@@@__crt_stdio_output@@IEBA_NXZ 00000001801754d8 f i libucrt:output.obj
 0001:001744f4       ?should_skip_type_state_output@?$positional_parameter_base@_WV?$stream_output_adapter@_W@__crt_stdio_output@@@__crt_stdio_output@@IEBA_NXZ 00000001801754f4 f i libucrt:output.obj
 0001:00174510       ?should_skip_type_state_output@?$positional_parameter_base@_WV?$string_output_adapter@_W@__crt_stdio_output@@@__crt_stdio_output@@IEBA_NXZ 0000000180175510 f i libucrt:output.obj
 0001:0017452c       ?should_skip_type_state_output@?$standard_base@DV?$stream_output_adapter@D@__crt_stdio_output@@@__crt_stdio_output@@IEBA_NXZ 000000018017552c f i libucrt:output.obj
 0001:00174530       ?should_skip_type_state_output@?$standard_base@DV?$string_output_adapter@D@__crt_stdio_output@@@__crt_stdio_output@@IEBA_NXZ 0000000180175530 f i libucrt:output.obj
 0001:00174534       ?should_skip_type_state_output@?$standard_base@_WV?$stream_output_adapter@_W@__crt_stdio_output@@@__crt_stdio_output@@IEBA_NXZ 0000000180175534 f i libucrt:output.obj
 0001:00174538       ?should_skip_type_state_output@?$standard_base@_WV?$string_output_adapter@_W@__crt_stdio_output@@@__crt_stdio_output@@IEBA_NXZ 0000000180175538 f i libucrt:output.obj
 0001:0017453c       ?state_case_dot@?$output_processor@DV?$stream_output_adapter@D@__crt_stdio_output@@V?$format_validation_base@DV?$stream_output_adapter@D@__crt_stdio_output@@@2@@__crt_stdio_output@@AEAA_NXZ 000000018017553c f i libucrt:output.obj
 0001:00174544       ?state_case_dot@?$output_processor@DV?$stream_output_adapter@D@__crt_stdio_output@@V?$positional_parameter_base@DV?$stream_output_adapter@D@__crt_stdio_output@@@2@@__crt_stdio_output@@AEAA_NXZ 0000000180175544 f i libucrt:output.obj
 0001:0017454c       ?state_case_dot@?$output_processor@DV?$stream_output_adapter@D@__crt_stdio_output@@V?$standard_base@DV?$stream_output_adapter@D@__crt_stdio_output@@@2@@__crt_stdio_output@@AEAA_NXZ 000000018017554c f i libucrt:output.obj
 0001:00174554       ?state_case_dot@?$output_processor@DV?$string_output_adapter@D@__crt_stdio_output@@V?$format_validation_base@DV?$string_output_adapter@D@__crt_stdio_output@@@2@@__crt_stdio_output@@AEAA_NXZ 0000000180175554 f i libucrt:output.obj
 0001:0017455c       ?state_case_dot@?$output_processor@DV?$string_output_adapter@D@__crt_stdio_output@@V?$positional_parameter_base@DV?$string_output_adapter@D@__crt_stdio_output@@@2@@__crt_stdio_output@@AEAA_NXZ 000000018017555c f i libucrt:output.obj
 0001:00174564       ?state_case_dot@?$output_processor@DV?$string_output_adapter@D@__crt_stdio_output@@V?$standard_base@DV?$string_output_adapter@D@__crt_stdio_output@@@2@@__crt_stdio_output@@AEAA_NXZ 0000000180175564 f i libucrt:output.obj
 0001:0017456c       ?state_case_dot@?$output_processor@_WV?$stream_output_adapter@_W@__crt_stdio_output@@V?$format_validation_base@_WV?$stream_output_adapter@_W@__crt_stdio_output@@@2@@__crt_stdio_output@@AEAA_NXZ 000000018017556c f i libucrt:output.obj
 0001:00174574       ?state_case_dot@?$output_processor@_WV?$stream_output_adapter@_W@__crt_stdio_output@@V?$positional_parameter_base@_WV?$stream_output_adapter@_W@__crt_stdio_output@@@2@@__crt_stdio_output@@AEAA_NXZ 0000000180175574 f i libucrt:output.obj
 0001:0017457c       ?state_case_dot@?$output_processor@_WV?$stream_output_adapter@_W@__crt_stdio_output@@V?$standard_base@_WV?$stream_output_adapter@_W@__crt_stdio_output@@@2@@__crt_stdio_output@@AEAA_NXZ 000000018017557c f i libucrt:output.obj
 0001:00174584       ?state_case_dot@?$output_processor@_WV?$string_output_adapter@_W@__crt_stdio_output@@V?$format_validation_base@_WV?$string_output_adapter@_W@__crt_stdio_output@@@2@@__crt_stdio_output@@AEAA_NXZ 0000000180175584 f i libucrt:output.obj
 0001:0017458c       ?state_case_dot@?$output_processor@_WV?$string_output_adapter@_W@__crt_stdio_output@@V?$positional_parameter_base@_WV?$string_output_adapter@_W@__crt_stdio_output@@@2@@__crt_stdio_output@@AEAA_NXZ 000000018017558c f i libucrt:output.obj
 0001:00174594       ?state_case_dot@?$output_processor@_WV?$string_output_adapter@_W@__crt_stdio_output@@V?$standard_base@_WV?$string_output_adapter@_W@__crt_stdio_output@@@2@@__crt_stdio_output@@AEAA_NXZ 0000000180175594 f i libucrt:output.obj
 0001:0017459c       ?state_case_flag@?$output_processor@DV?$stream_output_adapter@D@__crt_stdio_output@@V?$format_validation_base@DV?$stream_output_adapter@D@__crt_stdio_output@@@2@@__crt_stdio_output@@AEAA_NXZ 000000018017559c f i libucrt:output.obj
 0001:001745d4       ?state_case_flag@?$output_processor@DV?$stream_output_adapter@D@__crt_stdio_output@@V?$positional_parameter_base@DV?$stream_output_adapter@D@__crt_stdio_output@@@2@@__crt_stdio_output@@AEAA_NXZ 00000001801755d4 f i libucrt:output.obj
 0001:0017460c       ?state_case_flag@?$output_processor@DV?$stream_output_adapter@D@__crt_stdio_output@@V?$standard_base@DV?$stream_output_adapter@D@__crt_stdio_output@@@2@@__crt_stdio_output@@AEAA_NXZ 000000018017560c f i libucrt:output.obj
 0001:00174644       ?state_case_flag@?$output_processor@DV?$string_output_adapter@D@__crt_stdio_output@@V?$format_validation_base@DV?$string_output_adapter@D@__crt_stdio_output@@@2@@__crt_stdio_output@@AEAA_NXZ 0000000180175644 f i libucrt:output.obj
 0001:0017467c       ?state_case_flag@?$output_processor@DV?$string_output_adapter@D@__crt_stdio_output@@V?$positional_parameter_base@DV?$string_output_adapter@D@__crt_stdio_output@@@2@@__crt_stdio_output@@AEAA_NXZ 000000018017567c f i libucrt:output.obj
 0001:001746b4       ?state_case_flag@?$output_processor@DV?$string_output_adapter@D@__crt_stdio_output@@V?$standard_base@DV?$string_output_adapter@D@__crt_stdio_output@@@2@@__crt_stdio_output@@AEAA_NXZ 00000001801756b4 f i libucrt:output.obj
 0001:001746ec       ?state_case_flag@?$output_processor@_WV?$stream_output_adapter@_W@__crt_stdio_output@@V?$format_validation_base@_WV?$stream_output_adapter@_W@__crt_stdio_output@@@2@@__crt_stdio_output@@AEAA_NXZ 00000001801756ec f i libucrt:output.obj
 0001:00174730       ?state_case_flag@?$output_processor@_WV?$stream_output_adapter@_W@__crt_stdio_output@@V?$positional_parameter_base@_WV?$stream_output_adapter@_W@__crt_stdio_output@@@2@@__crt_stdio_output@@AEAA_NXZ 0000000180175730 f i libucrt:output.obj
 0001:00174774       ?state_case_flag@?$output_processor@_WV?$stream_output_adapter@_W@__crt_stdio_output@@V?$standard_base@_WV?$stream_output_adapter@_W@__crt_stdio_output@@@2@@__crt_stdio_output@@AEAA_NXZ 0000000180175774 f i libucrt:output.obj
 0001:001747b8       ?state_case_flag@?$output_processor@_WV?$string_output_adapter@_W@__crt_stdio_output@@V?$format_validation_base@_WV?$string_output_adapter@_W@__crt_stdio_output@@@2@@__crt_stdio_output@@AEAA_NXZ 00000001801757b8 f i libucrt:output.obj
 0001:001747fc       ?state_case_flag@?$output_processor@_WV?$string_output_adapter@_W@__crt_stdio_output@@V?$positional_parameter_base@_WV?$string_output_adapter@_W@__crt_stdio_output@@@2@@__crt_stdio_output@@AEAA_NXZ 00000001801757fc f i libucrt:output.obj
 0001:00174840       ?state_case_flag@?$output_processor@_WV?$string_output_adapter@_W@__crt_stdio_output@@V?$standard_base@_WV?$string_output_adapter@_W@__crt_stdio_output@@@2@@__crt_stdio_output@@AEAA_NXZ 0000000180175840 f i libucrt:output.obj
 0001:00174884       ?state_case_normal@?$output_processor@DV?$stream_output_adapter@D@__crt_stdio_output@@V?$format_validation_base@DV?$stream_output_adapter@D@__crt_stdio_output@@@2@@__crt_stdio_output@@AEAA_NXZ 0000000180175884 f i libucrt:output.obj
 0001:001748f4       ?state_case_normal@?$output_processor@DV?$stream_output_adapter@D@__crt_stdio_output@@V?$positional_parameter_base@DV?$stream_output_adapter@D@__crt_stdio_output@@@2@@__crt_stdio_output@@AEAA_NXZ 00000001801758f4 f i libucrt:output.obj
 0001:00174988       ?state_case_normal@?$output_processor@DV?$stream_output_adapter@D@__crt_stdio_output@@V?$standard_base@DV?$stream_output_adapter@D@__crt_stdio_output@@@2@@__crt_stdio_output@@AEAA_NXZ 0000000180175988 f i libucrt:output.obj
 0001:001749f8       ?state_case_normal@?$output_processor@DV?$string_output_adapter@D@__crt_stdio_output@@V?$format_validation_base@DV?$string_output_adapter@D@__crt_stdio_output@@@2@@__crt_stdio_output@@AEAA_NXZ 00000001801759f8 f i libucrt:output.obj
 0001:00174a6c       ?state_case_normal@?$output_processor@DV?$string_output_adapter@D@__crt_stdio_output@@V?$positional_parameter_base@DV?$string_output_adapter@D@__crt_stdio_output@@@2@@__crt_stdio_output@@AEAA_NXZ 0000000180175a6c f i libucrt:output.obj
 0001:00174b04       ?state_case_normal@?$output_processor@DV?$string_output_adapter@D@__crt_stdio_output@@V?$standard_base@DV?$string_output_adapter@D@__crt_stdio_output@@@2@@__crt_stdio_output@@AEAA_NXZ 0000000180175b04 f i libucrt:output.obj
 0001:00174b78       ?state_case_normal@?$output_processor@_WV?$stream_output_adapter@_W@__crt_stdio_output@@V?$format_validation_base@_WV?$stream_output_adapter@_W@__crt_stdio_output@@@2@@__crt_stdio_output@@AEAA_NXZ 0000000180175b78 f i libucrt:output.obj
 0001:00174bd0       ?state_case_normal@?$output_processor@_WV?$stream_output_adapter@_W@__crt_stdio_output@@V?$positional_parameter_base@_WV?$stream_output_adapter@_W@__crt_stdio_output@@@2@@__crt_stdio_output@@AEAA_NXZ 0000000180175bd0 f i libucrt:output.obj
 0001:00174c4c       ?state_case_normal@?$output_processor@_WV?$stream_output_adapter@_W@__crt_stdio_output@@V?$standard_base@_WV?$stream_output_adapter@_W@__crt_stdio_output@@@2@@__crt_stdio_output@@AEAA_NXZ 0000000180175c4c f i libucrt:output.obj
 0001:00174ca4       ?state_case_normal@?$output_processor@_WV?$string_output_adapter@_W@__crt_stdio_output@@V?$format_validation_base@_WV?$string_output_adapter@_W@__crt_stdio_output@@@2@@__crt_stdio_output@@AEAA_NXZ 0000000180175ca4 f i libucrt:output.obj
 0001:00174cf8       ?state_case_normal@?$output_processor@_WV?$string_output_adapter@_W@__crt_stdio_output@@V?$positional_parameter_base@_WV?$string_output_adapter@_W@__crt_stdio_output@@@2@@__crt_stdio_output@@AEAA_NXZ 0000000180175cf8 f i libucrt:output.obj
 0001:00174d70       ?state_case_normal@?$output_processor@_WV?$string_output_adapter@_W@__crt_stdio_output@@V?$standard_base@_WV?$string_output_adapter@_W@__crt_stdio_output@@@2@@__crt_stdio_output@@AEAA_NXZ 0000000180175d70 f i libucrt:output.obj
 0001:00174dc4       ?state_case_normal_common@?$output_processor@DV?$stream_output_adapter@D@__crt_stdio_output@@V?$format_validation_base@DV?$stream_output_adapter@D@__crt_stdio_output@@@2@@__crt_stdio_output@@AEAA_NXZ 0000000180175dc4 f i libucrt:output.obj
 0001:00174e20       ?state_case_normal_common@?$output_processor@DV?$stream_output_adapter@D@__crt_stdio_output@@V?$positional_parameter_base@DV?$stream_output_adapter@D@__crt_stdio_output@@@2@@__crt_stdio_output@@AEAA_NXZ 0000000180175e20 f i libucrt:output.obj
 0001:00174e7c       ?state_case_normal_common@?$output_processor@DV?$stream_output_adapter@D@__crt_stdio_output@@V?$standard_base@DV?$stream_output_adapter@D@__crt_stdio_output@@@2@@__crt_stdio_output@@AEAA_NXZ 0000000180175e7c f i libucrt:output.obj
 0001:00174ed8       ?state_case_normal_common@?$output_processor@DV?$string_output_adapter@D@__crt_stdio_output@@V?$format_validation_base@DV?$string_output_adapter@D@__crt_stdio_output@@@2@@__crt_stdio_output@@AEAA_NXZ 0000000180175ed8 f i libucrt:output.obj
 0001:00174f38       ?state_case_normal_common@?$output_processor@DV?$string_output_adapter@D@__crt_stdio_output@@V?$positional_parameter_base@DV?$string_output_adapter@D@__crt_stdio_output@@@2@@__crt_stdio_output@@AEAA_NXZ 0000000180175f38 f i libucrt:output.obj
 0001:00174f98       ?state_case_normal_common@?$output_processor@DV?$string_output_adapter@D@__crt_stdio_output@@V?$standard_base@DV?$string_output_adapter@D@__crt_stdio_output@@@2@@__crt_stdio_output@@AEAA_NXZ 0000000180175f98 f i libucrt:output.obj
 0001:00174ff8       ?state_case_normal_common@?$output_processor@_WV?$stream_output_adapter@_W@__crt_stdio_output@@V?$format_validation_base@_WV?$stream_output_adapter@_W@__crt_stdio_output@@@2@@__crt_stdio_output@@AEAA_NXZ 0000000180175ff8 f i libucrt:output.obj
 0001:00175050       ?state_case_normal_common@?$output_processor@_WV?$stream_output_adapter@_W@__crt_stdio_output@@V?$positional_parameter_base@_WV?$stream_output_adapter@_W@__crt_stdio_output@@@2@@__crt_stdio_output@@AEAA_NXZ 0000000180176050 f i libucrt:output.obj
 0001:001750a8       ?state_case_normal_common@?$output_processor@_WV?$stream_output_adapter@_W@__crt_stdio_output@@V?$standard_base@_WV?$stream_output_adapter@_W@__crt_stdio_output@@@2@@__crt_stdio_output@@AEAA_NXZ 00000001801760a8 f i libucrt:output.obj
 0001:00175100       ?state_case_normal_common@?$output_processor@_WV?$string_output_adapter@_W@__crt_stdio_output@@V?$format_validation_base@_WV?$string_output_adapter@_W@__crt_stdio_output@@@2@@__crt_stdio_output@@AEAA_NXZ 0000000180176100 f i libucrt:output.obj
 0001:00175154       ?state_case_normal_common@?$output_processor@_WV?$string_output_adapter@_W@__crt_stdio_output@@V?$positional_parameter_base@_WV?$string_output_adapter@_W@__crt_stdio_output@@@2@@__crt_stdio_output@@AEAA_NXZ 0000000180176154 f i libucrt:output.obj
 0001:001751a8       ?state_case_normal_common@?$output_processor@_WV?$string_output_adapter@_W@__crt_stdio_output@@V?$standard_base@_WV?$string_output_adapter@_W@__crt_stdio_output@@@2@@__crt_stdio_output@@AEAA_NXZ 00000001801761a8 f i libucrt:output.obj
 0001:001751fc       ?state_case_normal_tchar@?$output_processor@DV?$stream_output_adapter@D@__crt_stdio_output@@V?$format_validation_base@DV?$stream_output_adapter@D@__crt_stdio_output@@@2@@__crt_stdio_output@@AEAA_ND@Z 00000001801761fc f i libucrt:output.obj
 0001:001752a0       ?state_case_normal_tchar@?$output_processor@DV?$stream_output_adapter@D@__crt_stdio_output@@V?$positional_parameter_base@DV?$stream_output_adapter@D@__crt_stdio_output@@@2@@__crt_stdio_output@@AEAA_ND@Z 00000001801762a0 f i libucrt:output.obj
 0001:00175344       ?state_case_normal_tchar@?$output_processor@DV?$stream_output_adapter@D@__crt_stdio_output@@V?$standard_base@DV?$stream_output_adapter@D@__crt_stdio_output@@@2@@__crt_stdio_output@@AEAA_ND@Z 0000000180176344 f i libucrt:output.obj
 0001:001753e8       ?state_case_normal_tchar@?$output_processor@DV?$string_output_adapter@D@__crt_stdio_output@@V?$format_validation_base@DV?$string_output_adapter@D@__crt_stdio_output@@@2@@__crt_stdio_output@@AEAA_ND@Z 00000001801763e8 f i libucrt:output.obj
 0001:00175490       ?state_case_normal_tchar@?$output_processor@DV?$string_output_adapter@D@__crt_stdio_output@@V?$positional_parameter_base@DV?$string_output_adapter@D@__crt_stdio_output@@@2@@__crt_stdio_output@@AEAA_ND@Z 0000000180176490 f i libucrt:output.obj
 0001:00175538       ?state_case_normal_tchar@?$output_processor@DV?$string_output_adapter@D@__crt_stdio_output@@V?$standard_base@DV?$string_output_adapter@D@__crt_stdio_output@@@2@@__crt_stdio_output@@AEAA_ND@Z 0000000180176538 f i libucrt:output.obj
 0001:001755e0       ?state_case_normal_tchar@?$output_processor@_WV?$stream_output_adapter@_W@__crt_stdio_output@@V?$format_validation_base@_WV?$stream_output_adapter@_W@__crt_stdio_output@@@2@@__crt_stdio_output@@AEAA_N_W@Z 00000001801765e0 f i libucrt:output.obj
 0001:001755e8       ?state_case_normal_tchar@?$output_processor@_WV?$stream_output_adapter@_W@__crt_stdio_output@@V?$positional_parameter_base@_WV?$stream_output_adapter@_W@__crt_stdio_output@@@2@@__crt_stdio_output@@AEAA_N_W@Z 00000001801765e8 f i libucrt:output.obj
 0001:001755f0       ?state_case_normal_tchar@?$output_processor@_WV?$stream_output_adapter@_W@__crt_stdio_output@@V?$standard_base@_WV?$stream_output_adapter@_W@__crt_stdio_output@@@2@@__crt_stdio_output@@AEAA_N_W@Z 00000001801765f0 f i libucrt:output.obj
 0001:001755f8       ?state_case_normal_tchar@?$output_processor@_WV?$string_output_adapter@_W@__crt_stdio_output@@V?$format_validation_base@_WV?$string_output_adapter@_W@__crt_stdio_output@@@2@@__crt_stdio_output@@AEAA_N_W@Z 00000001801765f8 f i libucrt:output.obj
 0001:00175600       ?state_case_normal_tchar@?$output_processor@_WV?$string_output_adapter@_W@__crt_stdio_output@@V?$positional_parameter_base@_WV?$string_output_adapter@_W@__crt_stdio_output@@@2@@__crt_stdio_output@@AEAA_N_W@Z 0000000180176600 f i libucrt:output.obj
 0001:00175608       ?state_case_normal_tchar@?$output_processor@_WV?$string_output_adapter@_W@__crt_stdio_output@@V?$standard_base@_WV?$string_output_adapter@_W@__crt_stdio_output@@@2@@__crt_stdio_output@@AEAA_N_W@Z 0000000180176608 f i libucrt:output.obj
 0001:00175610       ?state_case_percent@?$output_processor@DV?$stream_output_adapter@D@__crt_stdio_output@@V?$format_validation_base@DV?$stream_output_adapter@D@__crt_stdio_output@@@2@@__crt_stdio_output@@AEAA_NXZ 0000000180176610 f i libucrt:output.obj
 0001:00175628       ?state_case_percent@?$output_processor@DV?$stream_output_adapter@D@__crt_stdio_output@@V?$positional_parameter_base@DV?$stream_output_adapter@D@__crt_stdio_output@@@2@@__crt_stdio_output@@AEAA_NXZ 0000000180176628 f i libucrt:output.obj
 0001:00175640       ?state_case_percent@?$output_processor@DV?$stream_output_adapter@D@__crt_stdio_output@@V?$standard_base@DV?$stream_output_adapter@D@__crt_stdio_output@@@2@@__crt_stdio_output@@AEAA_NXZ 0000000180176640 f i libucrt:output.obj
 0001:00175658       ?state_case_percent@?$output_processor@DV?$string_output_adapter@D@__crt_stdio_output@@V?$format_validation_base@DV?$string_output_adapter@D@__crt_stdio_output@@@2@@__crt_stdio_output@@AEAA_NXZ 0000000180176658 f i libucrt:output.obj
 0001:00175670       ?state_case_percent@?$output_processor@DV?$string_output_adapter@D@__crt_stdio_output@@V?$positional_parameter_base@DV?$string_output_adapter@D@__crt_stdio_output@@@2@@__crt_stdio_output@@AEAA_NXZ 0000000180176670 f i libucrt:output.obj
 0001:00175688       ?state_case_percent@?$output_processor@DV?$string_output_adapter@D@__crt_stdio_output@@V?$standard_base@DV?$string_output_adapter@D@__crt_stdio_output@@@2@@__crt_stdio_output@@AEAA_NXZ 0000000180176688 f i libucrt:output.obj
 0001:001756a0       ?state_case_percent@?$output_processor@_WV?$stream_output_adapter@_W@__crt_stdio_output@@V?$format_validation_base@_WV?$stream_output_adapter@_W@__crt_stdio_output@@@2@@__crt_stdio_output@@AEAA_NXZ 00000001801766a0 f i libucrt:output.obj
 0001:001756b8       ?state_case_percent@?$output_processor@_WV?$stream_output_adapter@_W@__crt_stdio_output@@V?$positional_parameter_base@_WV?$stream_output_adapter@_W@__crt_stdio_output@@@2@@__crt_stdio_output@@AEAA_NXZ 00000001801766b8 f i libucrt:output.obj
 0001:001756d0       ?state_case_percent@?$output_processor@_WV?$stream_output_adapter@_W@__crt_stdio_output@@V?$standard_base@_WV?$stream_output_adapter@_W@__crt_stdio_output@@@2@@__crt_stdio_output@@AEAA_NXZ 00000001801766d0 f i libucrt:output.obj
 0001:001756e8       ?state_case_percent@?$output_processor@_WV?$string_output_adapter@_W@__crt_stdio_output@@V?$format_validation_base@_WV?$string_output_adapter@_W@__crt_stdio_output@@@2@@__crt_stdio_output@@AEAA_NXZ 00000001801766e8 f i libucrt:output.obj
 0001:00175700       ?state_case_percent@?$output_processor@_WV?$string_output_adapter@_W@__crt_stdio_output@@V?$positional_parameter_base@_WV?$string_output_adapter@_W@__crt_stdio_output@@@2@@__crt_stdio_output@@AEAA_NXZ 0000000180176700 f i libucrt:output.obj
 0001:00175718       ?state_case_percent@?$output_processor@_WV?$string_output_adapter@_W@__crt_stdio_output@@V?$standard_base@_WV?$string_output_adapter@_W@__crt_stdio_output@@@2@@__crt_stdio_output@@AEAA_NXZ 0000000180176718 f i libucrt:output.obj
 0001:00175730       ?state_case_precision@?$output_processor@DV?$stream_output_adapter@D@__crt_stdio_output@@V?$format_validation_base@DV?$stream_output_adapter@D@__crt_stdio_output@@@2@@__crt_stdio_output@@AEAA_NXZ 0000000180176730 f i libucrt:output.obj
 0001:00175758       ?state_case_precision@?$output_processor@DV?$stream_output_adapter@D@__crt_stdio_output@@V?$positional_parameter_base@DV?$stream_output_adapter@D@__crt_stdio_output@@@2@@__crt_stdio_output@@AEAA_NXZ 0000000180176758 f i libucrt:output.obj
 0001:001757a4       ?state_case_precision@?$output_processor@DV?$stream_output_adapter@D@__crt_stdio_output@@V?$standard_base@DV?$stream_output_adapter@D@__crt_stdio_output@@@2@@__crt_stdio_output@@AEAA_NXZ 00000001801767a4 f i libucrt:output.obj
 0001:001757cc       ?state_case_precision@?$output_processor@DV?$string_output_adapter@D@__crt_stdio_output@@V?$format_validation_base@DV?$string_output_adapter@D@__crt_stdio_output@@@2@@__crt_stdio_output@@AEAA_NXZ 00000001801767cc f i libucrt:output.obj
 0001:001757f4       ?state_case_precision@?$output_processor@DV?$string_output_adapter@D@__crt_stdio_output@@V?$positional_parameter_base@DV?$string_output_adapter@D@__crt_stdio_output@@@2@@__crt_stdio_output@@AEAA_NXZ 00000001801767f4 f i libucrt:output.obj
 0001:00175840       ?state_case_precision@?$output_processor@DV?$string_output_adapter@D@__crt_stdio_output@@V?$standard_base@DV?$string_output_adapter@D@__crt_stdio_output@@@2@@__crt_stdio_output@@AEAA_NXZ 0000000180176840 f i libucrt:output.obj
 0001:00175868       ?state_case_precision@?$output_processor@_WV?$stream_output_adapter@_W@__crt_stdio_output@@V?$format_validation_base@_WV?$stream_output_adapter@_W@__crt_stdio_output@@@2@@__crt_stdio_output@@AEAA_NXZ 0000000180176868 f i libucrt:output.obj
 0001:00175890       ?state_case_precision@?$output_processor@_WV?$stream_output_adapter@_W@__crt_stdio_output@@V?$positional_parameter_base@_WV?$stream_output_adapter@_W@__crt_stdio_output@@@2@@__crt_stdio_output@@AEAA_NXZ 0000000180176890 f i libucrt:output.obj
 0001:001758dc       ?state_case_precision@?$output_processor@_WV?$stream_output_adapter@_W@__crt_stdio_output@@V?$standard_base@_WV?$stream_output_adapter@_W@__crt_stdio_output@@@2@@__crt_stdio_output@@AEAA_NXZ 00000001801768dc f i libucrt:output.obj
 0001:00175904       ?state_case_precision@?$output_processor@_WV?$string_output_adapter@_W@__crt_stdio_output@@V?$format_validation_base@_WV?$string_output_adapter@_W@__crt_stdio_output@@@2@@__crt_stdio_output@@AEAA_NXZ 0000000180176904 f i libucrt:output.obj
 0001:0017592c       ?state_case_precision@?$output_processor@_WV?$string_output_adapter@_W@__crt_stdio_output@@V?$positional_parameter_base@_WV?$string_output_adapter@_W@__crt_stdio_output@@@2@@__crt_stdio_output@@AEAA_NXZ 000000018017692c f i libucrt:output.obj
 0001:00175978       ?state_case_precision@?$output_processor@_WV?$string_output_adapter@_W@__crt_stdio_output@@V?$standard_base@_WV?$string_output_adapter@_W@__crt_stdio_output@@@2@@__crt_stdio_output@@AEAA_NXZ 0000000180176978 f i libucrt:output.obj
 0001:001759a0       ?state_case_size@?$output_processor@DV?$stream_output_adapter@D@__crt_stdio_output@@V?$format_validation_base@DV?$stream_output_adapter@D@__crt_stdio_output@@@2@@__crt_stdio_output@@AEAA_NXZ 00000001801769a0 f i libucrt:output.obj
 0001:00175b10       ?state_case_size@?$output_processor@DV?$stream_output_adapter@D@__crt_stdio_output@@V?$positional_parameter_base@DV?$stream_output_adapter@D@__crt_stdio_output@@@2@@__crt_stdio_output@@AEAA_NXZ 0000000180176b10 f i libucrt:output.obj
 0001:00175c80       ?state_case_size@?$output_processor@DV?$stream_output_adapter@D@__crt_stdio_output@@V?$standard_base@DV?$stream_output_adapter@D@__crt_stdio_output@@@2@@__crt_stdio_output@@AEAA_NXZ 0000000180176c80 f i libucrt:output.obj
 0001:00175df0       ?state_case_size@?$output_processor@DV?$string_output_adapter@D@__crt_stdio_output@@V?$format_validation_base@DV?$string_output_adapter@D@__crt_stdio_output@@@2@@__crt_stdio_output@@AEAA_NXZ 0000000180176df0 f i libucrt:output.obj
 0001:00175f60       ?state_case_size@?$output_processor@DV?$string_output_adapter@D@__crt_stdio_output@@V?$positional_parameter_base@DV?$string_output_adapter@D@__crt_stdio_output@@@2@@__crt_stdio_output@@AEAA_NXZ 0000000180176f60 f i libucrt:output.obj
 0001:001760d0       ?state_case_size@?$output_processor@DV?$string_output_adapter@D@__crt_stdio_output@@V?$standard_base@DV?$string_output_adapter@D@__crt_stdio_output@@@2@@__crt_stdio_output@@AEAA_NXZ 00000001801770d0 f i libucrt:output.obj
 0001:00176240       ?state_case_size@?$output_processor@_WV?$stream_output_adapter@_W@__crt_stdio_output@@V?$format_validation_base@_WV?$stream_output_adapter@_W@__crt_stdio_output@@@2@@__crt_stdio_output@@AEAA_NXZ 0000000180177240 f i libucrt:output.obj
 0001:001763d4       ?state_case_size@?$output_processor@_WV?$stream_output_adapter@_W@__crt_stdio_output@@V?$positional_parameter_base@_WV?$stream_output_adapter@_W@__crt_stdio_output@@@2@@__crt_stdio_output@@AEAA_NXZ 00000001801773d4 f i libucrt:output.obj
 0001:00176568       ?state_case_size@?$output_processor@_WV?$stream_output_adapter@_W@__crt_stdio_output@@V?$standard_base@_WV?$stream_output_adapter@_W@__crt_stdio_output@@@2@@__crt_stdio_output@@AEAA_NXZ 0000000180177568 f i libucrt:output.obj
 0001:001766fc       ?state_case_size@?$output_processor@_WV?$string_output_adapter@_W@__crt_stdio_output@@V?$format_validation_base@_WV?$string_output_adapter@_W@__crt_stdio_output@@@2@@__crt_stdio_output@@AEAA_NXZ 00000001801776fc f i libucrt:output.obj
 0001:00176890       ?state_case_size@?$output_processor@_WV?$string_output_adapter@_W@__crt_stdio_output@@V?$positional_parameter_base@_WV?$string_output_adapter@_W@__crt_stdio_output@@@2@@__crt_stdio_output@@AEAA_NXZ 0000000180177890 f i libucrt:output.obj
 0001:00176a24       ?state_case_size@?$output_processor@_WV?$string_output_adapter@_W@__crt_stdio_output@@V?$standard_base@_WV?$string_output_adapter@_W@__crt_stdio_output@@@2@@__crt_stdio_output@@AEAA_NXZ 0000000180177a24 f i libucrt:output.obj
 0001:00176bb8       ?state_case_type@?$output_processor@DV?$stream_output_adapter@D@__crt_stdio_output@@V?$format_validation_base@DV?$stream_output_adapter@D@__crt_stdio_output@@@2@@__crt_stdio_output@@AEAA_NXZ 0000000180177bb8 f i libucrt:output.obj
 0001:00176e3c       ?state_case_type@?$output_processor@DV?$stream_output_adapter@D@__crt_stdio_output@@V?$positional_parameter_base@DV?$stream_output_adapter@D@__crt_stdio_output@@@2@@__crt_stdio_output@@AEAA_NXZ 0000000180177e3c f i libucrt:output.obj
 0001:001770d8       ?state_case_type@?$output_processor@DV?$stream_output_adapter@D@__crt_stdio_output@@V?$standard_base@DV?$stream_output_adapter@D@__crt_stdio_output@@@2@@__crt_stdio_output@@AEAA_NXZ 00000001801780d8 f i libucrt:output.obj
 0001:0017735c       ?state_case_type@?$output_processor@DV?$string_output_adapter@D@__crt_stdio_output@@V?$format_validation_base@DV?$string_output_adapter@D@__crt_stdio_output@@@2@@__crt_stdio_output@@AEAA_NXZ 000000018017835c f i libucrt:output.obj
 0001:001775c4       ?state_case_type@?$output_processor@DV?$string_output_adapter@D@__crt_stdio_output@@V?$positional_parameter_base@DV?$string_output_adapter@D@__crt_stdio_output@@@2@@__crt_stdio_output@@AEAA_NXZ 00000001801785c4 f i libucrt:output.obj
 0001:00177840       ?state_case_type@?$output_processor@DV?$string_output_adapter@D@__crt_stdio_output@@V?$standard_base@DV?$string_output_adapter@D@__crt_stdio_output@@@2@@__crt_stdio_output@@AEAA_NXZ 0000000180178840 f i libucrt:output.obj
 0001:00177aa8       ?state_case_type@?$output_processor@_WV?$stream_output_adapter@_W@__crt_stdio_output@@V?$format_validation_base@_WV?$stream_output_adapter@_W@__crt_stdio_output@@@2@@__crt_stdio_output@@AEAA_NXZ 0000000180178aa8 f i libucrt:output.obj
 0001:00177d88       ?state_case_type@?$output_processor@_WV?$stream_output_adapter@_W@__crt_stdio_output@@V?$positional_parameter_base@_WV?$stream_output_adapter@_W@__crt_stdio_output@@@2@@__crt_stdio_output@@AEAA_NXZ 0000000180178d88 f i libucrt:output.obj
 0001:0017807c       ?state_case_type@?$output_processor@_WV?$stream_output_adapter@_W@__crt_stdio_output@@V?$standard_base@_WV?$stream_output_adapter@_W@__crt_stdio_output@@@2@@__crt_stdio_output@@AEAA_NXZ 000000018017907c f i libucrt:output.obj
 0001:0017835c       ?state_case_type@?$output_processor@_WV?$string_output_adapter@_W@__crt_stdio_output@@V?$format_validation_base@_WV?$string_output_adapter@_W@__crt_stdio_output@@@2@@__crt_stdio_output@@AEAA_NXZ 000000018017935c f i libucrt:output.obj
 0001:00178628       ?state_case_type@?$output_processor@_WV?$string_output_adapter@_W@__crt_stdio_output@@V?$positional_parameter_base@_WV?$string_output_adapter@_W@__crt_stdio_output@@@2@@__crt_stdio_output@@AEAA_NXZ 0000000180179628 f i libucrt:output.obj
 0001:00178908       ?state_case_type@?$output_processor@_WV?$string_output_adapter@_W@__crt_stdio_output@@V?$standard_base@_WV?$string_output_adapter@_W@__crt_stdio_output@@@2@@__crt_stdio_output@@AEAA_NXZ 0000000180179908 f i libucrt:output.obj
 0001:00178bd4       ?state_case_width@?$output_processor@DV?$stream_output_adapter@D@__crt_stdio_output@@V?$format_validation_base@DV?$stream_output_adapter@D@__crt_stdio_output@@@2@@__crt_stdio_output@@AEAA_NXZ 0000000180179bd4 f i libucrt:output.obj
 0001:00178c08       ?state_case_width@?$output_processor@DV?$stream_output_adapter@D@__crt_stdio_output@@V?$positional_parameter_base@DV?$stream_output_adapter@D@__crt_stdio_output@@@2@@__crt_stdio_output@@AEAA_NXZ 0000000180179c08 f i libucrt:output.obj
 0001:00178c58       ?state_case_width@?$output_processor@DV?$stream_output_adapter@D@__crt_stdio_output@@V?$standard_base@DV?$stream_output_adapter@D@__crt_stdio_output@@@2@@__crt_stdio_output@@AEAA_NXZ 0000000180179c58 f i libucrt:output.obj
 0001:00178c8c       ?state_case_width@?$output_processor@DV?$string_output_adapter@D@__crt_stdio_output@@V?$format_validation_base@DV?$string_output_adapter@D@__crt_stdio_output@@@2@@__crt_stdio_output@@AEAA_NXZ 0000000180179c8c f i libucrt:output.obj
 0001:00178cc0       ?state_case_width@?$output_processor@DV?$string_output_adapter@D@__crt_stdio_output@@V?$positional_parameter_base@DV?$string_output_adapter@D@__crt_stdio_output@@@2@@__crt_stdio_output@@AEAA_NXZ 0000000180179cc0 f i libucrt:output.obj
 0001:00178d10       ?state_case_width@?$output_processor@DV?$string_output_adapter@D@__crt_stdio_output@@V?$standard_base@DV?$string_output_adapter@D@__crt_stdio_output@@@2@@__crt_stdio_output@@AEAA_NXZ 0000000180179d10 f i libucrt:output.obj
 0001:00178d44       ?state_case_width@?$output_processor@_WV?$stream_output_adapter@_W@__crt_stdio_output@@V?$format_validation_base@_WV?$stream_output_adapter@_W@__crt_stdio_output@@@2@@__crt_stdio_output@@AEAA_NXZ 0000000180179d44 f i libucrt:output.obj
 0001:00178d78       ?state_case_width@?$output_processor@_WV?$stream_output_adapter@_W@__crt_stdio_output@@V?$positional_parameter_base@_WV?$stream_output_adapter@_W@__crt_stdio_output@@@2@@__crt_stdio_output@@AEAA_NXZ 0000000180179d78 f i libucrt:output.obj
 0001:00178dcc       ?state_case_width@?$output_processor@_WV?$stream_output_adapter@_W@__crt_stdio_output@@V?$standard_base@_WV?$stream_output_adapter@_W@__crt_stdio_output@@@2@@__crt_stdio_output@@AEAA_NXZ 0000000180179dcc f i libucrt:output.obj
 0001:00178e00       ?state_case_width@?$output_processor@_WV?$string_output_adapter@_W@__crt_stdio_output@@V?$format_validation_base@_WV?$string_output_adapter@_W@__crt_stdio_output@@@2@@__crt_stdio_output@@AEAA_NXZ 0000000180179e00 f i libucrt:output.obj
 0001:00178e34       ?state_case_width@?$output_processor@_WV?$string_output_adapter@_W@__crt_stdio_output@@V?$positional_parameter_base@_WV?$string_output_adapter@_W@__crt_stdio_output@@@2@@__crt_stdio_output@@AEAA_NXZ 0000000180179e34 f i libucrt:output.obj
 0001:00178e88       ?state_case_width@?$output_processor@_WV?$string_output_adapter@_W@__crt_stdio_output@@V?$standard_base@_WV?$string_output_adapter@_W@__crt_stdio_output@@@2@@__crt_stdio_output@@AEAA_NXZ 0000000180179e88 f i libucrt:output.obj
 0001:00178ebc       ?state_count@?$format_validation_base@DV?$stream_output_adapter@D@__crt_stdio_output@@@__crt_stdio_output@@KAIXZ 0000000180179ebc f i libucrt:output.obj
 0001:00178ec4       ?state_count@?$format_validation_base@DV?$string_output_adapter@D@__crt_stdio_output@@@__crt_stdio_output@@KAIXZ 0000000180179ec4 f i libucrt:output.obj
 0001:00178ecc       ?state_count@?$format_validation_base@_WV?$stream_output_adapter@_W@__crt_stdio_output@@@__crt_stdio_output@@KAIXZ 0000000180179ecc f i libucrt:output.obj
 0001:00178ed4       ?state_count@?$format_validation_base@_WV?$string_output_adapter@_W@__crt_stdio_output@@@__crt_stdio_output@@KAIXZ 0000000180179ed4 f i libucrt:output.obj
 0001:00178edc       ?state_count@?$standard_base@DV?$stream_output_adapter@D@__crt_stdio_output@@@__crt_stdio_output@@KAIXZ 0000000180179edc f i libucrt:output.obj
 0001:00178ee4       ?state_count@?$standard_base@DV?$string_output_adapter@D@__crt_stdio_output@@@__crt_stdio_output@@KAIXZ 0000000180179ee4 f i libucrt:output.obj
 0001:00178eec       ?state_count@?$standard_base@_WV?$stream_output_adapter@_W@__crt_stdio_output@@@__crt_stdio_output@@KAIXZ 0000000180179eec f i libucrt:output.obj
 0001:00178ef4       ?state_count@?$standard_base@_WV?$string_output_adapter@_W@__crt_stdio_output@@@__crt_stdio_output@@KAIXZ 0000000180179ef4 f i libucrt:output.obj
 0001:00178efc       ?state_transition_table@?$format_validation_base@DV?$stream_output_adapter@D@__crt_stdio_output@@@__crt_stdio_output@@KAAEBV?$spectre_mitigated_lookup_table@Ustate_transition_pair@__crt_stdio_output@@$0IA@@2@XZ 0000000180179efc f i libucrt:output.obj
 0001:00178f04       ?state_transition_table@?$format_validation_base@DV?$string_output_adapter@D@__crt_stdio_output@@@__crt_stdio_output@@KAAEBV?$spectre_mitigated_lookup_table@Ustate_transition_pair@__crt_stdio_output@@$0IA@@2@XZ 0000000180179f04 f i libucrt:output.obj
 0001:00178f0c       ?state_transition_table@?$format_validation_base@_WV?$stream_output_adapter@_W@__crt_stdio_output@@@__crt_stdio_output@@KAAEBV?$spectre_mitigated_lookup_table@Ustate_transition_pair@__crt_stdio_output@@$0IA@@2@XZ 0000000180179f0c f i libucrt:output.obj
 0001:00178f14       ?state_transition_table@?$format_validation_base@_WV?$string_output_adapter@_W@__crt_stdio_output@@@__crt_stdio_output@@KAAEBV?$spectre_mitigated_lookup_table@Ustate_transition_pair@__crt_stdio_output@@$0IA@@2@XZ 0000000180179f14 f i libucrt:output.obj
 0001:00178f1c       ?state_transition_table@?$standard_base@DV?$stream_output_adapter@D@__crt_stdio_output@@@__crt_stdio_output@@KAAEBV?$spectre_mitigated_lookup_table@Ustate_transition_pair@__crt_stdio_output@@$0IA@@2@XZ 0000000180179f1c f i libucrt:output.obj
 0001:00178f24       ?state_transition_table@?$standard_base@DV?$string_output_adapter@D@__crt_stdio_output@@@__crt_stdio_output@@KAAEBV?$spectre_mitigated_lookup_table@Ustate_transition_pair@__crt_stdio_output@@$0IA@@2@XZ 0000000180179f24 f i libucrt:output.obj
 0001:00178f2c       ?state_transition_table@?$standard_base@_WV?$stream_output_adapter@_W@__crt_stdio_output@@@__crt_stdio_output@@KAAEBV?$spectre_mitigated_lookup_table@Ustate_transition_pair@__crt_stdio_output@@$0IA@@2@XZ 0000000180179f2c f i libucrt:output.obj
 0001:00178f34       ?state_transition_table@?$standard_base@_WV?$string_output_adapter@_W@__crt_stdio_output@@@__crt_stdio_output@@KAAEBV?$spectre_mitigated_lookup_table@Ustate_transition_pair@__crt_stdio_output@@$0IA@@2@XZ 0000000180179f34 f i libucrt:output.obj
 0001:00178f3c       ?tchar_string@?$common_data@D@__crt_stdio_output@@IEAAAEAPEADD@Z 0000000180179f3c f i libucrt:output.obj
 0001:00178f44       ?tchar_string@?$common_data@D@__crt_stdio_output@@IEAAAEAPEADXZ 0000000180179f44 f i libucrt:output.obj
 0001:00178f4c       ?tchar_string@?$common_data@_W@__crt_stdio_output@@IEAAAEAPEA_WXZ 0000000180179f4c f i libucrt:output.obj
 0001:00178f54       ?tchar_string@?$common_data@_W@__crt_stdio_output@@IEAAAEAPEA_W_W@Z 0000000180179f54 f i libucrt:output.obj
 0001:00178f60       ?to_integer_size@__crt_stdio_output@@YA_KW4length_modifier@1@@Z 0000000180179f60 f i libucrt:output.obj
 0001:00178fc8       ?type_case_X@?$output_processor@DV?$stream_output_adapter@D@__crt_stdio_output@@V?$format_validation_base@DV?$stream_output_adapter@D@__crt_stdio_output@@@2@@__crt_stdio_output@@AEAA_NXZ 0000000180179fc8 f i libucrt:output.obj
 0001:00178fd8       ?type_case_X@?$output_processor@DV?$stream_output_adapter@D@__crt_stdio_output@@V?$positional_parameter_base@DV?$stream_output_adapter@D@__crt_stdio_output@@@2@@__crt_stdio_output@@AEAA_NXZ 0000000180179fd8 f i libucrt:output.obj
 0001:00178fe8       ?type_case_X@?$output_processor@DV?$stream_output_adapter@D@__crt_stdio_output@@V?$standard_base@DV?$stream_output_adapter@D@__crt_stdio_output@@@2@@__crt_stdio_output@@AEAA_NXZ 0000000180179fe8 f i libucrt:output.obj
 0001:00178ff8       ?type_case_X@?$output_processor@DV?$string_output_adapter@D@__crt_stdio_output@@V?$format_validation_base@DV?$string_output_adapter@D@__crt_stdio_output@@@2@@__crt_stdio_output@@AEAA_NXZ 0000000180179ff8 f i libucrt:output.obj
 0001:00179008       ?type_case_X@?$output_processor@DV?$string_output_adapter@D@__crt_stdio_output@@V?$positional_parameter_base@DV?$string_output_adapter@D@__crt_stdio_output@@@2@@__crt_stdio_output@@AEAA_NXZ 000000018017a008 f i libucrt:output.obj
 0001:00179018       ?type_case_X@?$output_processor@DV?$string_output_adapter@D@__crt_stdio_output@@V?$standard_base@DV?$string_output_adapter@D@__crt_stdio_output@@@2@@__crt_stdio_output@@AEAA_NXZ 000000018017a018 f i libucrt:output.obj
 0001:00179028       ?type_case_X@?$output_processor@_WV?$stream_output_adapter@_W@__crt_stdio_output@@V?$format_validation_base@_WV?$stream_output_adapter@_W@__crt_stdio_output@@@2@@__crt_stdio_output@@AEAA_NXZ 000000018017a028 f i libucrt:output.obj
 0001:00179038       ?type_case_X@?$output_processor@_WV?$stream_output_adapter@_W@__crt_stdio_output@@V?$positional_parameter_base@_WV?$stream_output_adapter@_W@__crt_stdio_output@@@2@@__crt_stdio_output@@AEAA_NXZ 000000018017a038 f i libucrt:output.obj
 0001:00179048       ?type_case_X@?$output_processor@_WV?$stream_output_adapter@_W@__crt_stdio_output@@V?$standard_base@_WV?$stream_output_adapter@_W@__crt_stdio_output@@@2@@__crt_stdio_output@@AEAA_NXZ 000000018017a048 f i libucrt:output.obj
 0001:00179058       ?type_case_X@?$output_processor@_WV?$string_output_adapter@_W@__crt_stdio_output@@V?$format_validation_base@_WV?$string_output_adapter@_W@__crt_stdio_output@@@2@@__crt_stdio_output@@AEAA_NXZ 000000018017a058 f i libucrt:output.obj
 0001:00179068       ?type_case_X@?$output_processor@_WV?$string_output_adapter@_W@__crt_stdio_output@@V?$positional_parameter_base@_WV?$string_output_adapter@_W@__crt_stdio_output@@@2@@__crt_stdio_output@@AEAA_NXZ 000000018017a068 f i libucrt:output.obj
 0001:00179078       ?type_case_X@?$output_processor@_WV?$string_output_adapter@_W@__crt_stdio_output@@V?$standard_base@_WV?$string_output_adapter@_W@__crt_stdio_output@@@2@@__crt_stdio_output@@AEAA_NXZ 000000018017a078 f i libucrt:output.obj
 0001:00179088       ?type_case_Z@?$output_processor@DV?$stream_output_adapter@D@__crt_stdio_output@@V?$format_validation_base@DV?$stream_output_adapter@D@__crt_stdio_output@@@2@@__crt_stdio_output@@AEAA_NXZ 000000018017a088 f i libucrt:output.obj
 0001:001790fc       ?type_case_Z@?$output_processor@DV?$stream_output_adapter@D@__crt_stdio_output@@V?$positional_parameter_base@DV?$stream_output_adapter@D@__crt_stdio_output@@@2@@__crt_stdio_output@@AEAA_NXZ 000000018017a0fc f i libucrt:output.obj
 0001:0017919c       ?type_case_Z@?$output_processor@DV?$stream_output_adapter@D@__crt_stdio_output@@V?$standard_base@DV?$stream_output_adapter@D@__crt_stdio_output@@@2@@__crt_stdio_output@@AEAA_NXZ 000000018017a19c f i libucrt:output.obj
 0001:00179210       ?type_case_Z@?$output_processor@DV?$string_output_adapter@D@__crt_stdio_output@@V?$format_validation_base@DV?$string_output_adapter@D@__crt_stdio_output@@@2@@__crt_stdio_output@@AEAA_NXZ 000000018017a210 f i libucrt:output.obj
 0001:00179284       ?type_case_Z@?$output_processor@DV?$string_output_adapter@D@__crt_stdio_output@@V?$positional_parameter_base@DV?$string_output_adapter@D@__crt_stdio_output@@@2@@__crt_stdio_output@@AEAA_NXZ 000000018017a284 f i libucrt:output.obj
 0001:00179324       ?type_case_Z@?$output_processor@DV?$string_output_adapter@D@__crt_stdio_output@@V?$standard_base@DV?$string_output_adapter@D@__crt_stdio_output@@@2@@__crt_stdio_output@@AEAA_NXZ 000000018017a324 f i libucrt:output.obj
 0001:00179398       ?type_case_Z@?$output_processor@_WV?$stream_output_adapter@_W@__crt_stdio_output@@V?$format_validation_base@_WV?$stream_output_adapter@_W@__crt_stdio_output@@@2@@__crt_stdio_output@@AEAA_NXZ 000000018017a398 f i libucrt:output.obj
 0001:00179414       ?type_case_Z@?$output_processor@_WV?$stream_output_adapter@_W@__crt_stdio_output@@V?$positional_parameter_base@_WV?$stream_output_adapter@_W@__crt_stdio_output@@@2@@__crt_stdio_output@@AEAA_NXZ 000000018017a414 f i libucrt:output.obj
 0001:001794ac       ?type_case_Z@?$output_processor@_WV?$stream_output_adapter@_W@__crt_stdio_output@@V?$standard_base@_WV?$stream_output_adapter@_W@__crt_stdio_output@@@2@@__crt_stdio_output@@AEAA_NXZ 000000018017a4ac f i libucrt:output.obj
 0001:00179528       ?type_case_Z@?$output_processor@_WV?$string_output_adapter@_W@__crt_stdio_output@@V?$format_validation_base@_WV?$string_output_adapter@_W@__crt_stdio_output@@@2@@__crt_stdio_output@@AEAA_NXZ 000000018017a528 f i libucrt:output.obj
 0001:001795a4       ?type_case_Z@?$output_processor@_WV?$string_output_adapter@_W@__crt_stdio_output@@V?$positional_parameter_base@_WV?$string_output_adapter@_W@__crt_stdio_output@@@2@@__crt_stdio_output@@AEAA_NXZ 000000018017a5a4 f i libucrt:output.obj
 0001:0017963c       ?type_case_Z@?$output_processor@_WV?$string_output_adapter@_W@__crt_stdio_output@@V?$standard_base@_WV?$string_output_adapter@_W@__crt_stdio_output@@@2@@__crt_stdio_output@@AEAA_NXZ 000000018017a63c f i libucrt:output.obj
 0001:001796b8       ?type_case_a@?$output_processor@DV?$stream_output_adapter@D@__crt_stdio_output@@V?$format_validation_base@DV?$stream_output_adapter@D@__crt_stdio_output@@@2@@__crt_stdio_output@@AEAA_NXZ 000000018017a6b8 f i libucrt:output.obj
 0001:00179874       ?type_case_a@?$output_processor@DV?$stream_output_adapter@D@__crt_stdio_output@@V?$positional_parameter_base@DV?$stream_output_adapter@D@__crt_stdio_output@@@2@@__crt_stdio_output@@AEAA_NXZ 000000018017a874 f i libucrt:output.obj
 0001:00179a6c       ?type_case_a@?$output_processor@DV?$stream_output_adapter@D@__crt_stdio_output@@V?$standard_base@DV?$stream_output_adapter@D@__crt_stdio_output@@@2@@__crt_stdio_output@@AEAA_NXZ 000000018017aa6c f i libucrt:output.obj
 0001:00179c28       ?type_case_a@?$output_processor@DV?$string_output_adapter@D@__crt_stdio_output@@V?$format_validation_base@DV?$string_output_adapter@D@__crt_stdio_output@@@2@@__crt_stdio_output@@AEAA_NXZ 000000018017ac28 f i libucrt:output.obj
 0001:00179de4       ?type_case_a@?$output_processor@DV?$string_output_adapter@D@__crt_stdio_output@@V?$positional_parameter_base@DV?$string_output_adapter@D@__crt_stdio_output@@@2@@__crt_stdio_output@@AEAA_NXZ 000000018017ade4 f i libucrt:output.obj
 0001:00179fdc       ?type_case_a@?$output_processor@DV?$string_output_adapter@D@__crt_stdio_output@@V?$standard_base@DV?$string_output_adapter@D@__crt_stdio_output@@@2@@__crt_stdio_output@@AEAA_NXZ 000000018017afdc f i libucrt:output.obj
 0001:0017a198       ?type_case_a@?$output_processor@_WV?$stream_output_adapter@_W@__crt_stdio_output@@V?$format_validation_base@_WV?$stream_output_adapter@_W@__crt_stdio_output@@@2@@__crt_stdio_output@@AEAA_NXZ 000000018017b198 f i libucrt:output.obj
 0001:0017a378       ?type_case_a@?$output_processor@_WV?$stream_output_adapter@_W@__crt_stdio_output@@V?$positional_parameter_base@_WV?$stream_output_adapter@_W@__crt_stdio_output@@@2@@__crt_stdio_output@@AEAA_NXZ 000000018017b378 f i libucrt:output.obj
 0001:0017a594       ?type_case_a@?$output_processor@_WV?$stream_output_adapter@_W@__crt_stdio_output@@V?$standard_base@_WV?$stream_output_adapter@_W@__crt_stdio_output@@@2@@__crt_stdio_output@@AEAA_NXZ 000000018017b594 f i libucrt:output.obj
 0001:0017a774       ?type_case_a@?$output_processor@_WV?$string_output_adapter@_W@__crt_stdio_output@@V?$format_validation_base@_WV?$string_output_adapter@_W@__crt_stdio_output@@@2@@__crt_stdio_output@@AEAA_NXZ 000000018017b774 f i libucrt:output.obj
 0001:0017a954       ?type_case_a@?$output_processor@_WV?$string_output_adapter@_W@__crt_stdio_output@@V?$positional_parameter_base@_WV?$string_output_adapter@_W@__crt_stdio_output@@@2@@__crt_stdio_output@@AEAA_NXZ 000000018017b954 f i libucrt:output.obj
 0001:0017ab70       ?type_case_a@?$output_processor@_WV?$string_output_adapter@_W@__crt_stdio_output@@V?$standard_base@_WV?$string_output_adapter@_W@__crt_stdio_output@@@2@@__crt_stdio_output@@AEAA_NXZ 000000018017bb70 f i libucrt:output.obj
 0001:0017ad50       ?type_case_c@?$output_processor@DV?$stream_output_adapter@D@__crt_stdio_output@@V?$format_validation_base@DV?$stream_output_adapter@D@__crt_stdio_output@@@2@@__crt_stdio_output@@AEAA_NXZ 000000018017bd50 f i libucrt:output.obj
 0001:0017ad58       ?type_case_c@?$output_processor@DV?$stream_output_adapter@D@__crt_stdio_output@@V?$positional_parameter_base@DV?$stream_output_adapter@D@__crt_stdio_output@@@2@@__crt_stdio_output@@AEAA_NXZ 000000018017bd58 f i libucrt:output.obj
 0001:0017ad60       ?type_case_c@?$output_processor@DV?$stream_output_adapter@D@__crt_stdio_output@@V?$standard_base@DV?$stream_output_adapter@D@__crt_stdio_output@@@2@@__crt_stdio_output@@AEAA_NXZ 000000018017bd60 f i libucrt:output.obj
 0001:0017ad68       ?type_case_c@?$output_processor@DV?$string_output_adapter@D@__crt_stdio_output@@V?$format_validation_base@DV?$string_output_adapter@D@__crt_stdio_output@@@2@@__crt_stdio_output@@AEAA_NXZ 000000018017bd68 f i libucrt:output.obj
 0001:0017ad70       ?type_case_c@?$output_processor@DV?$string_output_adapter@D@__crt_stdio_output@@V?$positional_parameter_base@DV?$string_output_adapter@D@__crt_stdio_output@@@2@@__crt_stdio_output@@AEAA_NXZ 000000018017bd70 f i libucrt:output.obj
 0001:0017ad78       ?type_case_c@?$output_processor@DV?$string_output_adapter@D@__crt_stdio_output@@V?$standard_base@DV?$string_output_adapter@D@__crt_stdio_output@@@2@@__crt_stdio_output@@AEAA_NXZ 000000018017bd78 f i libucrt:output.obj
 0001:0017ad80       ?type_case_c@?$output_processor@_WV?$stream_output_adapter@_W@__crt_stdio_output@@V?$format_validation_base@_WV?$stream_output_adapter@_W@__crt_stdio_output@@@2@@__crt_stdio_output@@AEAA_NXZ 000000018017bd80 f i libucrt:output.obj
 0001:0017ad88       ?type_case_c@?$output_processor@_WV?$stream_output_adapter@_W@__crt_stdio_output@@V?$positional_parameter_base@_WV?$stream_output_adapter@_W@__crt_stdio_output@@@2@@__crt_stdio_output@@AEAA_NXZ 000000018017bd88 f i libucrt:output.obj
 0001:0017ad90       ?type_case_c@?$output_processor@_WV?$stream_output_adapter@_W@__crt_stdio_output@@V?$standard_base@_WV?$stream_output_adapter@_W@__crt_stdio_output@@@2@@__crt_stdio_output@@AEAA_NXZ 000000018017bd90 f i libucrt:output.obj
 0001:0017ad98       ?type_case_c@?$output_processor@_WV?$string_output_adapter@_W@__crt_stdio_output@@V?$format_validation_base@_WV?$string_output_adapter@_W@__crt_stdio_output@@@2@@__crt_stdio_output@@AEAA_NXZ 000000018017bd98 f i libucrt:output.obj
 0001:0017ada0       ?type_case_c@?$output_processor@_WV?$string_output_adapter@_W@__crt_stdio_output@@V?$positional_parameter_base@_WV?$string_output_adapter@_W@__crt_stdio_output@@@2@@__crt_stdio_output@@AEAA_NXZ 000000018017bda0 f i libucrt:output.obj
 0001:0017ada8       ?type_case_c@?$output_processor@_WV?$string_output_adapter@_W@__crt_stdio_output@@V?$standard_base@_WV?$string_output_adapter@_W@__crt_stdio_output@@@2@@__crt_stdio_output@@AEAA_NXZ 000000018017bda8 f i libucrt:output.obj
 0001:0017adb0       ?type_case_c_tchar@?$output_processor@DV?$stream_output_adapter@D@__crt_stdio_output@@V?$format_validation_base@DV?$stream_output_adapter@D@__crt_stdio_output@@@2@@__crt_stdio_output@@AEAA_ND@Z 000000018017bdb0 f i libucrt:output.obj
 0001:0017ae78       ?type_case_c_tchar@?$output_processor@DV?$stream_output_adapter@D@__crt_stdio_output@@V?$positional_parameter_base@DV?$stream_output_adapter@D@__crt_stdio_output@@@2@@__crt_stdio_output@@AEAA_ND@Z 000000018017be78 f i libucrt:output.obj
 0001:0017af84       ?type_case_c_tchar@?$output_processor@DV?$stream_output_adapter@D@__crt_stdio_output@@V?$standard_base@DV?$stream_output_adapter@D@__crt_stdio_output@@@2@@__crt_stdio_output@@AEAA_ND@Z 000000018017bf84 f i libucrt:output.obj
 0001:0017b04c       ?type_case_c_tchar@?$output_processor@DV?$string_output_adapter@D@__crt_stdio_output@@V?$format_validation_base@DV?$string_output_adapter@D@__crt_stdio_output@@@2@@__crt_stdio_output@@AEAA_ND@Z 000000018017c04c f i libucrt:output.obj
 0001:0017b114       ?type_case_c_tchar@?$output_processor@DV?$string_output_adapter@D@__crt_stdio_output@@V?$positional_parameter_base@DV?$string_output_adapter@D@__crt_stdio_output@@@2@@__crt_stdio_output@@AEAA_ND@Z 000000018017c114 f i libucrt:output.obj
 0001:0017b220       ?type_case_c_tchar@?$output_processor@DV?$string_output_adapter@D@__crt_stdio_output@@V?$standard_base@DV?$string_output_adapter@D@__crt_stdio_output@@@2@@__crt_stdio_output@@AEAA_ND@Z 000000018017c220 f i libucrt:output.obj
 0001:0017b2e8       ?type_case_c_tchar@?$output_processor@_WV?$stream_output_adapter@_W@__crt_stdio_output@@V?$format_validation_base@_WV?$stream_output_adapter@_W@__crt_stdio_output@@@2@@__crt_stdio_output@@AEAA_N_W@Z 000000018017c2e8 f i libucrt:output.obj
 0001:0017b390       ?type_case_c_tchar@?$output_processor@_WV?$stream_output_adapter@_W@__crt_stdio_output@@V?$positional_parameter_base@_WV?$stream_output_adapter@_W@__crt_stdio_output@@@2@@__crt_stdio_output@@AEAA_N_W@Z 000000018017c390 f i libucrt:output.obj
 0001:0017b45c       ?type_case_c_tchar@?$output_processor@_WV?$stream_output_adapter@_W@__crt_stdio_output@@V?$standard_base@_WV?$stream_output_adapter@_W@__crt_stdio_output@@@2@@__crt_stdio_output@@AEAA_N_W@Z 000000018017c45c f i libucrt:output.obj
 0001:0017b504       ?type_case_c_tchar@?$output_processor@_WV?$string_output_adapter@_W@__crt_stdio_output@@V?$format_validation_base@_WV?$string_output_adapter@_W@__crt_stdio_output@@@2@@__crt_stdio_output@@AEAA_N_W@Z 000000018017c504 f i libucrt:output.obj
 0001:0017b5ac       ?type_case_c_tchar@?$output_processor@_WV?$string_output_adapter@_W@__crt_stdio_output@@V?$positional_parameter_base@_WV?$string_output_adapter@_W@__crt_stdio_output@@@2@@__crt_stdio_output@@AEAA_N_W@Z 000000018017c5ac f i libucrt:output.obj
 0001:0017b678       ?type_case_c_tchar@?$output_processor@_WV?$string_output_adapter@_W@__crt_stdio_output@@V?$standard_base@_WV?$string_output_adapter@_W@__crt_stdio_output@@@2@@__crt_stdio_output@@AEAA_N_W@Z 000000018017c678 f i libucrt:output.obj
 0001:0017b720       ?type_case_d@?$output_processor@DV?$stream_output_adapter@D@__crt_stdio_output@@V?$format_validation_base@DV?$stream_output_adapter@D@__crt_stdio_output@@@2@@__crt_stdio_output@@AEAA_NXZ 000000018017c720 f i libucrt:output.obj
 0001:0017b730       ?type_case_d@?$output_processor@DV?$stream_output_adapter@D@__crt_stdio_output@@V?$positional_parameter_base@DV?$stream_output_adapter@D@__crt_stdio_output@@@2@@__crt_stdio_output@@AEAA_NXZ 000000018017c730 f i libucrt:output.obj
 0001:0017b740       ?type_case_d@?$output_processor@DV?$stream_output_adapter@D@__crt_stdio_output@@V?$standard_base@DV?$stream_output_adapter@D@__crt_stdio_output@@@2@@__crt_stdio_output@@AEAA_NXZ 000000018017c740 f i libucrt:output.obj
 0001:0017b750       ?type_case_d@?$output_processor@DV?$string_output_adapter@D@__crt_stdio_output@@V?$format_validation_base@DV?$string_output_adapter@D@__crt_stdio_output@@@2@@__crt_stdio_output@@AEAA_NXZ 000000018017c750 f i libucrt:output.obj
 0001:0017b760       ?type_case_d@?$output_processor@DV?$string_output_adapter@D@__crt_stdio_output@@V?$positional_parameter_base@DV?$string_output_adapter@D@__crt_stdio_output@@@2@@__crt_stdio_output@@AEAA_NXZ 000000018017c760 f i libucrt:output.obj
 0001:0017b770       ?type_case_d@?$output_processor@DV?$string_output_adapter@D@__crt_stdio_output@@V?$standard_base@DV?$string_output_adapter@D@__crt_stdio_output@@@2@@__crt_stdio_output@@AEAA_NXZ 000000018017c770 f i libucrt:output.obj
 0001:0017b780       ?type_case_d@?$output_processor@_WV?$stream_output_adapter@_W@__crt_stdio_output@@V?$format_validation_base@_WV?$stream_output_adapter@_W@__crt_stdio_output@@@2@@__crt_stdio_output@@AEAA_NXZ 000000018017c780 f i libucrt:output.obj
 0001:0017b790       ?type_case_d@?$output_processor@_WV?$stream_output_adapter@_W@__crt_stdio_output@@V?$positional_parameter_base@_WV?$stream_output_adapter@_W@__crt_stdio_output@@@2@@__crt_stdio_output@@AEAA_NXZ 000000018017c790 f i libucrt:output.obj
 0001:0017b7a0       ?type_case_d@?$output_processor@_WV?$stream_output_adapter@_W@__crt_stdio_output@@V?$standard_base@_WV?$stream_output_adapter@_W@__crt_stdio_output@@@2@@__crt_stdio_output@@AEAA_NXZ 000000018017c7a0 f i libucrt:output.obj
 0001:0017b7b0       ?type_case_d@?$output_processor@_WV?$string_output_adapter@_W@__crt_stdio_output@@V?$format_validation_base@_WV?$string_output_adapter@_W@__crt_stdio_output@@@2@@__crt_stdio_output@@AEAA_NXZ 000000018017c7b0 f i libucrt:output.obj
 0001:0017b7c0       ?type_case_d@?$output_processor@_WV?$string_output_adapter@_W@__crt_stdio_output@@V?$positional_parameter_base@_WV?$string_output_adapter@_W@__crt_stdio_output@@@2@@__crt_stdio_output@@AEAA_NXZ 000000018017c7c0 f i libucrt:output.obj
 0001:0017b7d0       ?type_case_d@?$output_processor@_WV?$string_output_adapter@_W@__crt_stdio_output@@V?$standard_base@_WV?$string_output_adapter@_W@__crt_stdio_output@@@2@@__crt_stdio_output@@AEAA_NXZ 000000018017c7d0 f i libucrt:output.obj
 0001:0017b7e0       ?type_case_integer@?$output_processor@DV?$stream_output_adapter@D@__crt_stdio_output@@V?$format_validation_base@DV?$stream_output_adapter@D@__crt_stdio_output@@@2@@__crt_stdio_output@@AEAA_NI_N@Z 000000018017c7e0 f i libucrt:output.obj
 0001:0017b960       ?type_case_integer@?$output_processor@DV?$stream_output_adapter@D@__crt_stdio_output@@V?$positional_parameter_base@DV?$stream_output_adapter@D@__crt_stdio_output@@@2@@__crt_stdio_output@@AEAA_NI_N@Z 000000018017c960 f i libucrt:output.obj
 0001:0017bb08       ?type_case_integer@?$output_processor@DV?$stream_output_adapter@D@__crt_stdio_output@@V?$standard_base@DV?$stream_output_adapter@D@__crt_stdio_output@@@2@@__crt_stdio_output@@AEAA_NI_N@Z 000000018017cb08 f i libucrt:output.obj
 0001:0017bc88       ?type_case_integer@?$output_processor@DV?$string_output_adapter@D@__crt_stdio_output@@V?$format_validation_base@DV?$string_output_adapter@D@__crt_stdio_output@@@2@@__crt_stdio_output@@AEAA_NI_N@Z 000000018017cc88 f i libucrt:output.obj
 0001:0017be08       ?type_case_integer@?$output_processor@DV?$string_output_adapter@D@__crt_stdio_output@@V?$positional_parameter_base@DV?$string_output_adapter@D@__crt_stdio_output@@@2@@__crt_stdio_output@@AEAA_NI_N@Z 000000018017ce08 f i libucrt:output.obj
 0001:0017bfb0       ?type_case_integer@?$output_processor@DV?$string_output_adapter@D@__crt_stdio_output@@V?$standard_base@DV?$string_output_adapter@D@__crt_stdio_output@@@2@@__crt_stdio_output@@AEAA_NI_N@Z 000000018017cfb0 f i libucrt:output.obj
 0001:0017c130       ?type_case_integer@?$output_processor@_WV?$stream_output_adapter@_W@__crt_stdio_output@@V?$format_validation_base@_WV?$stream_output_adapter@_W@__crt_stdio_output@@@2@@__crt_stdio_output@@AEAA_NI_N@Z 000000018017d130 f i libucrt:output.obj
 0001:0017c2b8       ?type_case_integer@?$output_processor@_WV?$stream_output_adapter@_W@__crt_stdio_output@@V?$positional_parameter_base@_WV?$stream_output_adapter@_W@__crt_stdio_output@@@2@@__crt_stdio_output@@AEAA_NI_N@Z 000000018017d2b8 f i libucrt:output.obj
 0001:0017c468       ?type_case_integer@?$output_processor@_WV?$stream_output_adapter@_W@__crt_stdio_output@@V?$standard_base@_WV?$stream_output_adapter@_W@__crt_stdio_output@@@2@@__crt_stdio_output@@AEAA_NI_N@Z 000000018017d468 f i libucrt:output.obj
 0001:0017c5f0       ?type_case_integer@?$output_processor@_WV?$string_output_adapter@_W@__crt_stdio_output@@V?$format_validation_base@_WV?$string_output_adapter@_W@__crt_stdio_output@@@2@@__crt_stdio_output@@AEAA_NI_N@Z 000000018017d5f0 f i libucrt:output.obj
 0001:0017c778       ?type_case_integer@?$output_processor@_WV?$string_output_adapter@_W@__crt_stdio_output@@V?$positional_parameter_base@_WV?$string_output_adapter@_W@__crt_stdio_output@@@2@@__crt_stdio_output@@AEAA_NI_N@Z 000000018017d778 f i libucrt:output.obj
 0001:0017c928       ?type_case_integer@?$output_processor@_WV?$string_output_adapter@_W@__crt_stdio_output@@V?$standard_base@_WV?$string_output_adapter@_W@__crt_stdio_output@@@2@@__crt_stdio_output@@AEAA_NI_N@Z 000000018017d928 f i libucrt:output.obj
 0001:0017cab0       ?type_case_n@?$output_processor@DV?$stream_output_adapter@D@__crt_stdio_output@@V?$format_validation_base@DV?$stream_output_adapter@D@__crt_stdio_output@@@2@@__crt_stdio_output@@AEAA_NXZ 000000018017dab0 f i libucrt:output.obj
 0001:0017cb38       ?type_case_n@?$output_processor@DV?$stream_output_adapter@D@__crt_stdio_output@@V?$positional_parameter_base@DV?$stream_output_adapter@D@__crt_stdio_output@@@2@@__crt_stdio_output@@AEAA_NXZ 000000018017db38 f i libucrt:output.obj
 0001:0017cbe8       ?type_case_n@?$output_processor@DV?$stream_output_adapter@D@__crt_stdio_output@@V?$standard_base@DV?$stream_output_adapter@D@__crt_stdio_output@@@2@@__crt_stdio_output@@AEAA_NXZ 000000018017dbe8 f i libucrt:output.obj
 0001:0017cc70       ?type_case_n@?$output_processor@DV?$string_output_adapter@D@__crt_stdio_output@@V?$format_validation_base@DV?$string_output_adapter@D@__crt_stdio_output@@@2@@__crt_stdio_output@@AEAA_NXZ 000000018017dc70 f i libucrt:output.obj
 0001:0017ccf8       ?type_case_n@?$output_processor@DV?$string_output_adapter@D@__crt_stdio_output@@V?$positional_parameter_base@DV?$string_output_adapter@D@__crt_stdio_output@@@2@@__crt_stdio_output@@AEAA_NXZ 000000018017dcf8 f i libucrt:output.obj
 0001:0017cda8       ?type_case_n@?$output_processor@DV?$string_output_adapter@D@__crt_stdio_output@@V?$standard_base@DV?$string_output_adapter@D@__crt_stdio_output@@@2@@__crt_stdio_output@@AEAA_NXZ 000000018017dda8 f i libucrt:output.obj
 0001:0017ce30       ?type_case_n@?$output_processor@_WV?$stream_output_adapter@_W@__crt_stdio_output@@V?$format_validation_base@_WV?$stream_output_adapter@_W@__crt_stdio_output@@@2@@__crt_stdio_output@@AEAA_NXZ 000000018017de30 f i libucrt:output.obj
 0001:0017ceb8       ?type_case_n@?$output_processor@_WV?$stream_output_adapter@_W@__crt_stdio_output@@V?$positional_parameter_base@_WV?$stream_output_adapter@_W@__crt_stdio_output@@@2@@__crt_stdio_output@@AEAA_NXZ 000000018017deb8 f i libucrt:output.obj
 0001:0017cf68       ?type_case_n@?$output_processor@_WV?$stream_output_adapter@_W@__crt_stdio_output@@V?$standard_base@_WV?$stream_output_adapter@_W@__crt_stdio_output@@@2@@__crt_stdio_output@@AEAA_NXZ 000000018017df68 f i libucrt:output.obj
 0001:0017cff0       ?type_case_n@?$output_processor@_WV?$string_output_adapter@_W@__crt_stdio_output@@V?$format_validation_base@_WV?$string_output_adapter@_W@__crt_stdio_output@@@2@@__crt_stdio_output@@AEAA_NXZ 000000018017dff0 f i libucrt:output.obj
 0001:0017d078       ?type_case_n@?$output_processor@_WV?$string_output_adapter@_W@__crt_stdio_output@@V?$positional_parameter_base@_WV?$string_output_adapter@_W@__crt_stdio_output@@@2@@__crt_stdio_output@@AEAA_NXZ 000000018017e078 f i libucrt:output.obj
 0001:0017d128       ?type_case_n@?$output_processor@_WV?$string_output_adapter@_W@__crt_stdio_output@@V?$standard_base@_WV?$string_output_adapter@_W@__crt_stdio_output@@@2@@__crt_stdio_output@@AEAA_NXZ 000000018017e128 f i libucrt:output.obj
 0001:0017d1b0       ?type_case_o@?$output_processor@DV?$stream_output_adapter@D@__crt_stdio_output@@V?$format_validation_base@DV?$stream_output_adapter@D@__crt_stdio_output@@@2@@__crt_stdio_output@@AEAA_NXZ 000000018017e1b0 f i libucrt:output.obj
 0001:0017d1d0       ?type_case_o@?$output_processor@DV?$stream_output_adapter@D@__crt_stdio_output@@V?$positional_parameter_base@DV?$stream_output_adapter@D@__crt_stdio_output@@@2@@__crt_stdio_output@@AEAA_NXZ 000000018017e1d0 f i libucrt:output.obj
 0001:0017d1f0       ?type_case_o@?$output_processor@DV?$stream_output_adapter@D@__crt_stdio_output@@V?$standard_base@DV?$stream_output_adapter@D@__crt_stdio_output@@@2@@__crt_stdio_output@@AEAA_NXZ 000000018017e1f0 f i libucrt:output.obj
 0001:0017d210       ?type_case_o@?$output_processor@DV?$string_output_adapter@D@__crt_stdio_output@@V?$format_validation_base@DV?$string_output_adapter@D@__crt_stdio_output@@@2@@__crt_stdio_output@@AEAA_NXZ 000000018017e210 f i libucrt:output.obj
 0001:0017d230       ?type_case_o@?$output_processor@DV?$string_output_adapter@D@__crt_stdio_output@@V?$positional_parameter_base@DV?$string_output_adapter@D@__crt_stdio_output@@@2@@__crt_stdio_output@@AEAA_NXZ 000000018017e230 f i libucrt:output.obj
 0001:0017d250       ?type_case_o@?$output_processor@DV?$string_output_adapter@D@__crt_stdio_output@@V?$standard_base@DV?$string_output_adapter@D@__crt_stdio_output@@@2@@__crt_stdio_output@@AEAA_NXZ 000000018017e250 f i libucrt:output.obj
 0001:0017d270       ?type_case_o@?$output_processor@_WV?$stream_output_adapter@_W@__crt_stdio_output@@V?$format_validation_base@_WV?$stream_output_adapter@_W@__crt_stdio_output@@@2@@__crt_stdio_output@@AEAA_NXZ 000000018017e270 f i libucrt:output.obj
 0001:0017d290       ?type_case_o@?$output_processor@_WV?$stream_output_adapter@_W@__crt_stdio_output@@V?$positional_parameter_base@_WV?$stream_output_adapter@_W@__crt_stdio_output@@@2@@__crt_stdio_output@@AEAA_NXZ 000000018017e290 f i libucrt:output.obj
 0001:0017d2b0       ?type_case_o@?$output_processor@_WV?$stream_output_adapter@_W@__crt_stdio_output@@V?$standard_base@_WV?$stream_output_adapter@_W@__crt_stdio_output@@@2@@__crt_stdio_output@@AEAA_NXZ 000000018017e2b0 f i libucrt:output.obj
 0001:0017d2d0       ?type_case_o@?$output_processor@_WV?$string_output_adapter@_W@__crt_stdio_output@@V?$format_validation_base@_WV?$string_output_adapter@_W@__crt_stdio_output@@@2@@__crt_stdio_output@@AEAA_NXZ 000000018017e2d0 f i libucrt:output.obj
 0001:0017d2f0       ?type_case_o@?$output_processor@_WV?$string_output_adapter@_W@__crt_stdio_output@@V?$positional_parameter_base@_WV?$string_output_adapter@_W@__crt_stdio_output@@@2@@__crt_stdio_output@@AEAA_NXZ 000000018017e2f0 f i libucrt:output.obj
 0001:0017d310       ?type_case_o@?$output_processor@_WV?$string_output_adapter@_W@__crt_stdio_output@@V?$standard_base@_WV?$string_output_adapter@_W@__crt_stdio_output@@@2@@__crt_stdio_output@@AEAA_NXZ 000000018017e310 f i libucrt:output.obj
 0001:0017d330       ?type_case_p@?$output_processor@DV?$stream_output_adapter@D@__crt_stdio_output@@V?$format_validation_base@DV?$stream_output_adapter@D@__crt_stdio_output@@@2@@__crt_stdio_output@@AEAA_NXZ 000000018017e330 f i libucrt:output.obj
 0001:0017d348       ?type_case_p@?$output_processor@DV?$stream_output_adapter@D@__crt_stdio_output@@V?$positional_parameter_base@DV?$stream_output_adapter@D@__crt_stdio_output@@@2@@__crt_stdio_output@@AEAA_NXZ 000000018017e348 f i libucrt:output.obj
 0001:0017d360       ?type_case_p@?$output_processor@DV?$stream_output_adapter@D@__crt_stdio_output@@V?$standard_base@DV?$stream_output_adapter@D@__crt_stdio_output@@@2@@__crt_stdio_output@@AEAA_NXZ 000000018017e360 f i libucrt:output.obj
 0001:0017d378       ?type_case_p@?$output_processor@DV?$string_output_adapter@D@__crt_stdio_output@@V?$format_validation_base@DV?$string_output_adapter@D@__crt_stdio_output@@@2@@__crt_stdio_output@@AEAA_NXZ 000000018017e378 f i libucrt:output.obj
 0001:0017d390       ?type_case_p@?$output_processor@DV?$string_output_adapter@D@__crt_stdio_output@@V?$positional_parameter_base@DV?$string_output_adapter@D@__crt_stdio_output@@@2@@__crt_stdio_output@@AEAA_NXZ 000000018017e390 f i libucrt:output.obj
 0001:0017d3a8       ?type_case_p@?$output_processor@DV?$string_output_adapter@D@__crt_stdio_output@@V?$standard_base@DV?$string_output_adapter@D@__crt_stdio_output@@@2@@__crt_stdio_output@@AEAA_NXZ 000000018017e3a8 f i libucrt:output.obj
 0001:0017d3c0       ?type_case_p@?$output_processor@_WV?$stream_output_adapter@_W@__crt_stdio_output@@V?$format_validation_base@_WV?$stream_output_adapter@_W@__crt_stdio_output@@@2@@__crt_stdio_output@@AEAA_NXZ 000000018017e3c0 f i libucrt:output.obj
 0001:0017d3d8       ?type_case_p@?$output_processor@_WV?$stream_output_adapter@_W@__crt_stdio_output@@V?$positional_parameter_base@_WV?$stream_output_adapter@_W@__crt_stdio_output@@@2@@__crt_stdio_output@@AEAA_NXZ 000000018017e3d8 f i libucrt:output.obj
 0001:0017d3f0       ?type_case_p@?$output_processor@_WV?$stream_output_adapter@_W@__crt_stdio_output@@V?$standard_base@_WV?$stream_output_adapter@_W@__crt_stdio_output@@@2@@__crt_stdio_output@@AEAA_NXZ 000000018017e3f0 f i libucrt:output.obj
 0001:0017d408       ?type_case_p@?$output_processor@_WV?$string_output_adapter@_W@__crt_stdio_output@@V?$format_validation_base@_WV?$string_output_adapter@_W@__crt_stdio_output@@@2@@__crt_stdio_output@@AEAA_NXZ 000000018017e408 f i libucrt:output.obj
 0001:0017d420       ?type_case_p@?$output_processor@_WV?$string_output_adapter@_W@__crt_stdio_output@@V?$positional_parameter_base@_WV?$string_output_adapter@_W@__crt_stdio_output@@@2@@__crt_stdio_output@@AEAA_NXZ 000000018017e420 f i libucrt:output.obj
 0001:0017d438       ?type_case_p@?$output_processor@_WV?$string_output_adapter@_W@__crt_stdio_output@@V?$standard_base@_WV?$string_output_adapter@_W@__crt_stdio_output@@@2@@__crt_stdio_output@@AEAA_NXZ 000000018017e438 f i libucrt:output.obj
 0001:0017d450       ?type_case_s@?$output_processor@DV?$stream_output_adapter@D@__crt_stdio_output@@V?$format_validation_base@DV?$stream_output_adapter@D@__crt_stdio_output@@@2@@__crt_stdio_output@@AEAA_NXZ 000000018017e450 f i libucrt:output.obj
 0001:0017d4e8       ?type_case_s@?$output_processor@DV?$stream_output_adapter@D@__crt_stdio_output@@V?$positional_parameter_base@DV?$stream_output_adapter@D@__crt_stdio_output@@@2@@__crt_stdio_output@@AEAA_NXZ 000000018017e4e8 f i libucrt:output.obj
 0001:0017d5a0       ?type_case_s@?$output_processor@DV?$stream_output_adapter@D@__crt_stdio_output@@V?$standard_base@DV?$stream_output_adapter@D@__crt_stdio_output@@@2@@__crt_stdio_output@@AEAA_NXZ 000000018017e5a0 f i libucrt:output.obj
 0001:0017d638       ?type_case_s@?$output_processor@DV?$string_output_adapter@D@__crt_stdio_output@@V?$format_validation_base@DV?$string_output_adapter@D@__crt_stdio_output@@@2@@__crt_stdio_output@@AEAA_NXZ 000000018017e638 f i libucrt:output.obj
 0001:0017d6d0       ?type_case_s@?$output_processor@DV?$string_output_adapter@D@__crt_stdio_output@@V?$positional_parameter_base@DV?$string_output_adapter@D@__crt_stdio_output@@@2@@__crt_stdio_output@@AEAA_NXZ 000000018017e6d0 f i libucrt:output.obj
 0001:0017d788       ?type_case_s@?$output_processor@DV?$string_output_adapter@D@__crt_stdio_output@@V?$standard_base@DV?$string_output_adapter@D@__crt_stdio_output@@@2@@__crt_stdio_output@@AEAA_NXZ 000000018017e788 f i libucrt:output.obj
 0001:0017d820       ?type_case_s@?$output_processor@_WV?$stream_output_adapter@_W@__crt_stdio_output@@V?$format_validation_base@_WV?$stream_output_adapter@_W@__crt_stdio_output@@@2@@__crt_stdio_output@@AEAA_NXZ 000000018017e820 f i libucrt:output.obj
 0001:0017d8e8       ?type_case_s@?$output_processor@_WV?$stream_output_adapter@_W@__crt_stdio_output@@V?$positional_parameter_base@_WV?$stream_output_adapter@_W@__crt_stdio_output@@@2@@__crt_stdio_output@@AEAA_NXZ 000000018017e8e8 f i libucrt:output.obj
 0001:0017d9d4       ?type_case_s@?$output_processor@_WV?$stream_output_adapter@_W@__crt_stdio_output@@V?$standard_base@_WV?$stream_output_adapter@_W@__crt_stdio_output@@@2@@__crt_stdio_output@@AEAA_NXZ 000000018017e9d4 f i libucrt:output.obj
 0001:0017da9c       ?type_case_s@?$output_processor@_WV?$string_output_adapter@_W@__crt_stdio_output@@V?$format_validation_base@_WV?$string_output_adapter@_W@__crt_stdio_output@@@2@@__crt_stdio_output@@AEAA_NXZ 000000018017ea9c f i libucrt:output.obj
 0001:0017db64       ?type_case_s@?$output_processor@_WV?$string_output_adapter@_W@__crt_stdio_output@@V?$positional_parameter_base@_WV?$string_output_adapter@_W@__crt_stdio_output@@@2@@__crt_stdio_output@@AEAA_NXZ 000000018017eb64 f i libucrt:output.obj
 0001:0017dc50       ?type_case_s@?$output_processor@_WV?$string_output_adapter@_W@__crt_stdio_output@@V?$standard_base@_WV?$string_output_adapter@_W@__crt_stdio_output@@@2@@__crt_stdio_output@@AEAA_NXZ 000000018017ec50 f i libucrt:output.obj
 0001:0017dd18       ?type_case_s_compute_narrow_string_length@?$output_processor@DV?$stream_output_adapter@D@__crt_stdio_output@@V?$format_validation_base@DV?$stream_output_adapter@D@__crt_stdio_output@@@2@@__crt_stdio_output@@AEBAHHD@Z 000000018017ed18 f i libucrt:output.obj
 0001:0017dd24       ?type_case_s_compute_narrow_string_length@?$output_processor@DV?$stream_output_adapter@D@__crt_stdio_output@@V?$positional_parameter_base@DV?$stream_output_adapter@D@__crt_stdio_output@@@2@@__crt_stdio_output@@AEBAHHD@Z 000000018017ed24 f i libucrt:output.obj
 0001:0017dd30       ?type_case_s_compute_narrow_string_length@?$output_processor@DV?$stream_output_adapter@D@__crt_stdio_output@@V?$standard_base@DV?$stream_output_adapter@D@__crt_stdio_output@@@2@@__crt_stdio_output@@AEBAHHD@Z 000000018017ed30 f i libucrt:output.obj
 0001:0017dd3c       ?type_case_s_compute_narrow_string_length@?$output_processor@DV?$string_output_adapter@D@__crt_stdio_output@@V?$format_validation_base@DV?$string_output_adapter@D@__crt_stdio_output@@@2@@__crt_stdio_output@@AEBAHHD@Z 000000018017ed3c f i libucrt:output.obj
 0001:0017dd48       ?type_case_s_compute_narrow_string_length@?$output_processor@DV?$string_output_adapter@D@__crt_stdio_output@@V?$positional_parameter_base@DV?$string_output_adapter@D@__crt_stdio_output@@@2@@__crt_stdio_output@@AEBAHHD@Z 000000018017ed48 f i libucrt:output.obj
 0001:0017dd54       ?type_case_s_compute_narrow_string_length@?$output_processor@DV?$string_output_adapter@D@__crt_stdio_output@@V?$standard_base@DV?$string_output_adapter@D@__crt_stdio_output@@@2@@__crt_stdio_output@@AEBAHHD@Z 000000018017ed54 f i libucrt:output.obj
 0001:0017dd60       ?type_case_s_compute_narrow_string_length@?$output_processor@_WV?$stream_output_adapter@_W@__crt_stdio_output@@V?$format_validation_base@_WV?$stream_output_adapter@_W@__crt_stdio_output@@@2@@__crt_stdio_output@@AEBAHH_W@Z 000000018017ed60 f i libucrt:output.obj
 0001:0017ddb4       ?type_case_s_compute_narrow_string_length@?$output_processor@_WV?$stream_output_adapter@_W@__crt_stdio_output@@V?$positional_parameter_base@_WV?$stream_output_adapter@_W@__crt_stdio_output@@@2@@__crt_stdio_output@@AEBAHH_W@Z 000000018017edb4 f i libucrt:output.obj
 0001:0017de08       ?type_case_s_compute_narrow_string_length@?$output_processor@_WV?$stream_output_adapter@_W@__crt_stdio_output@@V?$standard_base@_WV?$stream_output_adapter@_W@__crt_stdio_output@@@2@@__crt_stdio_output@@AEBAHH_W@Z 000000018017ee08 f i libucrt:output.obj
 0001:0017de5c       ?type_case_s_compute_narrow_string_length@?$output_processor@_WV?$string_output_adapter@_W@__crt_stdio_output@@V?$format_validation_base@_WV?$string_output_adapter@_W@__crt_stdio_output@@@2@@__crt_stdio_output@@AEBAHH_W@Z 000000018017ee5c f i libucrt:output.obj
 0001:0017deb0       ?type_case_s_compute_narrow_string_length@?$output_processor@_WV?$string_output_adapter@_W@__crt_stdio_output@@V?$positional_parameter_base@_WV?$string_output_adapter@_W@__crt_stdio_output@@@2@@__crt_stdio_output@@AEBAHH_W@Z 000000018017eeb0 f i libucrt:output.obj
 0001:0017df04       ?type_case_s_compute_narrow_string_length@?$output_processor@_WV?$string_output_adapter@_W@__crt_stdio_output@@V?$standard_base@_WV?$string_output_adapter@_W@__crt_stdio_output@@@2@@__crt_stdio_output@@AEBAHH_W@Z 000000018017ef04 f i libucrt:output.obj
 0001:0017df58       ?type_case_u@?$output_processor@DV?$stream_output_adapter@D@__crt_stdio_output@@V?$format_validation_base@DV?$stream_output_adapter@D@__crt_stdio_output@@@2@@__crt_stdio_output@@AEAA_NXZ 000000018017ef58 f i libucrt:output.obj
 0001:0017df64       ?type_case_u@?$output_processor@DV?$stream_output_adapter@D@__crt_stdio_output@@V?$positional_parameter_base@DV?$stream_output_adapter@D@__crt_stdio_output@@@2@@__crt_stdio_output@@AEAA_NXZ 000000018017ef64 f i libucrt:output.obj
 0001:0017df70       ?type_case_u@?$output_processor@DV?$stream_output_adapter@D@__crt_stdio_output@@V?$standard_base@DV?$stream_output_adapter@D@__crt_stdio_output@@@2@@__crt_stdio_output@@AEAA_NXZ 000000018017ef70 f i libucrt:output.obj
 0001:0017df7c       ?type_case_u@?$output_processor@DV?$string_output_adapter@D@__crt_stdio_output@@V?$format_validation_base@DV?$string_output_adapter@D@__crt_stdio_output@@@2@@__crt_stdio_output@@AEAA_NXZ 000000018017ef7c f i libucrt:output.obj
 0001:0017df88       ?type_case_u@?$output_processor@DV?$string_output_adapter@D@__crt_stdio_output@@V?$positional_parameter_base@DV?$string_output_adapter@D@__crt_stdio_output@@@2@@__crt_stdio_output@@AEAA_NXZ 000000018017ef88 f i libucrt:output.obj
 0001:0017df94       ?type_case_u@?$output_processor@DV?$string_output_adapter@D@__crt_stdio_output@@V?$standard_base@DV?$string_output_adapter@D@__crt_stdio_output@@@2@@__crt_stdio_output@@AEAA_NXZ 000000018017ef94 f i libucrt:output.obj
 0001:0017dfa0       ?type_case_u@?$output_processor@_WV?$stream_output_adapter@_W@__crt_stdio_output@@V?$format_validation_base@_WV?$stream_output_adapter@_W@__crt_stdio_output@@@2@@__crt_stdio_output@@AEAA_NXZ 000000018017efa0 f i libucrt:output.obj
 0001:0017dfac       ?type_case_u@?$output_processor@_WV?$stream_output_adapter@_W@__crt_stdio_output@@V?$positional_parameter_base@_WV?$stream_output_adapter@_W@__crt_stdio_output@@@2@@__crt_stdio_output@@AEAA_NXZ 000000018017efac f i libucrt:output.obj
 0001:0017dfb8       ?type_case_u@?$output_processor@_WV?$stream_output_adapter@_W@__crt_stdio_output@@V?$standard_base@_WV?$stream_output_adapter@_W@__crt_stdio_output@@@2@@__crt_stdio_output@@AEAA_NXZ 000000018017efb8 f i libucrt:output.obj
 0001:0017dfc4       ?type_case_u@?$output_processor@_WV?$string_output_adapter@_W@__crt_stdio_output@@V?$format_validation_base@_WV?$string_output_adapter@_W@__crt_stdio_output@@@2@@__crt_stdio_output@@AEAA_NXZ 000000018017efc4 f i libucrt:output.obj
 0001:0017dfd0       ?type_case_u@?$output_processor@_WV?$string_output_adapter@_W@__crt_stdio_output@@V?$positional_parameter_base@_WV?$string_output_adapter@_W@__crt_stdio_output@@@2@@__crt_stdio_output@@AEAA_NXZ 000000018017efd0 f i libucrt:output.obj
 0001:0017dfdc       ?type_case_u@?$output_processor@_WV?$string_output_adapter@_W@__crt_stdio_output@@V?$standard_base@_WV?$string_output_adapter@_W@__crt_stdio_output@@@2@@__crt_stdio_output@@AEAA_NXZ 000000018017efdc f i libucrt:output.obj
 0001:0017dfe8       ?type_case_x@?$output_processor@DV?$stream_output_adapter@D@__crt_stdio_output@@V?$format_validation_base@DV?$stream_output_adapter@D@__crt_stdio_output@@@2@@__crt_stdio_output@@AEAA_NXZ 000000018017efe8 f i libucrt:output.obj
 0001:0017dff4       ?type_case_x@?$output_processor@DV?$stream_output_adapter@D@__crt_stdio_output@@V?$positional_parameter_base@DV?$stream_output_adapter@D@__crt_stdio_output@@@2@@__crt_stdio_output@@AEAA_NXZ 000000018017eff4 f i libucrt:output.obj
 0001:0017e000       ?type_case_x@?$output_processor@DV?$stream_output_adapter@D@__crt_stdio_output@@V?$standard_base@DV?$stream_output_adapter@D@__crt_stdio_output@@@2@@__crt_stdio_output@@AEAA_NXZ 000000018017f000 f i libucrt:output.obj
 0001:0017e00c       ?type_case_x@?$output_processor@DV?$string_output_adapter@D@__crt_stdio_output@@V?$format_validation_base@DV?$string_output_adapter@D@__crt_stdio_output@@@2@@__crt_stdio_output@@AEAA_NXZ 000000018017f00c f i libucrt:output.obj
 0001:0017e018       ?type_case_x@?$output_processor@DV?$string_output_adapter@D@__crt_stdio_output@@V?$positional_parameter_base@DV?$string_output_adapter@D@__crt_stdio_output@@@2@@__crt_stdio_output@@AEAA_NXZ 000000018017f018 f i libucrt:output.obj
 0001:0017e024       ?type_case_x@?$output_processor@DV?$string_output_adapter@D@__crt_stdio_output@@V?$standard_base@DV?$string_output_adapter@D@__crt_stdio_output@@@2@@__crt_stdio_output@@AEAA_NXZ 000000018017f024 f i libucrt:output.obj
 0001:0017e030       ?type_case_x@?$output_processor@_WV?$stream_output_adapter@_W@__crt_stdio_output@@V?$format_validation_base@_WV?$stream_output_adapter@_W@__crt_stdio_output@@@2@@__crt_stdio_output@@AEAA_NXZ 000000018017f030 f i libucrt:output.obj
 0001:0017e03c       ?type_case_x@?$output_processor@_WV?$stream_output_adapter@_W@__crt_stdio_output@@V?$positional_parameter_base@_WV?$stream_output_adapter@_W@__crt_stdio_output@@@2@@__crt_stdio_output@@AEAA_NXZ 000000018017f03c f i libucrt:output.obj
 0001:0017e048       ?type_case_x@?$output_processor@_WV?$stream_output_adapter@_W@__crt_stdio_output@@V?$standard_base@_WV?$stream_output_adapter@_W@__crt_stdio_output@@@2@@__crt_stdio_output@@AEAA_NXZ 000000018017f048 f i libucrt:output.obj
 0001:0017e054       ?type_case_x@?$output_processor@_WV?$string_output_adapter@_W@__crt_stdio_output@@V?$format_validation_base@_WV?$string_output_adapter@_W@__crt_stdio_output@@@2@@__crt_stdio_output@@AEAA_NXZ 000000018017f054 f i libucrt:output.obj
 0001:0017e060       ?type_case_x@?$output_processor@_WV?$string_output_adapter@_W@__crt_stdio_output@@V?$positional_parameter_base@_WV?$string_output_adapter@_W@__crt_stdio_output@@@2@@__crt_stdio_output@@AEAA_NXZ 000000018017f060 f i libucrt:output.obj
 0001:0017e06c       ?type_case_x@?$output_processor@_WV?$string_output_adapter@_W@__crt_stdio_output@@V?$standard_base@_WV?$string_output_adapter@_W@__crt_stdio_output@@@2@@__crt_stdio_output@@AEAA_NXZ 000000018017f06c f i libucrt:output.obj
 0001:0017e078       ?unset_flag@?$output_processor@DV?$stream_output_adapter@D@__crt_stdio_output@@V?$format_validation_base@DV?$stream_output_adapter@D@__crt_stdio_output@@@2@@__crt_stdio_output@@AEAAXI@Z 000000018017f078 f i libucrt:output.obj
 0001:0017e080       ?unset_flag@?$output_processor@DV?$stream_output_adapter@D@__crt_stdio_output@@V?$positional_parameter_base@DV?$stream_output_adapter@D@__crt_stdio_output@@@2@@__crt_stdio_output@@AEAAXI@Z 000000018017f080 f i libucrt:output.obj
 0001:0017e088       ?unset_flag@?$output_processor@DV?$stream_output_adapter@D@__crt_stdio_output@@V?$standard_base@DV?$stream_output_adapter@D@__crt_stdio_output@@@2@@__crt_stdio_output@@AEAAXI@Z 000000018017f088 f i libucrt:output.obj
 0001:0017e090       ?unset_flag@?$output_processor@DV?$string_output_adapter@D@__crt_stdio_output@@V?$format_validation_base@DV?$string_output_adapter@D@__crt_stdio_output@@@2@@__crt_stdio_output@@AEAAXI@Z 000000018017f090 f i libucrt:output.obj
 0001:0017e098       ?unset_flag@?$output_processor@DV?$string_output_adapter@D@__crt_stdio_output@@V?$positional_parameter_base@DV?$string_output_adapter@D@__crt_stdio_output@@@2@@__crt_stdio_output@@AEAAXI@Z 000000018017f098 f i libucrt:output.obj
 0001:0017e0a0       ?unset_flag@?$output_processor@DV?$string_output_adapter@D@__crt_stdio_output@@V?$standard_base@DV?$string_output_adapter@D@__crt_stdio_output@@@2@@__crt_stdio_output@@AEAAXI@Z 000000018017f0a0 f i libucrt:output.obj
 0001:0017e0a8       ?unset_flag@?$output_processor@_WV?$stream_output_adapter@_W@__crt_stdio_output@@V?$format_validation_base@_WV?$stream_output_adapter@_W@__crt_stdio_output@@@2@@__crt_stdio_output@@AEAAXI@Z 000000018017f0a8 f i libucrt:output.obj
 0001:0017e0b0       ?unset_flag@?$output_processor@_WV?$stream_output_adapter@_W@__crt_stdio_output@@V?$positional_parameter_base@_WV?$stream_output_adapter@_W@__crt_stdio_output@@@2@@__crt_stdio_output@@AEAAXI@Z 000000018017f0b0 f i libucrt:output.obj
 0001:0017e0b8       ?unset_flag@?$output_processor@_WV?$stream_output_adapter@_W@__crt_stdio_output@@V?$standard_base@_WV?$stream_output_adapter@_W@__crt_stdio_output@@@2@@__crt_stdio_output@@AEAAXI@Z 000000018017f0b8 f i libucrt:output.obj
 0001:0017e0c0       ?unset_flag@?$output_processor@_WV?$string_output_adapter@_W@__crt_stdio_output@@V?$format_validation_base@_WV?$string_output_adapter@_W@__crt_stdio_output@@@2@@__crt_stdio_output@@AEAAXI@Z 000000018017f0c0 f i libucrt:output.obj
 0001:0017e0c8       ?unset_flag@?$output_processor@_WV?$string_output_adapter@_W@__crt_stdio_output@@V?$positional_parameter_base@_WV?$string_output_adapter@_W@__crt_stdio_output@@@2@@__crt_stdio_output@@AEAAXI@Z 000000018017f0c8 f i libucrt:output.obj
 0001:0017e0d0       ?unset_flag@?$output_processor@_WV?$string_output_adapter@_W@__crt_stdio_output@@V?$standard_base@_WV?$string_output_adapter@_W@__crt_stdio_output@@@2@@__crt_stdio_output@@AEAAXI@Z 000000018017f0d0 f i libucrt:output.obj
 0001:0017e0d8       ?update_field_width@?$positional_parameter_base@DV?$stream_output_adapter@D@__crt_stdio_output@@@__crt_stdio_output@@IEAA_NXZ 000000018017f0d8 f i libucrt:output.obj
 0001:0017e1f0       ?update_field_width@?$positional_parameter_base@DV?$string_output_adapter@D@__crt_stdio_output@@@__crt_stdio_output@@IEAA_NXZ 000000018017f1f0 f i libucrt:output.obj
 0001:0017e308       ?update_field_width@?$positional_parameter_base@_WV?$stream_output_adapter@_W@__crt_stdio_output@@@__crt_stdio_output@@IEAA_NXZ 000000018017f308 f i libucrt:output.obj
 0001:0017e420       ?update_field_width@?$positional_parameter_base@_WV?$string_output_adapter@_W@__crt_stdio_output@@@__crt_stdio_output@@IEAA_NXZ 000000018017f420 f i libucrt:output.obj
 0001:0017e538       ?update_field_width@?$standard_base@DV?$stream_output_adapter@D@__crt_stdio_output@@@__crt_stdio_output@@IEAA_NXZ 000000018017f538 f i libucrt:output.obj
 0001:0017e54c       ?update_field_width@?$standard_base@DV?$string_output_adapter@D@__crt_stdio_output@@@__crt_stdio_output@@IEAA_NXZ 000000018017f54c f i libucrt:output.obj
 0001:0017e560       ?update_field_width@?$standard_base@_WV?$stream_output_adapter@_W@__crt_stdio_output@@@__crt_stdio_output@@IEAA_NXZ 000000018017f560 f i libucrt:output.obj
 0001:0017e574       ?update_field_width@?$standard_base@_WV?$string_output_adapter@_W@__crt_stdio_output@@@__crt_stdio_output@@IEAA_NXZ 000000018017f574 f i libucrt:output.obj
 0001:0017e588       ?update_precision@?$positional_parameter_base@DV?$stream_output_adapter@D@__crt_stdio_output@@@__crt_stdio_output@@IEAA_NXZ 000000018017f588 f i libucrt:output.obj
 0001:0017e6a0       ?update_precision@?$positional_parameter_base@DV?$string_output_adapter@D@__crt_stdio_output@@@__crt_stdio_output@@IEAA_NXZ 000000018017f6a0 f i libucrt:output.obj
 0001:0017e7b8       ?update_precision@?$positional_parameter_base@_WV?$stream_output_adapter@_W@__crt_stdio_output@@@__crt_stdio_output@@IEAA_NXZ 000000018017f7b8 f i libucrt:output.obj
 0001:0017e8d0       ?update_precision@?$positional_parameter_base@_WV?$string_output_adapter@_W@__crt_stdio_output@@@__crt_stdio_output@@IEAA_NXZ 000000018017f8d0 f i libucrt:output.obj
 0001:0017e9e8       ?update_precision@?$standard_base@DV?$stream_output_adapter@D@__crt_stdio_output@@@__crt_stdio_output@@IEAA_NXZ 000000018017f9e8 f i libucrt:output.obj
 0001:0017e9fc       ?update_precision@?$standard_base@DV?$string_output_adapter@D@__crt_stdio_output@@@__crt_stdio_output@@IEAA_NXZ 000000018017f9fc f i libucrt:output.obj
 0001:0017ea10       ?update_precision@?$standard_base@_WV?$stream_output_adapter@_W@__crt_stdio_output@@@__crt_stdio_output@@IEAA_NXZ 000000018017fa10 f i libucrt:output.obj
 0001:0017ea24       ?update_precision@?$standard_base@_WV?$string_output_adapter@_W@__crt_stdio_output@@@__crt_stdio_output@@IEAA_NXZ 000000018017fa24 f i libucrt:output.obj
 0001:0017ea38       ?valid@__crt_stdio_stream@@QEBA_NXZ 000000018017fa38 f i libucrt:output.obj
 0001:0017ea40       ?validate@?$stream_output_adapter@D@__crt_stdio_output@@QEBA_NXZ 000000018017fa40 f i libucrt:output.obj
 0001:0017ea6c       ?validate@?$stream_output_adapter@_W@__crt_stdio_output@@QEBA_NXZ 000000018017fa6c f i libucrt:output.obj
 0001:0017ea94       ?validate@?$string_output_adapter@D@__crt_stdio_output@@QEBA_NXZ 000000018017fa94 f i libucrt:output.obj
 0001:0017eabc       ?validate@?$string_output_adapter@_W@__crt_stdio_output@@QEBA_NXZ 000000018017fabc f i libucrt:output.obj
 0001:0017eae4       ?validate_and_store_parameter_data@?$positional_parameter_base@DV?$stream_output_adapter@D@__crt_stdio_output@@@__crt_stdio_output@@AEAA_NAEAUparameter_data@12@W4parameter_type@12@DW4length_modifier@2@@Z 000000018017fae4 f i libucrt:output.obj
 0001:0017eb24       ?validate_and_store_parameter_data@?$positional_parameter_base@DV?$string_output_adapter@D@__crt_stdio_output@@@__crt_stdio_output@@AEAA_NAEAUparameter_data@12@W4parameter_type@12@DW4length_modifier@2@@Z 000000018017fb24 f i libucrt:output.obj
 0001:0017eb64       ?validate_and_store_parameter_data@?$positional_parameter_base@_WV?$stream_output_adapter@_W@__crt_stdio_output@@@__crt_stdio_output@@AEAA_NAEAUparameter_data@12@W4parameter_type@12@_WW4length_modifier@2@@Z 000000018017fb64 f i libucrt:output.obj
 0001:0017eba4       ?validate_and_store_parameter_data@?$positional_parameter_base@_WV?$string_output_adapter@_W@__crt_stdio_output@@@__crt_stdio_output@@AEAA_NAEAUparameter_data@12@W4parameter_type@12@_WW4length_modifier@2@@Z 000000018017fba4 f i libucrt:output.obj
 0001:0017ebe4       ?validate_and_update_state_at_beginning_of_format_character@?$positional_parameter_base@DV?$stream_output_adapter@D@__crt_stdio_output@@@__crt_stdio_output@@IEAA_NXZ 000000018017fbe4 f i libucrt:output.obj
 0001:0017ecf0       ?validate_and_update_state_at_beginning_of_format_character@?$positional_parameter_base@DV?$string_output_adapter@D@__crt_stdio_output@@@__crt_stdio_output@@IEAA_NXZ 000000018017fcf0 f i libucrt:output.obj
 0001:0017edfc       ?validate_and_update_state_at_beginning_of_format_character@?$positional_parameter_base@_WV?$stream_output_adapter@_W@__crt_stdio_output@@@__crt_stdio_output@@IEAA_NXZ 000000018017fdfc f i libucrt:output.obj
 0001:0017ef10       ?validate_and_update_state_at_beginning_of_format_character@?$positional_parameter_base@_WV?$string_output_adapter@_W@__crt_stdio_output@@@__crt_stdio_output@@IEAA_NXZ 000000018017ff10 f i libucrt:output.obj
 0001:0017f024       ?validate_and_update_state_at_beginning_of_format_character@?$standard_base@DV?$stream_output_adapter@D@__crt_stdio_output@@@__crt_stdio_output@@IEAA_NXZ 0000000180180024 f i libucrt:output.obj
 0001:0017f028       ?validate_and_update_state_at_beginning_of_format_character@?$standard_base@DV?$string_output_adapter@D@__crt_stdio_output@@@__crt_stdio_output@@IEAA_NXZ 0000000180180028 f i libucrt:output.obj
 0001:0017f02c       ?validate_and_update_state_at_beginning_of_format_character@?$standard_base@_WV?$stream_output_adapter@_W@__crt_stdio_output@@@__crt_stdio_output@@IEAA_NXZ 000000018018002c f i libucrt:output.obj
 0001:0017f030       ?validate_and_update_state_at_beginning_of_format_character@?$standard_base@_WV?$string_output_adapter@_W@__crt_stdio_output@@@__crt_stdio_output@@IEAA_NXZ 0000000180180030 f i libucrt:output.obj
 0001:0017f034       ?validate_and_update_state_at_end_of_format_string@?$format_validation_base@DV?$stream_output_adapter@D@__crt_stdio_output@@@__crt_stdio_output@@IEBA_NXZ 0000000180180034 f i libucrt:output.obj
 0001:0017f060       ?validate_and_update_state_at_end_of_format_string@?$format_validation_base@DV?$string_output_adapter@D@__crt_stdio_output@@@__crt_stdio_output@@IEBA_NXZ 0000000180180060 f i libucrt:output.obj
 0001:0017f08c       ?validate_and_update_state_at_end_of_format_string@?$format_validation_base@_WV?$stream_output_adapter@_W@__crt_stdio_output@@@__crt_stdio_output@@IEBA_NXZ 000000018018008c f i libucrt:output.obj
 0001:0017f0b8       ?validate_and_update_state_at_end_of_format_string@?$format_validation_base@_WV?$string_output_adapter@_W@__crt_stdio_output@@@__crt_stdio_output@@IEBA_NXZ 00000001801800b8 f i libucrt:output.obj
 0001:0017f0e4       ?validate_and_update_state_at_end_of_format_string@?$positional_parameter_base@DV?$stream_output_adapter@D@__crt_stdio_output@@@__crt_stdio_output@@IEAA_NXZ 00000001801800e4 f i libucrt:output.obj
 0001:0017f180       ?validate_and_update_state_at_end_of_format_string@?$positional_parameter_base@DV?$string_output_adapter@D@__crt_stdio_output@@@__crt_stdio_output@@IEAA_NXZ 0000000180180180 f i libucrt:output.obj
 0001:0017f21c       ?validate_and_update_state_at_end_of_format_string@?$positional_parameter_base@_WV?$stream_output_adapter@_W@__crt_stdio_output@@@__crt_stdio_output@@IEAA_NXZ 000000018018021c f i libucrt:output.obj
 0001:0017f2b8       ?validate_and_update_state_at_end_of_format_string@?$positional_parameter_base@_WV?$string_output_adapter@_W@__crt_stdio_output@@@__crt_stdio_output@@IEAA_NXZ 00000001801802b8 f i libucrt:output.obj
 0001:0017f354       ?validate_and_update_state_at_end_of_format_string@?$standard_base@DV?$stream_output_adapter@D@__crt_stdio_output@@@__crt_stdio_output@@IEBA_NXZ 0000000180180354 f i libucrt:output.obj
 0001:0017f358       ?validate_and_update_state_at_end_of_format_string@?$standard_base@DV?$string_output_adapter@D@__crt_stdio_output@@@__crt_stdio_output@@IEBA_NXZ 0000000180180358 f i libucrt:output.obj
 0001:0017f35c       ?validate_and_update_state_at_end_of_format_string@?$standard_base@_WV?$stream_output_adapter@_W@__crt_stdio_output@@@__crt_stdio_output@@IEBA_NXZ 000000018018035c f i libucrt:output.obj
 0001:0017f360       ?validate_and_update_state_at_end_of_format_string@?$standard_base@_WV?$string_output_adapter@_W@__crt_stdio_output@@@__crt_stdio_output@@IEBA_NXZ 0000000180180360 f i libucrt:output.obj
 0001:0017f364       ?validate_state_for_type_case_a@?$positional_parameter_base@DV?$stream_output_adapter@D@__crt_stdio_output@@@__crt_stdio_output@@IEAA_NXZ 0000000180180364 f i libucrt:output.obj
 0001:0017f400       ?validate_state_for_type_case_a@?$positional_parameter_base@DV?$string_output_adapter@D@__crt_stdio_output@@@__crt_stdio_output@@IEAA_NXZ 0000000180180400 f i libucrt:output.obj
 0001:0017f49c       ?validate_state_for_type_case_a@?$positional_parameter_base@_WV?$stream_output_adapter@_W@__crt_stdio_output@@@__crt_stdio_output@@IEAA_NXZ 000000018018049c f i libucrt:output.obj
 0001:0017f53c       ?validate_state_for_type_case_a@?$positional_parameter_base@_WV?$string_output_adapter@_W@__crt_stdio_output@@@__crt_stdio_output@@IEAA_NXZ 000000018018053c f i libucrt:output.obj
 0001:0017f5dc       ?validate_state_for_type_case_a@?$standard_base@DV?$stream_output_adapter@D@__crt_stdio_output@@@__crt_stdio_output@@IEBA_NXZ 00000001801805dc f i libucrt:output.obj
 0001:0017f5e0       ?validate_state_for_type_case_a@?$standard_base@DV?$string_output_adapter@D@__crt_stdio_output@@@__crt_stdio_output@@IEBA_NXZ 00000001801805e0 f i libucrt:output.obj
 0001:0017f5e4       ?validate_state_for_type_case_a@?$standard_base@_WV?$stream_output_adapter@_W@__crt_stdio_output@@@__crt_stdio_output@@IEBA_NXZ 00000001801805e4 f i libucrt:output.obj
 0001:0017f5e8       ?validate_state_for_type_case_a@?$standard_base@_WV?$string_output_adapter@_W@__crt_stdio_output@@@__crt_stdio_output@@IEBA_NXZ 00000001801805e8 f i libucrt:output.obj
 0001:0017f5ec       ?validate_stream_is_ansi_if_required@?$__acrt_stdio_char_traits@D@@SA_NQEAU_iobuf@@@Z 00000001801805ec f i libucrt:output.obj
 0001:0017f688       ?validate_stream_is_ansi_if_required@?$__acrt_stdio_char_traits@_W@@SA_NQEAU_iobuf@@@Z 0000000180180688 f i libucrt:output.obj
 0001:0017f68c       ?wide_null_string@?$output_processor@DV?$stream_output_adapter@D@__crt_stdio_output@@V?$format_validation_base@DV?$stream_output_adapter@D@__crt_stdio_output@@@2@@__crt_stdio_output@@CAPEA_WXZ 000000018018068c f i libucrt:output.obj
 0001:0017f694       ?wide_null_string@?$output_processor@DV?$stream_output_adapter@D@__crt_stdio_output@@V?$positional_parameter_base@DV?$stream_output_adapter@D@__crt_stdio_output@@@2@@__crt_stdio_output@@CAPEA_WXZ 0000000180180694 f i libucrt:output.obj
 0001:0017f69c       ?wide_null_string@?$output_processor@DV?$stream_output_adapter@D@__crt_stdio_output@@V?$standard_base@DV?$stream_output_adapter@D@__crt_stdio_output@@@2@@__crt_stdio_output@@CAPEA_WXZ 000000018018069c f i libucrt:output.obj
 0001:0017f6a4       ?wide_null_string@?$output_processor@DV?$string_output_adapter@D@__crt_stdio_output@@V?$format_validation_base@DV?$string_output_adapter@D@__crt_stdio_output@@@2@@__crt_stdio_output@@CAPEA_WXZ 00000001801806a4 f i libucrt:output.obj
 0001:0017f6ac       ?wide_null_string@?$output_processor@DV?$string_output_adapter@D@__crt_stdio_output@@V?$positional_parameter_base@DV?$string_output_adapter@D@__crt_stdio_output@@@2@@__crt_stdio_output@@CAPEA_WXZ 00000001801806ac f i libucrt:output.obj
 0001:0017f6b4       ?wide_null_string@?$output_processor@DV?$string_output_adapter@D@__crt_stdio_output@@V?$standard_base@DV?$string_output_adapter@D@__crt_stdio_output@@@2@@__crt_stdio_output@@CAPEA_WXZ 00000001801806b4 f i libucrt:output.obj
 0001:0017f6bc       ?wide_null_string@?$output_processor@_WV?$stream_output_adapter@_W@__crt_stdio_output@@V?$format_validation_base@_WV?$stream_output_adapter@_W@__crt_stdio_output@@@2@@__crt_stdio_output@@CAPEA_WXZ 00000001801806bc f i libucrt:output.obj
 0001:0017f6c4       ?wide_null_string@?$output_processor@_WV?$stream_output_adapter@_W@__crt_stdio_output@@V?$positional_parameter_base@_WV?$stream_output_adapter@_W@__crt_stdio_output@@@2@@__crt_stdio_output@@CAPEA_WXZ 00000001801806c4 f i libucrt:output.obj
